
hello.elf:     file format elf32-littlenios2
hello.elf
architecture: nios2:r1, flags 0x00000112:
EXEC_P, HAS_SYMS, D_PAGED
start address 0x08000244

Program Header:
    LOAD off    0x00001000 vaddr 0x08000000 paddr 0x08000000 align 2**12
         filesz 0x00000020 memsz 0x00000020 flags r-x
    LOAD off    0x00001020 vaddr 0x08000020 paddr 0x08000020 align 2**12
         filesz 0x00037188 memsz 0x00037188 flags r-x
    LOAD off    0x000381a8 vaddr 0x080371a8 paddr 0x08038e18 align 2**12
         filesz 0x00001c70 memsz 0x00001c70 flags rw-
    LOAD off    0x0003aa88 vaddr 0x0803aa88 paddr 0x0803aa88 align 2**12
         filesz 0x00000000 memsz 0x00000170 flags rw-

Sections:
Idx Name          Size      VMA       LMA       File off  Algn
  0 .entry        00000020  08000000  08000000  00001000  2**5
                  CONTENTS, ALLOC, LOAD, READONLY, CODE
  1 .exceptions   00000224  08000020  08000020  00001020  2**2
                  CONTENTS, ALLOC, LOAD, READONLY, CODE
  2 .text         000364d0  08000244  08000244  00001244  2**2
                  CONTENTS, ALLOC, LOAD, READONLY, CODE
  3 .rodata       00000a94  08036714  08036714  00037714  2**2
                  CONTENTS, ALLOC, LOAD, READONLY, DATA
  4 .rwdata       00001c70  080371a8  08038e18  000381a8  2**2
                  CONTENTS, ALLOC, LOAD, DATA, SMALL_DATA
  5 .bss          00000170  0803aa88  0803aa88  0003aa88  2**2
                  ALLOC, SMALL_DATA
  6 .sdram        00000000  0803abf8  0803abf8  00039e18  2**0
                  CONTENTS
  7 .bufferram_out 00000000  10000000  10000000  00039e18  2**0
                  CONTENTS
  8 .comment      00000023  00000000  00000000  00039e18  2**0
                  CONTENTS, READONLY
  9 .debug_aranges 000013e0  00000000  00000000  00039e40  2**3
                  CONTENTS, READONLY, DEBUGGING
 10 .debug_info   0003719f  00000000  00000000  0003b220  2**0
                  CONTENTS, READONLY, DEBUGGING
 11 .debug_abbrev 0000a703  00000000  00000000  000723bf  2**0
                  CONTENTS, READONLY, DEBUGGING
 12 .debug_line   00010372  00000000  00000000  0007cac2  2**0
                  CONTENTS, READONLY, DEBUGGING
 13 .debug_frame  0000b4cc  00000000  00000000  0008ce34  2**2
                  CONTENTS, READONLY, DEBUGGING
 14 .debug_str    0000692a  00000000  00000000  00098300  2**0
                  CONTENTS, READONLY, DEBUGGING
 15 .debug_loc    0000918e  00000000  00000000  0009ec2a  2**0
                  CONTENTS, READONLY, DEBUGGING
 16 .debug_alt_sim_info 00000030  00000000  00000000  000a7db8  2**2
                  CONTENTS, READONLY, DEBUGGING
 17 .debug_ranges 000015e0  00000000  00000000  000a7de8  2**3
                  CONTENTS, READONLY, DEBUGGING
 18 .thread_model 00000003  00000000  00000000  000b2134  2**0
                  CONTENTS, READONLY
 19 .cpu          0000000c  00000000  00000000  000b2137  2**0
                  CONTENTS, READONLY
 20 .qsys         00000001  00000000  00000000  000b2143  2**0
                  CONTENTS, READONLY
 21 .simulation_enabled 00000001  00000000  00000000  000b2144  2**0
                  CONTENTS, READONLY
 22 .sysid_hash   00000004  00000000  00000000  000b2145  2**0
                  CONTENTS, READONLY
 23 .sysid_base   00000004  00000000  00000000  000b2149  2**0
                  CONTENTS, READONLY
 24 .sysid_time   00000004  00000000  00000000  000b214d  2**0
                  CONTENTS, READONLY
 25 .stderr_dev   0000000b  00000000  00000000  000b2151  2**0
                  CONTENTS, READONLY
 26 .stdin_dev    0000000b  00000000  00000000  000b215c  2**0
                  CONTENTS, READONLY
 27 .stdout_dev   0000000b  00000000  00000000  000b2167  2**0
                  CONTENTS, READONLY
 28 .sopc_system_name 00000006  00000000  00000000  000b2172  2**0
                  CONTENTS, READONLY
 29 .sopcinfo     0005a7a1  00000000  00000000  000b2178  2**0
                  CONTENTS, READONLY
SYMBOL TABLE:
08000000 l    d  .entry	00000000 .entry
08000020 l    d  .exceptions	00000000 .exceptions
08000244 l    d  .text	00000000 .text
08036714 l    d  .rodata	00000000 .rodata
080371a8 l    d  .rwdata	00000000 .rwdata
0803aa88 l    d  .bss	00000000 .bss
0803abf8 l    d  .sdram	00000000 .sdram
10000000 l    d  .bufferram_out	00000000 .bufferram_out
00000000 l    d  .comment	00000000 .comment
00000000 l    d  .debug_aranges	00000000 .debug_aranges
00000000 l    d  .debug_info	00000000 .debug_info
00000000 l    d  .debug_abbrev	00000000 .debug_abbrev
00000000 l    d  .debug_line	00000000 .debug_line
00000000 l    d  .debug_frame	00000000 .debug_frame
00000000 l    d  .debug_str	00000000 .debug_str
00000000 l    d  .debug_loc	00000000 .debug_loc
00000000 l    d  .debug_alt_sim_info	00000000 .debug_alt_sim_info
00000000 l    d  .debug_ranges	00000000 .debug_ranges
00000000 l    df *ABS*	00000000 ../Hello_bsp//obj/HAL/src/crt0.o
0800028c l       .text	00000000 alt_after_alt_main
00000000 l    df *ABS*	00000000 alt_irq_handler.c
00000000 l    df *ABS*	00000000 alt_instruction_exception_entry.c
00000000 l    df *ABS*	00000000 app.c
08000290 l     F .text	000000a0 gppcu_put_instr
08000330 l     F .text	00000080 gppcu_mvi
080003b0 l     F .text	00000078 gppcu_fp_arith
08000428 l     F .text	00000070 gppcu_fp_0
08000498 l     F .text	0000007c gppcu_ldl
08000514 l     F .text	0000007c gppcu_stl
08000590 l     F .text	00000070 gppcu_ldci
00000000 l    df *ABS*	00000000 gppcu.c
08000e08 l     F .text	0000005c gppcu_push_instr
08000e64 l     F .text	00000080 gppcu_data_rd
08000ee4 l     F .text	00000088 gppcu_data_wr
08000f6c l     F .text	00000080 gppcu_constant_wr
080014d8 l     F .text	00000178 instr_useregd
08001650 l     F .text	00000178 instr_userega
080017c8 l     F .text	00000178 instr_useregb
00000000 l    df *ABS*	00000000 main.c
080024a0 l     F .text	000000a0 gppcu_put_instr
08002540 l     F .text	00000098 gppcu_arith_s
080025d8 l     F .text	00000080 gppcu_mvi
08002658 l     F .text	00000098 gppcu_arith_b
080026f0 l     F .text	00000078 gppcu_fp_arith
08002768 l     F .text	00000070 gppcu_fp_0
080027d8 l     F .text	0000007c gppcu_stl
08002854 l     F .text	00000070 gppcu_ldci
00000000 l    df *ABS*	00000000 mathc.c
00000000 l    df *ABS*	00000000 utils.c
00000000 l    df *ABS*	00000000 sf_ceil.c
08038c58 l     O .rwdata	00000004 huge
00000000 l    df *ABS*	00000000 sf_cos.c
08038c5c l     O .rwdata	00000004 one
00000000 l    df *ABS*	00000000 sf_floor.c
08038c60 l     O .rwdata	00000004 huge
00000000 l    df *ABS*	00000000 sf_fmax.c
00000000 l    df *ABS*	00000000 sf_fmin.c
00000000 l    df *ABS*	00000000 sf_fpclassify.c
00000000 l    df *ABS*	00000000 sf_round.c
00000000 l    df *ABS*	00000000 sf_sin.c
00000000 l    df *ABS*	00000000 sf_tan.c
00000000 l    df *ABS*	00000000 wf_acos.c
00000000 l    df *ABS*	00000000 wf_atan2.c
00000000 l    df *ABS*	00000000 wf_pow.c
00000000 l    df *ABS*	00000000 wf_sqrt.c
00000000 l    df *ABS*	00000000 ef_acos.c
08038c64 l     O .rwdata	00000004 one
08038c68 l     O .rwdata	00000004 pi
08038c6c l     O .rwdata	00000004 pio2_hi
08038c70 l     O .rwdata	00000004 pio2_lo
08038c74 l     O .rwdata	00000004 pS0
08038c78 l     O .rwdata	00000004 pS1
08038c7c l     O .rwdata	00000004 pS2
08038c80 l     O .rwdata	00000004 pS3
08038c84 l     O .rwdata	00000004 pS4
08038c88 l     O .rwdata	00000004 pS5
08038c8c l     O .rwdata	00000004 qS1
08038c90 l     O .rwdata	00000004 qS2
08038c94 l     O .rwdata	00000004 qS3
08038c98 l     O .rwdata	00000004 qS4
00000000 l    df *ABS*	00000000 ef_atan2.c
08038c9c l     O .rwdata	00000004 tiny
08038ca0 l     O .rwdata	00000004 zero
08038ca4 l     O .rwdata	00000004 pi_o_4
08038ca8 l     O .rwdata	00000004 pi_o_2
08038cac l     O .rwdata	00000004 pi
08038cb0 l     O .rwdata	00000004 pi_lo
00000000 l    df *ABS*	00000000 ef_pow.c
08038cb4 l     O .rwdata	00000008 bp
08038cbc l     O .rwdata	00000008 dp_h
08038cc4 l     O .rwdata	00000008 dp_l
08038ccc l     O .rwdata	00000004 zero
08038cd0 l     O .rwdata	00000004 one
08038cd4 l     O .rwdata	00000004 two
08038cd8 l     O .rwdata	00000004 two24
08038cdc l     O .rwdata	00000004 huge
08038ce0 l     O .rwdata	00000004 tiny
08038ce4 l     O .rwdata	00000004 L1
08038ce8 l     O .rwdata	00000004 L2
08038cec l     O .rwdata	00000004 L3
08038cf0 l     O .rwdata	00000004 L4
08038cf4 l     O .rwdata	00000004 L5
08038cf8 l     O .rwdata	00000004 L6
08038cfc l     O .rwdata	00000004 P1
08038d00 l     O .rwdata	00000004 P2
08038d04 l     O .rwdata	00000004 P3
08038d08 l     O .rwdata	00000004 P4
08038d0c l     O .rwdata	00000004 P5
08038d10 l     O .rwdata	00000004 lg2
08038d14 l     O .rwdata	00000004 lg2_h
08038d18 l     O .rwdata	00000004 lg2_l
08038d1c l     O .rwdata	00000004 ovt
08038d20 l     O .rwdata	00000004 cp
08038d24 l     O .rwdata	00000004 cp_h
08038d28 l     O .rwdata	00000004 cp_l
08038d2c l     O .rwdata	00000004 ivln2
08038d30 l     O .rwdata	00000004 ivln2_h
08038d34 l     O .rwdata	00000004 ivln2_l
00000000 l    df *ABS*	00000000 ef_rem_pio2.c
080369d4 l     O .rodata	00000318 two_over_pi
08036cec l     O .rodata	00000080 npio2_hw
08038d38 l     O .rwdata	00000004 zero
08038d3c l     O .rwdata	00000004 half
08038d40 l     O .rwdata	00000004 two8
08038d44 l     O .rwdata	00000004 invpio2
08038d48 l     O .rwdata	00000004 pio2_1
08038d4c l     O .rwdata	00000004 pio2_1t
08038d50 l     O .rwdata	00000004 pio2_2
08038d54 l     O .rwdata	00000004 pio2_2t
08038d58 l     O .rwdata	00000004 pio2_3
08038d5c l     O .rwdata	00000004 pio2_3t
00000000 l    df *ABS*	00000000 ef_sqrt.c
08038d60 l     O .rwdata	00000004 one
08038d64 l     O .rwdata	00000004 tiny
00000000 l    df *ABS*	00000000 kf_cos.c
08038d68 l     O .rwdata	00000004 one
08038d6c l     O .rwdata	00000004 C1
08038d70 l     O .rwdata	00000004 C2
08038d74 l     O .rwdata	00000004 C3
08038d78 l     O .rwdata	00000004 C4
08038d7c l     O .rwdata	00000004 C5
08038d80 l     O .rwdata	00000004 C6
00000000 l    df *ABS*	00000000 kf_rem_pio2.c
08036d6c l     O .rodata	0000000c init_jk
08036d78 l     O .rodata	0000002c PIo2
08038d84 l     O .rwdata	00000004 zero
08038d88 l     O .rwdata	00000004 one
08038d8c l     O .rwdata	00000004 two8
08038d90 l     O .rwdata	00000004 twon8
00000000 l    df *ABS*	00000000 kf_sin.c
08038d94 l     O .rwdata	00000004 half
08038d98 l     O .rwdata	00000004 S1
08038d9c l     O .rwdata	00000004 S2
08038da0 l     O .rwdata	00000004 S3
08038da4 l     O .rwdata	00000004 S4
08038da8 l     O .rwdata	00000004 S5
08038dac l     O .rwdata	00000004 S6
00000000 l    df *ABS*	00000000 kf_tan.c
08038db0 l     O .rwdata	00000004 one
08038db4 l     O .rwdata	00000004 pio4
08038db8 l     O .rwdata	00000004 pio4lo
08036da4 l     O .rodata	00000034 T
00000000 l    df *ABS*	00000000 s_lib_ver.c
00000000 l    df *ABS*	00000000 s_matherr.c
00000000 l    df *ABS*	00000000 s_nan.c
00000000 l    df *ABS*	00000000 s_rint.c
08036dd8 l     O .rodata	00000010 TWO52
00000000 l    df *ABS*	00000000 sf_atan.c
08036de8 l     O .rodata	00000010 atanhi
08036df8 l     O .rodata	00000010 atanlo
08036e08 l     O .rodata	0000002c aT
08038dc0 l     O .rwdata	00000004 one
08038dc4 l     O .rwdata	00000004 huge
00000000 l    df *ABS*	00000000 sf_fabs.c
00000000 l    df *ABS*	00000000 sf_finite.c
00000000 l    df *ABS*	00000000 sf_nan.c
00000000 l    df *ABS*	00000000 sf_scalbn.c
08038dc8 l     O .rwdata	00000004 two25
08038dcc l     O .rwdata	00000004 twom25
08038dd0 l     O .rwdata	00000004 huge
08038dd4 l     O .rwdata	00000004 tiny
00000000 l    df *ABS*	00000000 sf_copysign.c
00000000 l    df *ABS*	00000000 lib2-divmod.c
00000000 l    df *ABS*	00000000 adddf3.c
00000000 l    df *ABS*	00000000 divdf3.c
00000000 l    df *ABS*	00000000 eqdf2.c
00000000 l    df *ABS*	00000000 subdf3.c
00000000 l    df *ABS*	00000000 extendsfdf2.c
00000000 l    df *ABS*	00000000 truncdfsf2.c
00000000 l    df *ABS*	00000000 libgcc2.c
00000000 l    df *ABS*	00000000 libgcc2.c
00000000 l    df *ABS*	00000000 errno.c
00000000 l    df *ABS*	00000000 impure.c
080371a8 l     O .rwdata	00000424 impure_data
00000000 l    df *ABS*	00000000 malloc.c
00000000 l    df *ABS*	00000000 mallocr.c
08025dd0 l     F .text	000003b4 malloc_extend_top
00000000 l    df *ABS*	00000000 memcpy.c
00000000 l    df *ABS*	00000000 memset.c
00000000 l    df *ABS*	00000000 printf.c
00000000 l    df *ABS*	00000000 putchar.c
00000000 l    df *ABS*	00000000 puts.c
00000000 l    df *ABS*	00000000 rand.c
00000000 l    df *ABS*	00000000 sbrkr.c
00000000 l    df *ABS*	00000000 strlen.c
00000000 l    df *ABS*	00000000 vfprintf.c
08027554 l     F .text	000000f0 __sbprintf
08029764 l     F .text	0000020c cvt
08029970 l     F .text	00000140 exponent
08036f9a l     O .rodata	00000010 blanks.4403
08036faa l     O .rodata	00000010 zeroes.4404
00000000 l    df *ABS*	00000000 wsetup.c
00000000 l    df *ABS*	00000000 dtoa.c
08029c50 l     F .text	000003b4 quorem
00000000 l    df *ABS*	00000000 fflush.c
00000000 l    df *ABS*	00000000 findfp.c
0802bf5c l     F .text	000000f4 std
0803aa94 l     O .bss	00000004 __sfp_lock
0803aa98 l     O .bss	00000004 __sinit_lock
0802c458 l     F .text	00000024 __fp_lock
0802c47c l     F .text	00000024 __fp_unlock
00000000 l    df *ABS*	00000000 mallocr.c
00000000 l    df *ABS*	00000000 fvwrite.c
00000000 l    df *ABS*	00000000 fwalk.c
00000000 l    df *ABS*	00000000 int_errno.c
00000000 l    df *ABS*	00000000 locale.c
080379d4 l     O .rwdata	00000038 lconv
08037a0c l     O .rwdata	00000020 lc_ctype_charset
08037a2c l     O .rwdata	00000020 lc_message_charset
0803aaac l     O .bss	00000004 lc_ctype_cjk_lang
00000000 l    df *ABS*	00000000 makebuf.c
00000000 l    df *ABS*	00000000 memchr.c
00000000 l    df *ABS*	00000000 memmove.c
00000000 l    df *ABS*	00000000 mprec.c
080370fc l     O .rodata	0000000c p05.2768
00000000 l    df *ABS*	00000000 putc.c
00000000 l    df *ABS*	00000000 mallocr.c
00000000 l    df *ABS*	00000000 s_fpclassify.c
00000000 l    df *ABS*	00000000 stdio.c
00000000 l    df *ABS*	00000000 strcmp.c
00000000 l    df *ABS*	00000000 vfprintf.c
080309d8 l     F .text	000000f0 __sbprintf
08037152 l     O .rodata	00000010 blanks.4348
08037162 l     O .rodata	00000010 zeroes.4349
00000000 l    df *ABS*	00000000 wbuf.c
00000000 l    df *ABS*	00000000 writer.c
00000000 l    df *ABS*	00000000 closer.c
00000000 l    df *ABS*	00000000 mallocr.c
00000000 l    df *ABS*	00000000 fclose.c
00000000 l    df *ABS*	00000000 fputwc.c
00000000 l    df *ABS*	00000000 fstatr.c
00000000 l    df *ABS*	00000000 isattyr.c
00000000 l    df *ABS*	00000000 lseekr.c
00000000 l    df *ABS*	00000000 readr.c
00000000 l    df *ABS*	00000000 wcrtomb.c
00000000 l    df *ABS*	00000000 wctomb_r.c
00000000 l    df *ABS*	00000000 libgcc2.c
00000000 l    df *ABS*	00000000 libgcc2.c
00000000 l    df *ABS*	00000000 libgcc2.c
00000000 l    df *ABS*	00000000 gedf2.c
00000000 l    df *ABS*	00000000 ledf2.c
00000000 l    df *ABS*	00000000 muldf3.c
00000000 l    df *ABS*	00000000 fixdfsi.c
00000000 l    df *ABS*	00000000 floatsidf.c
00000000 l    df *ABS*	00000000 floatunsidf.c
00000000 l    df *ABS*	00000000 alt_close.c
0803402c l     F .text	0000003c alt_get_errno
00000000 l    df *ABS*	00000000 alt_dev.c
08034138 l     F .text	0000002c alt_dev_null_write
00000000 l    df *ABS*	00000000 alt_errno.c
00000000 l    df *ABS*	00000000 alt_fstat.c
08034164 l     F .text	0000003c alt_get_errno
00000000 l    df *ABS*	00000000 alt_isatty.c
08034250 l     F .text	0000003c alt_get_errno
00000000 l    df *ABS*	00000000 alt_load.c
08034330 l     F .text	00000068 alt_load_section
00000000 l    df *ABS*	00000000 alt_lseek.c
0803441c l     F .text	0000003c alt_get_errno
00000000 l    df *ABS*	00000000 alt_main.c
00000000 l    df *ABS*	00000000 alt_malloc_lock.c
00000000 l    df *ABS*	00000000 alt_read.c
080345e0 l     F .text	0000003c alt_get_errno
00000000 l    df *ABS*	00000000 alt_release_fd.c
00000000 l    df *ABS*	00000000 alt_sbrk.c
08038e08 l     O .rwdata	00000004 heap_end
00000000 l    df *ABS*	00000000 alt_write.c
0803482c l     F .text	0000003c alt_get_errno
00000000 l    df *ABS*	00000000 alt_sys_init.c
08034960 l     F .text	00000034 alt_dev_reg
08037bf4 l     O .rwdata	00001060 jtag_uart_0
00000000 l    df *ABS*	00000000 altera_avalon_jtag_uart_fd.c
00000000 l    df *ABS*	00000000 altera_avalon_jtag_uart_init.c
08034c54 l     F .text	0000020c altera_avalon_jtag_uart_irq
08034e60 l     F .text	000000a0 altera_avalon_jtag_uart_timeout
00000000 l    df *ABS*	00000000 altera_avalon_jtag_uart_ioctl.c
00000000 l    df *ABS*	00000000 altera_avalon_jtag_uart_read.c
00000000 l    df *ABS*	00000000 altera_avalon_jtag_uart_write.c
00000000 l    df *ABS*	00000000 altera_avalon_timer_sc.c
08035498 l     F .text	00000078 alt_avalon_timer_sc_irq
00000000 l    df *ABS*	00000000 alt_alarm_start.c
00000000 l    df *ABS*	00000000 alt_dcache_flush_all.c
00000000 l    df *ABS*	00000000 alt_dev_llist_insert.c
08035700 l     F .text	0000003c alt_get_errno
00000000 l    df *ABS*	00000000 alt_icache_flush_all.c
00000000 l    df *ABS*	00000000 alt_iic.c
00000000 l    df *ABS*	00000000 alt_iic_isr_register.c
00000000 l    df *ABS*	00000000 alt_io_redirect.c
08035ab4 l     F .text	000000c4 alt_open_fd
00000000 l    df *ABS*	00000000 alt_irq_vars.c
00000000 l    df *ABS*	00000000 alt_open.c
08035bf4 l     F .text	0000003c alt_get_errno
08035c30 l     F .text	000000c4 alt_file_locked
00000000 l    df *ABS*	00000000 alt_tick.c
00000000 l    df *ABS*	00000000 altera_nios2_gen2_irq.c
00000000 l    df *ABS*	00000000 alt_find_dev.c
00000000 l    df *ABS*	00000000 alt_find_file.c
00000000 l    df *ABS*	00000000 alt_get_fd.c
00000000 l    df *ABS*	00000000 alt_icache_flush.c
00000000 l    df *ABS*	00000000 exit.c
00000000 l    df *ABS*	00000000 memcmp.c
00000000 l    df *ABS*	00000000 __call_atexit.c
0803aacc l     O .bss	00000004 __atexit_lock
00000000 l    df *ABS*	00000000 alt_exit.c
0803aac8 g     O .bss	00000004 alt_instruction_exception_handler
0801a09c g     F .text	00000040 psvec3i_add
0800e1b8 g     F .text	00000088 mat3_rotation_z
080135fc g     F .text	00000054 svec2i_negative
08003674 g     F .text	0000004c vec2i_is_zero
0802715c g     F .text	00000048 putchar
080183d4 g     F .text	000000c8 smat3
08014d58 g     F .text	0000005c svec2_add_f
0802f334 g     F .text	000000b0 _mprec_log10
0801cd94 g     F .text	00000040 psmat2_scale
0800baa8 g     F .text	000000a0 quat_dot
0801ce54 g     F .text	00000078 psmat3
08016b60 g     F .text	00000070 svec4_add
08019de4 g     F .text	00000040 psvec2i_max
08019cf4 g     F .text	00000040 psvec2i_snap
08019af4 g     F .text	00000040 psvec2i_add
0802f4b4 g     F .text	00000134 __any_on
08032668 g     F .text	00000060 _isatty_r
0801d7dc g     F .text	00000048 psmat4_lerp
080370d4 g     O .rodata	00000028 __mprec_tinytens
08018014 g     F .text	00000068 smat2_cofactor
08014f34 g     F .text	00000060 svec2_multiply_mat2
0803452c g     F .text	0000006c alt_main
08015608 g     F .text	0000005c svec2_rotate
08019e24 g     F .text	00000040 psvec2i_min
080159e0 g     F .text	00000064 svec3_assign
080271a4 g     F .text	00000118 _puts_r
080115f4 g     F .text	00000224 mat4_multiply_f
08016ed4 g     F .text	0000006c svec4_divide_f
0803aaf8 g     O .bss	00000100 alt_irq
0801a5ec g     F .text	00000030 psvec4i_one
0801c8ec g     F .text	00000040 psquat_from_vec3
080326c8 g     F .text	00000070 _lseek_r
0801aa3c g     F .text	00000038 psvec2_is_equal
08007c00 g     F .text	00000084 vec3_add_f
0800d708 g     F .text	00000330 mat3_cofactor
080021b4 g     F .text	000001a0 gppcu_read
08001fb4 g     F .text	00000078 gppcu_run_autofeed_device
08015af8 g     F .text	00000050 svec3_one
08038e18 g       *ABS*	00000000 __flash_rwdata_start
08008660 g     F .text	000000cc vec3_min
0801db0c g     F .text	0000003c cubic_ease_in
080190ec g     F .text	00000064 smat4_transpose
0802509c g     F .text	00000088 .hidden __eqdf2
0800ae6c g     F .text	0000009c quat_is_zero
0801b05c g     F .text	00000038 psvec2_normalize
08005e24 g     F .text	0000013c vec4i_max
08015380 g     F .text	00000068 svec2_clamp
0800b730 g     F .text	00000090 quat_negative
0801c82c g     F .text	00000040 psquat_dot
0801ab84 g     F .text	00000038 psvec2_sign
0801b6dc g     F .text	00000040 psvec3_multiply
080170ec g     F .text	00000068 svec4_floor
0803abf8 g       *ABS*	00000000 __alt_heap_start
0801b81c g     F .text	00000040 psvec3_snap
08005b88 g     F .text	000000f4 vec4i_snap_i
0801396c g     F .text	00000064 svec3i_assign_vec3
0801ba34 g     F .text	00000048 psvec3_clamp
080148e4 g     F .text	00000068 svec4i_abs
080092fc g     F .text	000000d8 vec3_distance_squared
08015550 g     F .text	00000064 svec2_reflect
0801dc90 g     F .text	000000ac quartic_ease_in_out
08019e64 g     F .text	00000048 psvec2i_clamp
080270b0 g     F .text	00000068 printf
0801acbc g     F .text	00000040 psvec2_multiply
080327a8 g     F .text	000000d4 _wcrtomb_r
0801adfc g     F .text	00000040 psvec2_snap
08017de8 g     F .text	00000058 smat2_zero
08003e74 g     F .text	00000098 vec2i_abs
0801dd3c g     F .text	00000064 quintic_ease_out
0801abfc g     F .text	00000040 psvec2_add_f
08019024 g     F .text	00000064 smat4_assign
0800a42c g     F .text	0000013c vec4_snap
08007d1c g     F .text	00000084 vec3_subtract_f
08030668 g     F .text	000000a0 __sseek
0802c300 g     F .text	000000d8 __sinit
080157b4 g     F .text	0000003c svec2_angle
08031ddc g     F .text	00000168 __swbuf_r
08006cb0 g     F .text	00000058 vec2_clamp
08000600 g     F .text	000000e8 mat4_rotate_zyx
0801e20c g     F .text	000000b8 exponential_ease_in_out
08016cac g     F .text	0000006c svec4_subtract_f
0802d3dc g     F .text	00000084 _setlocale_r
080169e0 g     F .text	00000068 svec4_assign_vec4i
0802c050 g     F .text	000000a4 __sfmoreglue
080194dc g     F .text	0000006c smat4_scale
080089f4 g     F .text	000000b8 vec3_project
08003724 g     F .text	00000048 vec2i
080345bc g     F .text	00000024 __malloc_unlock
080083c0 g     F .text	0000009c vec3_floor
0801b97c g     F .text	00000038 psvec3_round
0801b69c g     F .text	00000040 psvec3_subtract_f
0801e56c g     F .text	00000074 back_ease_in
0801b9f4 g     F .text	00000040 psvec3_min
0800c8a0 g     F .text	00000060 mat2_determinant
0801ae7c g     F .text	00000038 psvec2_negative
08019398 g     F .text	0000006c smat4_translation
0801005c g     F .text	00000088 mat4_rotation_z
08003b5c g     F .text	00000064 vec2i_multiply_i
08017294 g     F .text	00000070 svec4_min
08006818 g     F .text	000000b4 vec2_snap
0801c7f4 g     F .text	00000038 psquat_normalize
080013b8 g     F .text	000000e4 gppcu_init_task
08017b50 g     F .text	00000068 squat_from_mat4
0802d968 g     F .text	00000208 memmove
0801cca4 g     F .text	00000040 psmat2_multiply
080155b4 g     F .text	00000054 svec2_tangent
0801a4c4 g     F .text	00000038 psvec4i_is_equal
08017458 g     F .text	0000003c squat_is_zero
080165a4 g     F .text	0000006c svec3_rotate
0802c2cc g     F .text	00000034 _cleanup
0801f3d8 g     F .text	0000073c powf
0800a90c g     F .text	000000c0 vec4_round
08007ebc g     F .text	00000138 vec3_multiply_mat3
0802db70 g     F .text	00000130 _Balloc
080192c8 g     F .text	0000006c smat4_rotation_axis
08003aec g     F .text	00000070 vec2i_multiply
0800f238 g     F .text	000001e0 mat4_negative
08018820 g     F .text	00000098 smat3_multiply
08007864 g     F .text	0000005c vec3
0801b1cc g     F .text	00000040 psvec2_rotate
0801d1ac g     F .text	00000038 psmat3_rotation_y
08019dac g     F .text	00000038 psvec2i_abs
0801646c g     F .text	00000068 svec3_project
08033540 g     F .text	000000dc .hidden __gtdf2
0801a5bc g     F .text	00000030 psvec4i_zero
08035fec g     F .text	00000024 altera_nios2_gen2_irq_init
08025d3c g     F .text	00000020 __errno
08014ad8 g     F .text	00000044 svec2_is_equal
0801e2c4 g     F .text	00000084 elastic_ease_out
0800afe4 g     F .text	0000006c quat
08013f4c g     F .text	00000064 svec3i_negative
08017bb8 g     F .text	00000074 squat_lerp
08004b44 g     F .text	00000108 vec3i_cross
0800f5fc g     F .text	0000094c mat4_cofactor
08000000 g     F .entry	0000001c __reset
0800b974 g     F .text	00000134 quat_normalize
0800c848 g     F .text	00000058 mat2_identity
080212c0 g     F .text	00000674 __ieee754_rem_pio2f
0800834c g     F .text	00000074 vec3_abs
08016d88 g     F .text	0000006c svec4_multiply_f
08006634 g     F .text	00000064 vec2_multiply_f
080043bc g     F .text	00000110 vec3i_sign
0801a814 g     F .text	00000040 psvec4i_divide_i
080131e8 g     F .text	00000054 svec2i_sign
08008c44 g     F .text	00000298 vec3_rotate
080065c4 g     F .text	00000070 vec2_multiply
080034c4 g     F .text	00000058 clampi
08000020 g       *ABS*	00000000 __flash_exceptions_start
0801b85c g     F .text	00000040 psvec3_snap_f
08009808 g     F .text	000000dc vec4_is_equal
08008edc g     F .text	000000e0 vec3_lerp
08032600 g     F .text	00000068 _fstat_r
080136a4 g     F .text	00000064 svec2i_max
080156cc g     F .text	00000070 svec2_bezier3
0801859c g     F .text	00000044 smat3_determinant
08014a2c g     F .text	00000078 svec4i_clamp
0800b390 g     F .text	000000a4 quat_multiply_f
0803aa9c g     O .bss	00000004 errno
08013ee4 g     F .text	00000068 svec3i_cross
080138a0 g     F .text	00000068 svec3i
0800eb18 g     F .text	000000e0 mat4_zero
08030584 g     F .text	00000030 __seofread
0801c8ac g     F .text	00000040 psquat_from_axis_angle
080029c4 g     F .text	00000080 mem_clr
0801a494 g     F .text	00000030 psvec4i_is_zero
0801d53c g     F .text	00000038 psmat4_rotation_y
0801cb8c g     F .text	00000038 psmat2_assign
08005c7c g     F .text	00000090 vec4i_negative
0803aab4 g     O .bss	00000004 alt_argv
08040c54 g       *ABS*	00000000 _gp
080197e8 g     F .text	00000074 smat4_perspective
08018228 g     F .text	00000068 smat2_scaling
0801cbfc g     F .text	00000038 psmat2_transpose
080106e0 g     F .text	00000168 mat4_translation
0800b7c0 g     F .text	00000088 quat_conjugate
0801667c g     F .text	00000078 svec3_bezier3
0801c09c g     F .text	00000040 psvec4_subtract_f
0801cdd4 g     F .text	00000038 psmat2_rotation_z
08013e14 g     F .text	00000068 svec3i_snap
08016f40 g     F .text	00000070 svec4_snap
0801cfd4 g     F .text	00000038 psmat3_transpose
0801fb14 g     F .text	00000160 sqrtf
0800e240 g     F .text	00000308 mat3_rotation_axis
08012b5c g     F .text	00000170 mat4_perspective
080008c0 g     F .text	00000370 app_upload_program
08000fec g     F .text	00000080 gppcu_device_command
080175b4 g     F .text	00000058 squat_zero
080078c0 g     F .text	00000060 vec3_assign
08037a74 g     O .rwdata	00000180 alt_fd_list
0801450c g     F .text	00000070 svec4i_subtract
08014014 g     F .text	00000068 svec3i_max
08019ee4 g     F .text	00000030 psvec3i_is_zero
0801bfa4 g     F .text	00000038 psvec4_sign
0801e198 g     F .text	00000074 exponential_ease_in
0800c5b0 g     F .text	000000ac quat_length
08006b80 g     F .text	00000098 vec2_max
08027118 g     F .text	00000044 _putchar_r
0801a90c g     F .text	00000038 psvec4i_abs
08006fe0 g     F .text	00000060 vec2_tangent
0800a78c g     F .text	000000c0 vec4_floor
08036010 g     F .text	00000090 alt_find_dev
08026d00 g     F .text	00000188 memcpy
0801cbc4 g     F .text	00000038 psmat2_negative
0800f0d4 g     F .text	00000164 mat4_assign
08015210 g     F .text	00000054 svec2_ceil
08018f38 g     F .text	00000054 smat4_zero
0800976c g     F .text	0000009c vec4_is_zero
080064f0 g     F .text	00000070 vec2_subtract
08012fec g     F .text	00000034 svec2i_is_zero
0801531c g     F .text	00000064 svec2_min
080098e4 g     F .text	0000006c vec4
0801aeec g     F .text	00000038 psvec2_floor
0802c288 g     F .text	00000044 _cleanup_r
08033ea8 g     F .text	000000dc .hidden __floatsidf
0801582c g     F .text	0000003c svec2_length_squared
08035b78 g     F .text	0000007c alt_io_redirect
0803361c g     F .text	000000f4 .hidden __ltdf2
0801d424 g     F .text	00000038 psmat4_assign
08009d68 g     F .text	000000a4 vec4_add_f
08018dc8 g     F .text	0000009c smat3_lerp
08010b50 g     F .text	0000019c mat4_scale
080272bc g     F .text	00000038 puts
080362dc g     F .text	0000009c alt_exception_cause_generated_bad_addr
08008110 g     F .text	000000f8 vec3_snap
08009ca8 g     F .text	000000c0 vec4_add
0801c25c g     F .text	00000040 psvec4_snap_f
080158b4 g     F .text	0000004c svec2_distance_squared
0801bb34 g     F .text	00000040 psvec3_project
080303e4 g     F .text	00000104 __fpclassifyd
0801cf2c g     F .text	00000038 psmat3_determinant
08013d44 g     F .text	00000068 svec3i_divide
0802f218 g     F .text	0000011c __ratio
080134e0 g     F .text	0000005c svec2i_divide_i
08007c84 g     F .text	00000098 vec3_subtract
08030ac8 g     F .text	00000050 __vfiprintf_internal
0801323c g     F .text	00000064 svec2i_add
0801e348 g     F .text	0000007c elastic_ease_in
08016088 g     F .text	00000064 svec3_abs
08035058 g     F .text	0000021c altera_avalon_jtag_uart_read
08025d5c g     F .text	00000038 malloc
0802704c g     F .text	00000064 _printf_r
08023e4c g     F .text	00000064 .hidden __udivsi3
0801ef14 g     F .text	0000011c roundf
0803428c g     F .text	000000a4 isatty
08018790 g     F .text	00000090 smat3_cofactor
08004704 g     F .text	00000098 vec3i_multiply
08002354 g     F .text	000000ac gppcu_write_const
0801bf74 g     F .text	00000030 psvec4_one
0801a4fc g     F .text	00000050 psvec4i
08017084 g     F .text	00000068 svec4_abs
08036fe4 g     O .rodata	000000c8 __mprec_tens
08019b34 g     F .text	00000040 psvec2i_add_i
08013e7c g     F .text	00000068 svec3i_snap_i
0801c11c g     F .text	00000040 psvec4_multiply_f
0800cb3c g     F .text	000000a4 mat2_adjugate
0801b094 g     F .text	00000040 psvec2_dot
0801c05c g     F .text	00000040 psvec4_subtract
08017154 g     F .text	00000068 svec4_ceil
0802d460 g     F .text	00000024 __locale_charset
08016218 g     F .text	00000068 svec3_max
0800de38 g     F .text	00000144 mat3_multiply_f
08010444 g     F .text	0000029c mat4_rotation_quat
08014bc4 g     F .text	00000054 svec2_assign_vec2i
0801a984 g     F .text	00000040 psvec4i_min
08017d70 g     F .text	00000078 smat2
0803624c g     F .text	00000090 alt_icache_flush
08017494 g     F .text	00000040 squat_is_equal
0801e3c4 g     F .text	0000011c elastic_ease_in_out
0803aa88 g     O .bss	00000004 __malloc_top_pad
0801a794 g     F .text	00000040 psvec4i_multiply_i
08016884 g     F .text	0000003c svec4_is_zero
0801d86c g     F .text	00000060 psmat4_ortho
08019a5c g     F .text	00000030 psvec2i_zero
0801e898 g     F .text	0000009c bounce_ease_in_out
0801ee38 g     F .text	000000dc __fpclassifyf
0801d504 g     F .text	00000038 psmat4_rotation_x
0801849c g     F .text	00000080 smat3_zero
08018670 g     F .text	00000090 smat3_negative
08013c0c g     F .text	00000068 svec3i_subtract_i
08018ca0 g     F .text	00000098 smat3_rotation_axis
08038de8 g     O .rwdata	00000004 __mb_cur_max
08019150 g     F .text	00000064 smat4_cofactor
08017ca0 g     F .text	00000044 squat_length
08004564 g     F .text	00000084 vec3i_add_i
0802d4e8 g     F .text	00000028 _localeconv_r
08016c3c g     F .text	00000070 svec4_subtract
0801bd64 g     F .text	00000038 psvec3_length_squared
08016024 g     F .text	00000064 svec3_negative
08012ccc g     F .text	0000018c mat4_perspective_fov
0802e1b8 g     F .text	00000058 __i2b
0802cc4c g     F .text	000005dc __sfvwrite_r
0801be1c g     F .text	00000030 psvec4_is_zero
0801c61c g     F .text	00000030 psquat_null
08005890 g     F .text	000000f4 vec4i_divide
08015c14 g     F .text	00000068 svec3_add_f
0801be4c g     F .text	00000038 psvec4_is_equal
08007e38 g     F .text	00000084 vec3_multiply_f
0801c29c g     F .text	00000038 psvec4_negative
0801cecc g     F .text	00000030 psmat3_zero
08023a40 g     F .text	00000054 finitef
08027400 g     F .text	00000060 _sbrk_r
080123e4 g     F .text	00000420 mat4_lerp
080067b4 g     F .text	00000064 vec2_divide_f
0801487c g     F .text	00000068 svec4i_negative
0801a1dc g     F .text	00000040 psvec3i_multiply_i
0800df7c g     F .text	00000030 mat3_inverse
0801cd24 g     F .text	00000038 psmat2_inverse
080239e8 g     F .text	00000058 fabsf
08019cb4 g     F .text	00000040 psvec2i_divide_i
08016af8 g     F .text	00000068 svec4_sign
08032738 g     F .text	00000070 _read_r
0800b114 g     F .text	00000054 quat_null
08008594 g     F .text	000000cc vec3_max
08018700 g     F .text	00000090 smat3_transpose
08016280 g     F .text	00000068 svec3_min
08016978 g     F .text	00000068 svec4_assign
08006968 g     F .text	00000058 vec2_negative
08038e00 g     O .rwdata	00000004 alt_max_fd
0801961c g     F .text	00000064 smat4_inverse
080321b8 g     F .text	0000012c _fclose_r
080188b8 g     F .text	00000094 smat3_multiply_f
0801b424 g     F .text	00000030 psvec3_is_zero
0800411c g     F .text	0000005c vec3i_is_zero
08015938 g     F .text	00000040 svec3_is_equal
080084f8 g     F .text	0000009c vec3_round
08015b48 g     F .text	00000064 svec3_sign
0802bf08 g     F .text	00000054 fflush
0803aa8c g     O .bss	00000004 __malloc_max_sbrked_mem
080035cc g     F .text	00000040 to_degrees
0800a84c g     F .text	000000c0 vec4_ceil
08014430 g     F .text	00000070 svec4i_add
08012e58 g     F .text	00000194 mat4_perspective_infinite
08003cd4 g     F .text	000000b4 vec2i_snap
08017fac g     F .text	00000068 smat2_transpose
0801c68c g     F .text	00000040 psquat_multiply_f
08025a20 g     F .text	00000110 .hidden __extendsfdf2
08007040 g     F .text	000000b0 vec2_rotate
08017e98 g     F .text	00000044 smat2_determinant
08003d88 g     F .text	00000094 vec2i_snap_i
0800f418 g     F .text	000001e4 mat4_transpose
08023f08 g     F .text	000008ac .hidden __adddf3
0801bd9c g     F .text	00000040 psvec3_distance
08006a18 g     F .text	00000078 vec2_floor
0802edd4 g     F .text	00000204 __b2d
080052a0 g     F .text	00000060 vec4i_one
08005250 g     F .text	00000050 vec4i_zero
0800609c g     F .text	00000058 vec4i_clamp
08033008 g     F .text	00000538 .hidden __umoddi3
0801c784 g     F .text	00000038 psquat_conjugate
0801bed4 g     F .text	00000038 psvec4_assign
08034458 g     F .text	000000d4 lseek
08038dbc g     O .rwdata	00000004 __fdlib_version
0801b8d4 g     F .text	00000038 psvec3_abs
08019fcc g     F .text	00000038 psvec3i_assign_vec3
0801d7a4 g     F .text	00000038 psmat4_inverse
0801dff8 g     F .text	00000058 circular_ease_in
08038ddc g     O .rwdata	00000004 _global_impure_ptr
0800c974 g     F .text	00000090 mat2_negative
08019764 g     F .text	00000084 smat4_ortho
0802f7f4 g     F .text	00000bf0 _realloc_r
08022c2c g     F .text	0000016c __kernel_sinf
08013908 g     F .text	00000064 svec3i_assign
0803abf8 g       *ABS*	00000000 __bss_end
080359c4 g     F .text	000000f0 alt_iic_isr_register
08019088 g     F .text	00000064 smat4_negative
08035ee4 g     F .text	00000108 alt_tick
08014aa4 g     F .text	00000034 svec2_is_zero
08008aac g     F .text	000000c8 vec3_slide
0801b71c g     F .text	00000040 psvec3_multiply_f
08032a90 g     F .text	00000578 .hidden __udivdi3
08015bac g     F .text	00000068 svec3_add
0801acfc g     F .text	00000040 psvec2_multiply_f
08032510 g     F .text	00000088 _fputwc_r
080370ac g     O .rodata	00000028 __mprec_bigtens
0802deb0 g     F .text	0000018c __s2b
08004328 g     F .text	00000044 vec3i_zero
0800e130 g     F .text	00000088 mat3_rotation_y
08015e1c g     F .text	00000068 svec3_multiply_mat3
08033f84 g     F .text	000000a8 .hidden __floatunsidf
0801b0d4 g     F .text	00000040 psvec2_project
080055c8 g     F .text	000000c0 vec4i_subtract
0802e950 g     F .text	00000114 __mcmp
0801c47c g     F .text	00000038 psvec4_normalize
0801caa4 g     F .text	00000050 psmat2
08009e0c g     F .text	000000c0 vec4_subtract
0801aa0c g     F .text	00000030 psvec2_is_zero
08006d08 g     F .text	000000a8 vec2_normalize
08019d34 g     F .text	00000040 psvec2i_snap_i
0802c4a0 g     F .text	00000040 __fp_lock_all
0801b114 g     F .text	00000040 psvec2_slide
080176d4 g     F .text	0000006c squat_multiply_f
080146c4 g     F .text	00000070 svec4i_divide
08015e84 g     F .text	00000068 svec3_divide
0801a35c g     F .text	00000038 psvec3i_negative
080140e4 g     F .text	00000070 svec3i_clamp
08035978 g     F .text	0000004c alt_ic_irq_enabled
0801fc74 g     F .text	000004d4 __ieee754_acosf
08019a8c g     F .text	00000030 psvec2i_one
0801aa74 g     F .text	00000040 psvec2
08009508 g     F .text	00000264 vec3_orthonormalization
0801d3bc g     F .text	00000030 psmat4_identity
0801e120 g     F .text	00000078 exponential_ease_out
080032a8 g     F .text	0000021c main__1
0801ad7c g     F .text	00000040 psvec2_divide
080152b8 g     F .text	00000064 svec2_max
08035e48 g     F .text	0000009c alt_alarm_stop
0801cf64 g     F .text	00000038 psmat3_assign
0800cf44 g     F .text	00000088 mat2_rotation_z
0801ea9c g     F .text	00000140 cosf
080069c0 g     F .text	00000058 vec2_abs
0803aabc g     O .bss	00000004 alt_irq_active
0800a030 g     F .text	000000a4 vec4_multiply_f
08007734 g     F .text	00000080 vec3_is_zero
08010cec g     F .text	00000908 mat4_multiply
0801a8d4 g     F .text	00000038 psvec4i_negative
08005464 g     F .text	000000c0 vec4i_add
0801a29c g     F .text	00000040 psvec3i_snap
080142b0 g     F .text	00000068 svec4i_assign_vec4
0801deac g     F .text	00000048 sine_ease_out
0801d574 g     F .text	00000038 psmat4_rotation_z
08015c7c g     F .text	00000068 svec3_subtract
080000fc g     F .exceptions	000000d4 alt_irq_handler
080171bc g     F .text	00000068 svec4_round
08037a4c g     O .rwdata	00000028 alt_dev_null
080199ec g     F .text	00000038 psvec2i_assign
08014190 g     F .text	00000040 svec4i_is_equal
080167f4 g     F .text	00000048 svec3_distance
0801bf44 g     F .text	00000030 psvec4_zero
0800ffd4 g     F .text	00000088 mat4_rotation_y
0801dbe8 g     F .text	00000064 quartic_ease_out
0801b254 g     F .text	00000050 psvec2_bezier3
08002400 g     F .text	00000058 gppcu_data_wr_slow
0801dda0 g     F .text	0000004c quintic_ease_in
08023240 g     F .text	00000438 rint
0801d974 g     F .text	00000048 psmat4_perspective_infinite
0800a9cc g     F .text	00000100 vec4_max
080189dc g     F .text	00000094 smat3_scaling
08014e18 g     F .text	0000005c svec2_subtract_f
0801df50 g     F .text	0000005c sine_ease_in_out
0800ced4 g     F .text	00000070 mat2_scale
080060f4 g     F .text	00000064 vec2_is_zero
080356b8 g     F .text	00000048 alt_dcache_flush_all
0802e03c g     F .text	00000090 __hi0bits
08019944 g     F .text	00000030 psvec2i_is_zero
08033e28 g     F .text	00000080 .hidden __fixdfsi
0801d6a4 g     F .text	00000040 psmat4_scaling
08017edc g     F .text	00000068 smat2_assign
0801abbc g     F .text	00000040 psvec2_add
08013708 g     F .text	00000064 svec2i_min
0801457c g     F .text	0000006c svec4i_subtract_i
08021bc8 g     F .text	000001c4 __kernel_cosf
0801a9c4 g     F .text	00000048 psvec4i_clamp
08009950 g     F .text	00000074 vec4_assign
08038e18 g       *ABS*	00000000 __ram_rwdata_end
080164d4 g     F .text	00000068 svec3_slide
0801573c g     F .text	00000078 svec2_bezier4
080150b8 g     F .text	0000005c svec2_snap_f
0800bd74 g     F .text	000000d8 quat_from_vec3
0800888c g     F .text	000000e8 vec3_normalize
08038df8 g     O .rwdata	00000008 alt_dev_list
0801a754 g     F .text	00000040 psvec4i_multiply
08034868 g     F .text	000000f8 write
080179bc g     F .text	00000048 squat_dot
0802f5e8 g     F .text	00000104 _putc_r
0801caf4 g     F .text	00000030 psmat2_zero
08013020 g     F .text	00000044 svec2i_is_equal
0801760c g     F .text	00000058 squat_null
08014b1c g     F .text	00000054 svec2
080371a8 g       *ABS*	00000000 __ram_rodata_end
0801a654 g     F .text	00000040 psvec4i_add
08017224 g     F .text	00000070 svec4_max
0800351c g     F .text	00000070 nearly_equal
080341a0 g     F .text	000000b0 fstat
08016d18 g     F .text	00000070 svec4_multiply
0801cc34 g     F .text	00000038 psmat2_cofactor
0801b334 g     F .text	00000038 psvec2_length
0801b2fc g     F .text	00000038 psvec2_angle
08015db4 g     F .text	00000068 svec3_multiply_f
0803361c g     F .text	000000f4 .hidden __ledf2
080163c0 g     F .text	00000064 svec3_normalize
08016df4 g     F .text	00000070 svec4_multiply_mat4
0801c5ec g     F .text	00000030 psquat_zero
08001ba0 g     F .text	00000414 gppcu_program_autofeed_device_parallel
0801b75c g     F .text	00000040 psvec3_multiply_mat3
08005300 g     F .text	00000164 vec4i_sign
0801543c g     F .text	0000004c svec2_dot
0802e5e0 g     F .text	00000178 __pow5mult
0800bcac g     F .text	000000c8 quat_from_axis_angle
08030b18 g     F .text	000012c4 ___vfiprintf_internal_r
0803aaa0 g     O .bss	00000004 __nlocale_changed
08023eb0 g     F .text	00000058 .hidden __umodsi3
0801ae3c g     F .text	00000040 psvec2_snap_f
080040bc g     F .text	00000060 vec2i_tangent
0801b9b4 g     F .text	00000040 psvec3_max
08014ff8 g     F .text	0000005c svec2_divide_f
080132a0 g     F .text	0000005c svec2i_add_i
0800c900 g     F .text	00000074 mat2_assign
080061dc g     F .text	00000048 vec2
0803abf8 g       *ABS*	00000000 end
0800106c g     F .text	000000f0 gppcu_stat
08013ba4 g     F .text	00000068 svec3i_subtract
0801dc4c g     F .text	00000044 quartic_ease_in
0801e5e0 g     F .text	0000011c back_ease_in_out
08019bf4 g     F .text	00000040 psvec2i_multiply
08005984 g     F .text	000000c8 vec4i_divide_i
0801a894 g     F .text	00000040 psvec4i_snap_i
08004254 g     F .text	00000060 vec3i_assign
0800ca98 g     F .text	000000a4 mat2_cofactor
08019c34 g     F .text	00000040 psvec2i_multiply_i
08014e74 g     F .text	00000064 svec2_multiply
080050e0 g     F .text	0000006c vec4i
08004f80 g     F .text	00000058 vec3i_clamp
0800b68c g     F .text	000000a4 quat_divide_f
08034b94 g     F .text	000000c0 altera_avalon_jtag_uart_init
0801be84 g     F .text	00000050 psvec4
080001d0 g     F .exceptions	00000074 alt_instruction_exception_entry
0801ac7c g     F .text	00000040 psvec2_subtract_f
08014c18 g     F .text	00000044 svec2_zero
0801c5b4 g     F .text	00000038 psquat_assign
0801c30c g     F .text	00000038 psvec4_floor
10000000 g       *ABS*	00000000 __alt_stack_pointer
080157f0 g     F .text	0000003c svec2_length
08007598 g     F .text	0000019c vec2_orthonormalization
08035510 g     F .text	0000007c alt_avalon_timer_sc_init
08025cd8 g     F .text	00000064 .hidden __clzsi2
08013420 g     F .text	0000005c svec2i_multiply_i
08008784 g     F .text	00000108 vec3_cross
08035274 g     F .text	00000224 altera_avalon_jtag_uart_write
0800d0ec g     F .text	000000bc mat3
08019a24 g     F .text	00000038 psvec2i_assign_vec2
08012804 g     F .text	000001cc mat4_look_at
0801b3a4 g     F .text	00000040 psvec2_distance
08002458 g     F .text	00000048 gppcu_data_rd_slow
08018b08 g     F .text	00000088 smat3_rotation_x
0802c3d8 g     F .text	00000020 __sfp_lock_acquire
0802d7ac g     F .text	000001bc memchr
080062c8 g     F .text	00000038 vec2_zero
08004fd8 g     F .text	0000006c vec4i_is_zero
08027694 g     F .text	000020d0 ___vfprintf_internal_r
08015f54 g     F .text	00000068 svec3_snap
0801a394 g     F .text	00000038 psvec3i_abs
08009214 g     F .text	000000e8 vec3_distance
0801d4cc g     F .text	00000038 psmat4_cofactor
08015a44 g     F .text	00000064 svec3_assign_vec3i
0802c520 g     F .text	00000560 _free_r
0801d91c g     F .text	00000058 psmat4_perspective_fov
08003e1c g     F .text	00000058 vec2i_negative
080028c4 g     F .text	00000044 wait
0802d484 g     F .text	00000020 __locale_mb_cur_max
08010848 g     F .text	000001a0 mat4_translate
0800572c g     F .text	000000c0 vec4i_multiply
080364f4 g     F .text	000001ec __call_exitprocs
080079d8 g     F .text	00000050 vec3_one
08014ed8 g     F .text	0000005c svec2_multiply_f
08004e8c g     F .text	000000f4 vec3i_min
0801e050 g     F .text	000000d0 circular_ease_in_out
08015d4c g     F .text	00000068 svec3_multiply
0803aaa4 g     O .bss	00000004 __mlocale_changed
0801376c g     F .text	00000068 svec2i_clamp
08008fbc g     F .text	0000007c vec3_bezier3
08016610 g     F .text	0000006c svec3_lerp
08038de4 g     O .rwdata	00000004 __malloc_sbrk_base
0801bf0c g     F .text	00000038 psvec4_assign_vec4i
08000244 g     F .text	0000004c _start
0800ca04 g     F .text	00000094 mat2_transpose
0803aac0 g     O .bss	00000004 _alt_tick_rate
0800c7f8 g     F .text	00000050 mat2_zero
08019abc g     F .text	00000038 psvec2i_sign
0800b0c4 g     F .text	00000050 quat_zero
0800739c g     F .text	0000005c vec2_length_squared
08017a70 g     F .text	00000070 squat_from_axis_angle
08009198 g     F .text	0000007c vec3_length_squared
08027338 g     F .text	000000c8 rand
0801807c g     F .text	00000068 smat2_adjugate
0801a6d4 g     F .text	00000040 psvec4i_subtract
08003848 g     F .text	00000040 vec2i_one
0800808c g     F .text	00000084 vec3_divide_f
0802e758 g     F .text	000001f8 __lshift
0801af5c g     F .text	00000038 psvec2_round
0801347c g     F .text	00000064 svec2i_divide
0801c4b4 g     F .text	00000048 psvec4_lerp
0803aac4 g     O .bss	00000004 _alt_nticks
0803461c g     F .text	000000fc read
080070f0 g     F .text	000000a0 vec2_lerp
0801c64c g     F .text	00000040 psquat_multiply
080349cc g     F .text	00000064 alt_sys_init
080144a0 g     F .text	0000006c svec4i_add_i
080135a0 g     F .text	0000005c svec2i_snap_i
0801b5dc g     F .text	00000040 psvec3_add
0801b3e4 g     F .text	00000040 psvec2_distance_squared
08019334 g     F .text	00000064 smat4_rotation_quat
08005a4c g     F .text	0000013c vec4i_snap
08001940 g     F .text	0000013c DEPRECATED__gppcu_program_autofeed_device
080036c0 g     F .text	00000064 vec2i_is_equal
080133bc g     F .text	00000064 svec2i_multiply
10000000 g       *ABS*	00000000 __alt_mem_bufferram_out
08018d38 g     F .text	00000090 smat3_rotation_quat
0801c21c g     F .text	00000040 psvec4_snap
08013dac g     F .text	00000068 svec3i_divide_i
08019974 g     F .text	00000038 psvec2i_is_equal
0801e4e0 g     F .text	0000008c back_ease_out
080137d4 g     F .text	00000054 svec2i_tangent
0801b50c g     F .text	00000038 psvec3_assign_vec3i
0802e210 g     F .text	000003d0 __multiply
0801a064 g     F .text	00000038 psvec3i_sign
08034f00 g     F .text	00000068 altera_avalon_jtag_uart_close
0801cf9c g     F .text	00000038 psmat3_negative
0801b014 g     F .text	00000048 psvec2_clamp
080371a8 g       *ABS*	00000000 __ram_rwdata_start
08036714 g       *ABS*	00000000 __ram_rodata_start
0800d2cc g     F .text	00000128 mat3_determinant
0803aad0 g     O .bss	00000028 __malloc_current_mallinfo
0801494c g     F .text	00000070 svec4i_max
0800a0d4 g     F .text	000001f4 vec4_multiply_mat4
0802efd8 g     F .text	00000240 __d2b
0801d21c g     F .text	00000040 psmat3_rotation_axis
0801ab54 g     F .text	00000030 psvec2_one
0801def4 g     F .text	0000005c sine_ease_in
0801b65c g     F .text	00000040 psvec3_subtract
0801754c g     F .text	00000068 squat_assign
08003944 g     F .text	00000070 vec2i_add
0801a0dc g     F .text	00000040 psvec3i_add_i
080082d8 g     F .text	00000074 vec3_negative
08002058 g     F .text	0000015c gppcu_write
08019680 g     F .text	00000070 smat4_lerp
0801b2a4 g     F .text	00000058 psvec2_bezier4
08034a30 g     F .text	00000060 altera_avalon_jtag_uart_read_fd
0801dfac g     F .text	0000004c circular_ease_out
080361a8 g     F .text	000000a4 alt_get_fd
0801c74c g     F .text	00000038 psquat_negative
0801ddec g     F .text	000000c0 quintic_ease_in_out
0801a44c g     F .text	00000048 psvec3i_clamp
08006340 g     F .text	000000dc vec2_sign
0801cce4 g     F .text	00000040 psmat2_multiply_f
0801d764 g     F .text	00000040 psmat4_multiply_f
0800c78c g     F .text	0000006c mat2
0800a388 g     F .text	000000a4 vec4_divide_f
0801c0dc g     F .text	00000040 psvec4_multiply
0801afd4 g     F .text	00000040 psvec2_min
08003a18 g     F .text	00000070 vec2i_subtract
0801cb54 g     F .text	00000038 psmat2_determinant
08031ff4 g     F .text	00000060 _close_r
080129d0 g     F .text	0000018c mat4_ortho
0801a694 g     F .text	00000040 psvec4i_add_i
0800ce88 g     F .text	0000004c mat2_scaling
0801851c g     F .text	00000080 smat3_identity
0801d0c4 g     F .text	00000038 psmat3_inverse
0801c37c g     F .text	00000038 psvec4_round
080051c0 g     F .text	00000090 vec4i_assign_vec4
0801e6fc g     F .text	0000014c bounce_ease_out
0801cc6c g     F .text	00000038 psmat2_adjugate
080363c0 g     F .text	00000134 memcmp
08034af0 g     F .text	00000050 altera_avalon_jtag_uart_close_fd
0800be4c g     F .text	0000046c quat_from_mat4
080006e8 g     F .text	000001d8 app_calc_object_constant
0803abf8 g       *ABS*	00000000 __alt_stack_base
08013a70 g     F .text	00000064 svec3i_sign
08034b40 g     F .text	00000054 altera_avalon_jtag_uart_ioctl_fd
0801a15c g     F .text	00000040 psvec3i_subtract_i
080199ac g     F .text	00000040 psvec2i
08000c30 g     F .text	00000068 app_upload_vertices
08016e64 g     F .text	00000070 svec4_divide
08004820 g     F .text	000000c4 vec3i_divide
08003a88 g     F .text	00000064 vec2i_subtract_i
0801d664 g     F .text	00000040 psmat4_translate
08029ab0 g     F .text	000001a0 __swsetup_r
08014b70 g     F .text	00000054 svec2_assign
0801653c g     F .text	00000068 svec3_reflect
0801d5ac g     F .text	00000040 psmat4_rotation_axis
0801d38c g     F .text	00000030 psmat4_zero
080247b4 g     F .text	000008e8 .hidden __divdf3
0802c0f4 g     F .text	00000194 __sfp
08019eac g     F .text	00000038 psvec2i_tangent
08006270 g     F .text	00000058 vec2_assign_vec2i
0801d8cc g     F .text	00000050 psmat4_perspective
0801bfdc g     F .text	00000040 psvec4_add
0802f3e4 g     F .text	000000d0 __copybits
0800115c g     F .text	00000090 gppcu_is_done
0801af24 g     F .text	00000038 psvec2_ceil
080375cc g     O .rwdata	00000408 __malloc_av_
0802c438 g     F .text	00000020 __sinit_lock_release
0800bb48 g     F .text	00000164 quat_power
0801926c g     F .text	0000005c smat4_rotation_z
0801c6cc g     F .text	00000040 psquat_divide
0801d174 g     F .text	00000038 psmat3_rotation_x
0801b194 g     F .text	00000038 psvec2_tangent
0801a854 g     F .text	00000040 psvec4i_snap
08033710 g     F .text	00000718 .hidden __muldf3
08000cc0 g     F .text	00000148 rgb16_drawline
080045e8 g     F .text	00000098 vec3i_subtract
0800b434 g     F .text	00000258 quat_divide
0802055c g     F .text	00000d64 __ieee754_powf
080304e8 g     F .text	0000009c __sread
080181c0 g     F .text	00000068 smat2_inverse
08013cdc g     F .text	00000068 svec3i_multiply_i
08006698 g     F .text	000000ac vec2_multiply_mat2
0801b36c g     F .text	00000038 psvec2_length_squared
0801c7bc g     F .text	00000038 psquat_inverse
0800ece8 g     F .text	000003ec mat4_determinant
080077b4 g     F .text	000000b0 vec3_is_equal
080360a0 g     F .text	00000108 alt_find_file
08013160 g     F .text	00000044 svec2i_zero
08016358 g     F .text	00000068 svec3_cross
0800872c g     F .text	00000058 vec3_clamp
08014f94 g     F .text	00000064 svec2_divide
0803573c g     F .text	000000a4 alt_dev_llist_insert
08034598 g     F .text	00000024 __malloc_lock
0803477c g     F .text	000000b0 sbrk
08023ac8 g     F .text	00000214 scalbnf
0801407c g     F .text	00000068 svec3i_min
0801d494 g     F .text	00000038 psmat4_transpose
0802be80 g     F .text	00000088 _fflush_r
08014658 g     F .text	0000006c svec4i_multiply_i
08017664 g     F .text	00000070 squat_multiply
0800149c g     F .text	0000003c gppcu_destroy
0801683c g     F .text	00000048 svec3_distance_squared
08032054 g     F .text	00000164 _calloc_r
08019548 g     F .text	0000006c smat4_multiply
0800c65c g     F .text	0000009c quat_length_squared
0800e00c g     F .text	00000098 mat3_scale
0801a31c g     F .text	00000040 psvec3i_cross
0800ebf8 g     F .text	000000f0 mat4_identity
080160ec g     F .text	00000064 svec3_floor
0800a2c8 g     F .text	000000c0 vec4_divide
080037b8 g     F .text	00000058 vec2i_assign_vec2
0801c19c g     F .text	00000040 psvec4_divide
0801c52c g     F .text	00000038 psquat_is_equal
080145e8 g     F .text	00000070 svec4i_multiply
0803aa88 g       *ABS*	00000000 __bss_start
0801edbc g     F .text	0000007c fminf
08004c4c g     F .text	00000074 vec3i_negative
0801d134 g     F .text	00000040 psmat3_scale
0801a21c g     F .text	00000040 psvec3i_divide
0801894c g     F .text	00000090 smat3_inverse
08026e88 g     F .text	000001c4 memset
08021934 g     F .text	00000294 __ieee754_sqrtf
0801ed40 g     F .text	0000007c fmaxf
08002b48 g     F .text	00000254 main
0803aab8 g     O .bss	00000004 alt_envp
080074a0 g     F .text	00000098 vec2_distance_squared
0801c15c g     F .text	00000040 psvec4_multiply_mat4
080153e8 g     F .text	00000054 svec2_normalize
0803aa90 g     O .bss	00000004 __malloc_max_total_mem
0801c70c g     F .text	00000040 psquat_divide_f
08034a90 g     F .text	00000060 altera_avalon_jtag_uart_write_fd
08015168 g     F .text	00000054 svec2_abs
08017e40 g     F .text	00000058 smat2_identity
08009f70 g     F .text	000000c0 vec4_multiply
0801a7d4 g     F .text	00000040 psvec4i_divide
08031f44 g     F .text	00000040 __swbuf
080272f4 g     F .text	00000044 srand
0801b544 g     F .text	00000030 psvec3_zero
080166f4 g     F .text	00000080 svec3_bezier4
0801bbb4 g     F .text	00000040 psvec3_reflect
08018fe0 g     F .text	00000044 smat4_determinant
0800436c g     F .text	00000050 vec3i_one
08030708 g     F .text	00000054 __sclose
08023194 g     F .text	00000068 matherr
10000000 g       *ABS*	00000000 __alt_heap_limit
08015eec g     F .text	00000068 svec3_divide_f
0801aab4 g     F .text	00000038 psvec2_assign
080322e4 g     F .text	00000038 fclose
0800e548 g     F .text	00000244 mat3_rotation_quat
08025b30 g     F .text	000001a8 .hidden __truncdfsf2
08038c54 g     O .rwdata	00000001 REGPIVOT
0801d044 g     F .text	00000040 psmat3_multiply
08007ff4 g     F .text	00000098 vec3_divide
08014248 g     F .text	00000068 svec4i_assign
080132fc g     F .text	00000064 svec2i_subtract
080093d4 g     F .text	00000134 vec3_linear_independent
0802a004 g     F .text	00001b78 _dtoa_r
0801b7dc g     F .text	00000040 psvec3_divide_f
08026184 g     F .text	00000b7c _malloc_r
080329b8 g     F .text	00000078 __ascii_wctomb
08013650 g     F .text	00000054 svec2i_abs
08038e04 g     O .rwdata	00000004 alt_errno
0801bb74 g     F .text	00000040 psvec3_slide
0800d5e8 g     F .text	00000120 mat3_transpose
080072e0 g     F .text	00000050 vec2_angle
0802d228 g     F .text	000000d8 _fwalk
08003bc0 g     F .text	00000094 vec2i_divide
08006c18 g     F .text	00000098 vec2_min
08015900 g     F .text	00000038 svec3_is_zero
08009aa4 g     F .text	00000060 vec4_one
0801c92c g     F .text	00000038 psquat_from_mat4
08019d74 g     F .text	00000038 psvec2i_negative
0801d5ec g     F .text	00000038 psmat4_rotation_quat
08022d98 g     F .text	000003fc __kernel_tanf
0802f6ec g     F .text	00000108 putc
08023d54 g     F .text	00000084 .hidden __divsi3
08013b3c g     F .text	00000068 svec3i_add_i
0801b48c g     F .text	00000048 psvec3
08019f94 g     F .text	00000038 psvec3i_assign
080168c0 g     F .text	00000040 svec4_is_equal
0802ca80 g     F .text	000001cc _malloc_trim_r
08019f4c g     F .text	00000048 psvec3i
080167b4 g     F .text	00000040 svec3_length_squared
0801b89c g     F .text	00000038 psvec3_negative
0801d45c g     F .text	00000038 psmat4_negative
0800360c g     F .text	00000068 clampf
08007538 g     F .text	00000060 vec2_linear_independent
0803075c g     F .text	00000140 strcmp
08008208 g     F .text	000000d0 vec3_snap_f
0801b454 g     F .text	00000038 psvec3_is_equal
08017740 g     F .text	00000070 squat_divide
080185e0 g     F .text	00000090 smat3_assign
08036714 g       *ABS*	00000000 __flash_rodata_start
0801b90c g     F .text	00000038 psvec3_floor
0801a584 g     F .text	00000038 psvec4i_assign_vec4
0801c3f4 g     F .text	00000040 psvec4_min
0800cddc g     F .text	000000ac mat2_inverse
08016bd0 g     F .text	0000006c svec4_add_f
080073f8 g     F .text	000000a8 vec2_distance
0800abcc g     F .text	00000058 vec4_clamp
080057ec g     F .text	000000a4 vec4i_multiply_i
08015264 g     F .text	00000054 svec2_round
0801a714 g     F .text	00000040 psvec4i_subtract_i
08002d9c g     F .text	00000244 main__d
0800dfac g     F .text	00000060 mat3_scaling
08005688 g     F .text	000000a4 vec4i_subtract_i
0802509c g     F .text	00000088 .hidden __nedf2
0801aeb4 g     F .text	00000038 psvec2_abs
0800cfcc g     F .text	00000120 mat2_lerp
0801f254 g     F .text	00000144 acosf
08034994 g     F .text	00000038 alt_irq_init
0801a61c g     F .text	00000038 psvec4i_sign
080180e4 g     F .text	00000070 smat2_multiply
0801d294 g     F .text	00000048 psmat3_lerp
08034718 g     F .text	00000064 alt_release_fd
08019c74 g     F .text	00000040 psvec2i_divide
08023cdc g     F .text	00000078 copysignf
08004680 g     F .text	00000084 vec3i_subtract_i
0801a004 g     F .text	00000030 psvec3i_zero
08006e10 g     F .text	00000098 vec2_project
08018c18 g     F .text	00000088 smat3_rotation_z
0800cbe0 g     F .text	00000158 mat2_multiply
08036e34 g     O .rodata	00000100 .hidden __clz_tab
0803aaa8 g     O .bss	00000004 _PathLocale
08014734 g     F .text	0000006c svec4i_divide_i
08013860 g     F .text	00000040 svec3i_is_equal
08015664 g     F .text	00000068 svec2_lerp
0801b154 g     F .text	00000040 psvec2_reflect
0801d084 g     F .text	00000040 psmat3_multiply_f
08006744 g     F .text	00000070 vec2_divide
08031f84 g     F .text	00000070 _write_r
0801da30 g     F .text	00000088 quadratic_ease_in_out
08002908 g     F .text	000000bc display_stat_is_done
08014154 g     F .text	0000003c svec4i_is_zero
08004178 g     F .text	00000080 vec3i_is_equal
0802d510 g     F .text	00000040 setlocale
080039b4 g     F .text	00000064 vec2i_add_i
0801c964 g     F .text	00000048 psquat_lerp
08006224 g     F .text	0000004c vec2_assign
0801ca64 g     F .text	00000040 psquat_angle
0801ce0c g     F .text	00000048 psmat2_lerp
0801a034 g     F .text	00000030 psvec3i_one
0801aaec g     F .text	00000038 psvec2_assign_vec2i
08007a28 g     F .text	00000140 vec3_sign
08013828 g     F .text	00000038 svec3i_is_zero
0801db48 g     F .text	000000a0 cubic_ease_in_out
08011818 g     F .text	00000bcc mat4_inverse
08023a94 g     F .text	00000034 nanf
08038dd8 g     O .rwdata	00000004 _impure_ptr
0800376c g     F .text	0000004c vec2i_assign
0803aab0 g     O .bss	00000004 alt_argc
0801353c g     F .text	00000064 svec2i_snap
0802bb7c g     F .text	00000304 __sflush_r
08007920 g     F .text	00000074 vec3_assign_vec3i
0801f398 g     F .text	00000040 atan2f
0802d4c8 g     F .text	00000020 __locale_cjk_lang
0800720c g     F .text	000000d4 vec2_bezier4
080151bc g     F .text	00000054 svec2_floor
0801b20c g     F .text	00000048 psvec2_lerp
080141d0 g     F .text	00000078 svec4i
08018a70 g     F .text	00000098 smat3_scale
080178ec g     F .text	00000068 squat_inverse
08019f14 g     F .text	00000038 psvec3i_is_equal
08003fb8 g     F .text	000000ac vec2i_min
08003f0c g     F .text	000000ac vec2i_max
08003c54 g     F .text	00000080 vec2i_divide_i
08000020 g       .exceptions	00000000 alt_irq_entry
0801a40c g     F .text	00000040 psvec3i_min
0801a3cc g     F .text	00000040 psvec3i_max
08015114 g     F .text	00000054 svec2_negative
0801c9ac g     F .text	00000048 psquat_slerp
08004a80 g     F .text	000000c4 vec3i_snap_i
0802ed08 g     F .text	000000cc __ulp
08014c5c g     F .text	00000044 svec2_one
08007b68 g     F .text	00000098 vec3_add
0802c4e0 g     F .text	00000040 __fp_unlock_all
080161b4 g     F .text	00000064 svec3_round
0801310c g     F .text	00000054 svec2i_assign_vec2
08013fb0 g     F .text	00000064 svec3i_abs
08017a04 g     F .text	0000006c squat_power
08013c74 g     F .text	00000068 svec3i_multiply
0800c6f8 g     F .text	00000094 quat_angle
080149bc g     F .text	00000070 svec4i_min
080131a4 g     F .text	00000044 svec2i_one
08038df0 g     O .rwdata	00000008 alt_fs_list
08016150 g     F .text	00000064 svec3_ceil
0800a568 g     F .text	00000104 vec4_snap_f
0801d25c g     F .text	00000038 psmat3_rotation_quat
0800d4cc g     F .text	0000011c mat3_negative
0800cd38 g     F .text	000000a4 mat2_multiply_f
0801f030 g     F .text	00000144 sinf
0800514c g     F .text	00000074 vec4i_assign
08009b04 g     F .text	000001a4 vec4_sign
0800e78c g     F .text	00000260 mat3_lerp
0801a19c g     F .text	00000040 psvec3i_multiply
080099c4 g     F .text	00000090 vec4_assign_vec4i
0800a66c g     F .text	00000090 vec4_negative
080044cc g     F .text	00000098 vec3i_add
080231fc g     F .text	00000044 nan
08006db0 g     F .text	00000060 vec2_dot
08018360 g     F .text	00000074 smat2_lerp
0801c564 g     F .text	00000050 psquat
08016a48 g     F .text	00000058 svec4_zero
08014db4 g     F .text	00000064 svec2_subtract
08000020 g       *ABS*	00000000 __ram_exceptions_start
0802d550 g     F .text	00000030 localeconv
0801d2dc g     F .text	000000b0 psmat4
080143c8 g     F .text	00000068 svec4i_sign
08017884 g     F .text	00000068 squat_conjugate
0800e9ec g     F .text	0000012c mat4
08017304 g     F .text	00000078 svec4_clamp
0801f174 g     F .text	000000e0 tanf
0801e934 g     F .text	00000168 ceilf
0801d624 g     F .text	00000040 psmat4_translation
08006ea8 g     F .text	00000098 vec2_slide
0801cefc g     F .text	00000030 psmat3_identity
0801ca2c g     F .text	00000038 psquat_length_squared
0801c344 g     F .text	00000038 psvec4_ceil
0800af08 g     F .text	000000dc quat_is_equal
08005d0c g     F .text	00000118 vec4i_abs
08035814 g     F .text	00000050 alt_ic_isr_register
08016900 g     F .text	00000078 svec4
0801d824 g     F .text	00000048 psmat4_look_at
08015978 g     F .text	00000068 svec3
08013064 g     F .text	00000054 svec2i
08005f60 g     F .text	0000013c vec4i_min
08007190 g     F .text	0000007c vec2_bezier3
08007330 g     F .text	0000006c vec2_length
08004d98 g     F .text	000000f4 vec3i_max
08038e18 g       *ABS*	00000000 _edata
0801c434 g     F .text	00000048 psvec4_clamp
0801baf4 g     F .text	00000040 psvec3_dot
0801bcd4 g     F .text	00000058 psvec3_bezier4
08004064 g     F .text	00000058 vec2i_clamp
0801a54c g     F .text	00000038 psvec4i_assign
08006560 g     F .text	00000064 vec2_subtract_f
0803abf8 g       *ABS*	00000000 _end
0801d1e4 g     F .text	00000038 psmat3_rotation_z
0801a25c g     F .text	00000040 psvec3i_divide_i
08013ad4 g     F .text	00000068 svec3i_add
080041f8 g     F .text	0000005c vec3i
08009038 g     F .text	000000d4 vec3_bezier4
0803231c g     F .text	000001f4 __fputwc
08000244 g       *ABS*	00000000 __ram_exceptions_end
08034f68 g     F .text	000000f0 altera_avalon_jtag_uart_ioctl
08019470 g     F .text	0000006c smat4_scaling
0800ff48 g     F .text	0000008c mat4_rotation_x
080191b4 g     F .text	0000005c smat4_rotation_x
0801e848 g     F .text	00000050 bounce_ease_in
0801b61c g     F .text	00000040 psvec3_add_f
080147a0 g     F .text	00000070 svec4i_snap
0801dab8 g     F .text	00000054 cubic_ease_out
0801babc g     F .text	00000038 psvec3_normalize
0801a944 g     F .text	00000040 psvec4i_max
080011ec g     F .text	000000d4 DEPRECATED__gppcu_init
0801ba7c g     F .text	00000040 psvec3_cross
080358ec g     F .text	0000008c alt_ic_irq_disable
08015054 g     F .text	00000064 svec2_snap
0801bbf4 g     F .text	00000048 psvec3_rotate
0800479c g     F .text	00000084 vec3i_multiply_i
08018b90 g     F .text	00000088 smat3_rotation_y
080305b4 g     F .text	000000b4 __swrite
08013a20 g     F .text	00000050 svec3i_one
0800da38 g     F .text	00000400 mat3_multiply
08038de0 g     O .rwdata	00000004 __malloc_trim_threshold
0802d4a4 g     F .text	00000024 __locale_msgcharset
0801c86c g     F .text	00000040 psquat_power
08036378 g     F .text	00000048 exit
0801cd5c g     F .text	00000038 psmat2_scaling
0802d300 g     F .text	000000dc _fwalk_reent
0802ea64 g     F .text	000002a4 __mdiff
08002fe0 g     F .text	000002c8 main__2
0800648c g     F .text	00000064 vec2_add_f
080130b8 g     F .text	00000054 svec2i_assign
08023dd8 g     F .text	00000074 .hidden __modsi3
0801ac3c g     F .text	00000040 psvec2_subtract
0800aacc g     F .text	00000100 vec4_min
08006f40 g     F .text	000000a0 vec2_reflect
0801c1dc g     F .text	00000040 psvec4_divide_f
08009a54 g     F .text	00000050 vec4_zero
0800641c g     F .text	00000070 vec2_add
10000000 g       *ABS*	00000000 __alt_data_end
08000020 g     F .exceptions	00000000 alt_exception
0802c3f8 g     F .text	00000020 __sfp_lock_release
08008974 g     F .text	00000080 vec3_dot
08023678 g     F .text	00000370 atanf
08000000 g       *ABS*	00000000 __alt_mem_sdram
0801adbc g     F .text	00000040 psvec2_divide_f
080196f0 g     F .text	00000074 smat4_look_at
08017ae0 g     F .text	00000070 squat_from_vec3
080174d4 g     F .text	00000078 squat
08015488 g     F .text	00000064 svec2_project
08017954 g     F .text	00000068 squat_normalize
08013360 g     F .text	0000005c svec2i_subtract_i
08003810 g     F .text	00000038 vec2i_zero
0800c3d8 g     F .text	000001d8 quat_slerp
08015aa8 g     F .text	00000050 svec3_zero
080154ec g     F .text	00000064 svec2_slide
0800845c g     F .text	0000009c vec3_ceil
0800358c g     F .text	00000040 to_radians
0800b848 g     F .text	0000012c quat_inverse
0801bddc g     F .text	00000040 psvec3_distance_squared
0801bd2c g     F .text	00000038 psvec3_length
08015ce4 g     F .text	00000068 svec3_subtract_f
0801d0fc g     F .text	00000038 psmat3_scaling
08017d28 g     F .text	00000048 squat_angle
08005524 g     F .text	000000a4 vec4i_add_i
0801737c g     F .text	00000068 svec4_normalize
08015868 g     F .text	0000004c svec2_distance
080366e0 g     F .text	00000034 _exit
08006300 g     F .text	00000040 vec2_one
08021d8c g     F .text	00000ea0 __kernel_rem_pio2f
0803558c g     F .text	0000012c alt_alarm_start
0801b5a4 g     F .text	00000038 psvec3_sign
0801af94 g     F .text	00000040 psvec2_max
08004988 g     F .text	000000f8 vec3i_snap
0800d234 g     F .text	00000098 mat3_identity
08032a30 g     F .text	00000060 .hidden __muldi3
0802d580 g     F .text	0000022c __smakebuf_r
08016424 g     F .text	00000048 svec3_dot
0800b050 g     F .text	00000074 quat_assign
08027460 g     F .text	000000f4 strlen
0800ac24 g     F .text	00000128 vec4_normalize
0801d724 g     F .text	00000040 psmat4_multiply
0801b79c g     F .text	00000040 psvec3_divide
08035cf4 g     F .text	00000154 open
08018e64 g     F .text	000000d4 smat4
0800910c g     F .text	0000008c vec3_length
080198d8 g     F .text	0000006c smat4_perspective_infinite
08017f44 g     F .text	00000068 smat2_negative
08033540 g     F .text	000000dc .hidden __gedf2
08001a7c g     F .text	00000124 instr_to_string
0801c4fc g     F .text	00000030 psquat_is_zero
08006b08 g     F .text	00000078 vec2_round
0801a11c g     F .text	00000040 psvec3i_subtract
08038dec g     O .rwdata	00000004 __wctomb
080048e4 g     F .text	000000a4 vec3i_divide_i
080068cc g     F .text	0000009c vec2_snap_f
080177b0 g     F .text	0000006c squat_divide_f
0803089c g     F .text	0000013c __sprint_r
080357e0 g     F .text	00000034 alt_icache_flush_all
0801ebdc g     F .text	00000164 floorf
08006a90 g     F .text	00000078 vec2_ceil
0801c01c g     F .text	00000040 psvec4_add_f
08007da0 g     F .text	00000098 vec3_multiply
08038e0c g     O .rwdata	00000004 alt_priority_mask
080139d0 g     F .text	00000050 svec3i_zero
0801b944 g     F .text	00000038 psvec3_ceil
0801d9bc g     F .text	00000040 quadratic_ease_out
0800c2b8 g     F .text	00000120 quat_lerp
080012c0 g     F .text	000000f8 gppcu_init
08014cf4 g     F .text	00000064 svec2_add
08035864 g     F .text	00000088 alt_ic_irq_enable
08027644 g     F .text	00000050 __vfprintf_internal
0801c2d4 g     F .text	00000038 psvec4_abs
08016774 g     F .text	00000040 svec3_length
08032954 g     F .text	00000064 _wctomb_r
08018300 g     F .text	00000060 smat2_rotation_z
0801701c g     F .text	00000068 svec4_negative
08006158 g     F .text	00000084 vec2_is_equal
08019bb4 g     F .text	00000040 psvec2i_subtract_i
0801d00c g     F .text	00000038 psmat3_cofactor
08025124 g     F .text	000008fc .hidden __subdf3
0801bc3c g     F .text	00000048 psvec3_lerp
08017c2c g     F .text	00000074 squat_slerp
0801d6e4 g     F .text	00000040 psmat4_scale
0801bc84 g     F .text	00000050 psvec3_bezier3
08004cc0 g     F .text	000000d8 vec3i_abs
0801b574 g     F .text	00000030 psvec3_one
080173e4 g     F .text	00000074 svec4_lerp
0802e0cc g     F .text	000000ec __lo0bits
0801985c g     F .text	0000007c smat4_perspective_fov
0800e0a4 g     F .text	0000008c mat3_rotation_x
08009ecc g     F .text	000000a4 vec4_subtract_f
08018154 g     F .text	0000006c smat2_multiply_f
0800b168 g     F .text	00000228 quat_multiply
0800202c g     F .text	0000002c gppcu_clear_instr
08038e10 g     O .rwdata	00000008 alt_alarm_list
0800a6fc g     F .text	00000090 vec4_abs
08005044 g     F .text	0000009c vec4i_is_equal
08000c98 g     F .text	00000028 app_upload_object_constant
0800d1a8 g     F .text	0000008c mat3_zero
0800ad4c g     F .text	00000120 vec4_lerp
0801d9fc g     F .text	00000034 quadratic_ease_in
08014810 g     F .text	0000006c svec4i_snap_i
0803287c g     F .text	000000d8 wcrtomb
08019210 g     F .text	0000005c smat4_rotation_y
08034068 g     F .text	000000d0 close
08003888 g     F .text	000000bc vec2i_sign
08018290 g     F .text	00000070 smat2_scale
080195b4 g     F .text	00000068 smat4_multiply_f
08002a44 g     F .text	00000104 monitor
0801d3ec g     F .text	00000038 psmat4_determinant
080109e8 g     F .text	00000168 mat4_scaling
0801ab24 g     F .text	00000030 psvec2_zero
08019b74 g     F .text	00000040 psvec2i_subtract
08034398 g     F .text	00000084 alt_load
08016aa0 g     F .text	00000058 svec4_one
0801b4d4 g     F .text	00000038 psvec3_assign
08008b74 g     F .text	000000d0 vec3_reflect
080042b4 g     F .text	00000074 vec3i_assign_vec3
08018f8c g     F .text	00000054 smat4_identity
08014318 g     F .text	00000058 svec4i_zero
08016fb0 g     F .text	0000006c svec4_snap_f
080162e8 g     F .text	00000070 svec3_clamp
0801a2dc g     F .text	00000040 psvec3i_snap_i
08014ca0 g     F .text	00000054 svec2_sign
08014370 g     F .text	00000058 svec4i_one
08015fbc g     F .text	00000068 svec3_snap_f
08032598 g     F .text	00000068 fputwc
0801cb24 g     F .text	00000030 psmat2_identity
0801c3b4 g     F .text	00000040 psvec4_max
08025d94 g     F .text	0000003c free
080100e4 g     F .text	00000360 mat4_rotation_axis
0802c418 g     F .text	00000020 __sinit_lock_acquire
0801ad3c g     F .text	00000040 psvec2_multiply_mat2
08007994 g     F .text	00000044 vec3_zero
0802dd1c g     F .text	00000194 __multadd
0801c9f4 g     F .text	00000038 psquat_length
08019404 g     F .text	0000006c smat4_translate
0802dca0 g     F .text	0000007c _Bfree
0800d3f4 g     F .text	000000d8 mat3_assign
08020148 g     F .text	00000414 __ieee754_atan2f
08017ce4 g     F .text	00000044 squat_length_squared
0801781c g     F .text	00000068 squat_negative



Disassembly of section .entry:

08000000 <__reset>:
 8000000:	00840014 	movui	r2,4096
 8000004:	1001483a 	initi	r2
 8000008:	10bff804 	addi	r2,r2,-32
 800000c:	00bffd16 	blt	zero,r2,8000004 <__alt_data_end+0xf8000004>
 8000010:	00420034 	movhi	at,2048
 8000014:	08409114 	ori	at,at,580
 8000018:	0800683a 	jmp	at
 800001c:	00000000 	call	0 <__reset-0x8000000>

Disassembly of section .exceptions:

08000020 <alt_exception>:
 8000020:	deffed04 	addi	sp,sp,-76
 8000024:	dfc00015 	stw	ra,0(sp)
 8000028:	d8400215 	stw	at,8(sp)
 800002c:	d8800315 	stw	r2,12(sp)
 8000030:	d8c00415 	stw	r3,16(sp)
 8000034:	d9000515 	stw	r4,20(sp)
 8000038:	d9400615 	stw	r5,24(sp)
 800003c:	d9800715 	stw	r6,28(sp)
 8000040:	d9c00815 	stw	r7,32(sp)
 8000044:	000b307a 	rdctl	r5,estatus
 8000048:	da000915 	stw	r8,36(sp)
 800004c:	da400a15 	stw	r9,40(sp)
 8000050:	da800b15 	stw	r10,44(sp)
 8000054:	dac00c15 	stw	r11,48(sp)
 8000058:	db000d15 	stw	r12,52(sp)
 800005c:	db400e15 	stw	r13,56(sp)
 8000060:	db800f15 	stw	r14,60(sp)
 8000064:	dbc01015 	stw	r15,64(sp)
 8000068:	d9401115 	stw	r5,68(sp)
 800006c:	ebffff04 	addi	r15,ea,-4
 8000070:	dbc01215 	stw	r15,72(sp)
 8000074:	0009313a 	rdctl	r4,ipending
 8000078:	2880004c 	andi	r2,r5,1
 800007c:	10000326 	beq	r2,zero,800008c <alt_exception+0x6c>
 8000080:	20000226 	beq	r4,zero,800008c <alt_exception+0x6c>
 8000084:	80000fc0 	call	80000fc <alt_irq_handler>
 8000088:	00000706 	br	80000a8 <alt_exception+0x88>
 800008c:	df401215 	stw	ea,72(sp)
 8000090:	e8bfff17 	ldw	r2,-4(ea)
 8000094:	e93fff04 	addi	r4,ea,-4
 8000098:	80001d00 	call	80001d0 <alt_instruction_exception_entry>
 800009c:	1000021e 	bne	r2,zero,80000a8 <alt_exception+0x88>
 80000a0:	ebffff04 	addi	r15,ea,-4
 80000a4:	dbc01215 	stw	r15,72(sp)
 80000a8:	d9401117 	ldw	r5,68(sp)
 80000ac:	df401217 	ldw	ea,72(sp)
 80000b0:	dfc00017 	ldw	ra,0(sp)
 80000b4:	2801707a 	wrctl	estatus,r5
 80000b8:	d8400217 	ldw	at,8(sp)
 80000bc:	d8800317 	ldw	r2,12(sp)
 80000c0:	d8c00417 	ldw	r3,16(sp)
 80000c4:	d9000517 	ldw	r4,20(sp)
 80000c8:	d9400617 	ldw	r5,24(sp)
 80000cc:	d9800717 	ldw	r6,28(sp)
 80000d0:	d9c00817 	ldw	r7,32(sp)
 80000d4:	da000917 	ldw	r8,36(sp)
 80000d8:	da400a17 	ldw	r9,40(sp)
 80000dc:	da800b17 	ldw	r10,44(sp)
 80000e0:	dac00c17 	ldw	r11,48(sp)
 80000e4:	db000d17 	ldw	r12,52(sp)
 80000e8:	db400e17 	ldw	r13,56(sp)
 80000ec:	db800f17 	ldw	r14,60(sp)
 80000f0:	dbc01017 	ldw	r15,64(sp)
 80000f4:	dec01304 	addi	sp,sp,76
 80000f8:	ef80083a 	eret

080000fc <alt_irq_handler>:
 80000fc:	defff904 	addi	sp,sp,-28
 8000100:	dfc00615 	stw	ra,24(sp)
 8000104:	df000515 	stw	fp,20(sp)
 8000108:	df000504 	addi	fp,sp,20
 800010c:	0001883a 	nop
 8000110:	0005313a 	rdctl	r2,ipending
 8000114:	e0bffe15 	stw	r2,-8(fp)
 8000118:	e0bffe17 	ldw	r2,-8(fp)
 800011c:	e0bffb15 	stw	r2,-20(fp)
 8000120:	e03ffd15 	stw	zero,-12(fp)
 8000124:	00800044 	movi	r2,1
 8000128:	e0bffc15 	stw	r2,-16(fp)
 800012c:	e0fffb17 	ldw	r3,-20(fp)
 8000130:	e0bffc17 	ldw	r2,-16(fp)
 8000134:	1884703a 	and	r2,r3,r2
 8000138:	10001426 	beq	r2,zero,800018c <alt_irq_handler+0x90>
 800013c:	00820134 	movhi	r2,2052
 8000140:	10aabe04 	addi	r2,r2,-21768
 8000144:	e0fffd17 	ldw	r3,-12(fp)
 8000148:	180690fa 	slli	r3,r3,3
 800014c:	10c5883a 	add	r2,r2,r3
 8000150:	10c00017 	ldw	r3,0(r2)
 8000154:	00820134 	movhi	r2,2052
 8000158:	10aabe04 	addi	r2,r2,-21768
 800015c:	e13ffd17 	ldw	r4,-12(fp)
 8000160:	200890fa 	slli	r4,r4,3
 8000164:	1105883a 	add	r2,r2,r4
 8000168:	10800104 	addi	r2,r2,4
 800016c:	10800017 	ldw	r2,0(r2)
 8000170:	1009883a 	mov	r4,r2
 8000174:	183ee83a 	callr	r3
 8000178:	0001883a 	nop
 800017c:	0005313a 	rdctl	r2,ipending
 8000180:	e0bfff15 	stw	r2,-4(fp)
 8000184:	e0bfff17 	ldw	r2,-4(fp)
 8000188:	00000706 	br	80001a8 <alt_irq_handler+0xac>
 800018c:	e0bffc17 	ldw	r2,-16(fp)
 8000190:	1085883a 	add	r2,r2,r2
 8000194:	e0bffc15 	stw	r2,-16(fp)
 8000198:	e0bffd17 	ldw	r2,-12(fp)
 800019c:	10800044 	addi	r2,r2,1
 80001a0:	e0bffd15 	stw	r2,-12(fp)
 80001a4:	003fe106 	br	800012c <__alt_data_end+0xf800012c>
 80001a8:	e0bffb15 	stw	r2,-20(fp)
 80001ac:	e0bffb17 	ldw	r2,-20(fp)
 80001b0:	103fdb1e 	bne	r2,zero,8000120 <__alt_data_end+0xf8000120>
 80001b4:	0001883a 	nop
 80001b8:	0001883a 	nop
 80001bc:	e037883a 	mov	sp,fp
 80001c0:	dfc00117 	ldw	ra,4(sp)
 80001c4:	df000017 	ldw	fp,0(sp)
 80001c8:	dec00204 	addi	sp,sp,8
 80001cc:	f800283a 	ret

080001d0 <alt_instruction_exception_entry>:
 80001d0:	defffb04 	addi	sp,sp,-20
 80001d4:	dfc00415 	stw	ra,16(sp)
 80001d8:	df000315 	stw	fp,12(sp)
 80001dc:	df000304 	addi	fp,sp,12
 80001e0:	e13fff15 	stw	r4,-4(fp)
 80001e4:	000531fa 	rdctl	r2,exception
 80001e8:	e0bffd15 	stw	r2,-12(fp)
 80001ec:	e0bffd17 	ldw	r2,-12(fp)
 80001f0:	10801f0c 	andi	r2,r2,124
 80001f4:	1004d0ba 	srli	r2,r2,2
 80001f8:	e0bffd15 	stw	r2,-12(fp)
 80001fc:	0005333a 	rdctl	r2,badaddr
 8000200:	e0bffe15 	stw	r2,-8(fp)
 8000204:	d0a79d17 	ldw	r2,-24972(gp)
 8000208:	10000726 	beq	r2,zero,8000228 <alt_instruction_exception_entry+0x58>
 800020c:	d0a79d17 	ldw	r2,-24972(gp)
 8000210:	e0fffd17 	ldw	r3,-12(fp)
 8000214:	e1bffe17 	ldw	r6,-8(fp)
 8000218:	e17fff17 	ldw	r5,-4(fp)
 800021c:	1809883a 	mov	r4,r3
 8000220:	103ee83a 	callr	r2
 8000224:	00000206 	br	8000230 <alt_instruction_exception_entry+0x60>
 8000228:	003da03a 	break	0
 800022c:	0005883a 	mov	r2,zero
 8000230:	e037883a 	mov	sp,fp
 8000234:	dfc00117 	ldw	ra,4(sp)
 8000238:	df000017 	ldw	fp,0(sp)
 800023c:	dec00204 	addi	sp,sp,8
 8000240:	f800283a 	ret

Disassembly of section .text:

08000244 <_start>:
 8000244:	00820014 	movui	r2,2048
 8000248:	10000033 	initd	0(r2)
 800024c:	10bff804 	addi	r2,r2,-32
 8000250:	00bffd16 	blt	zero,r2,8000248 <__alt_data_end+0xf8000248>
 8000254:	06c40034 	movhi	sp,4096
 8000258:	dec00014 	ori	sp,sp,0
 800025c:	06820134 	movhi	gp,2052
 8000260:	d6831514 	ori	gp,gp,3156
 8000264:	008200f4 	movhi	r2,2051
 8000268:	10aaa214 	ori	r2,r2,43656
 800026c:	00c200f4 	movhi	r3,2051
 8000270:	18eafe14 	ori	r3,r3,44024
 8000274:	10c00326 	beq	r2,r3,8000284 <_start+0x40>
 8000278:	10000015 	stw	zero,0(r2)
 800027c:	10800104 	addi	r2,r2,4
 8000280:	10fffd36 	bltu	r2,r3,8000278 <__alt_data_end+0xf8000278>
 8000284:	80343980 	call	8034398 <alt_load>
 8000288:	803452c0 	call	803452c <alt_main>

0800028c <alt_after_alt_main>:
 800028c:	003fff06 	br	800028c <__alt_data_end+0xf800028c>

08000290 <gppcu_put_instr>:
 8000290:	defffc04 	addi	sp,sp,-16
 8000294:	dfc00315 	stw	ra,12(sp)
 8000298:	df000215 	stw	fp,8(sp)
 800029c:	df000204 	addi	fp,sp,8
 80002a0:	e13ffe15 	stw	r4,-8(fp)
 80002a4:	e17fff15 	stw	r5,-4(fp)
 80002a8:	e0bffe17 	ldw	r2,-8(fp)
 80002ac:	10c00017 	ldw	r3,0(r2)
 80002b0:	e0bffe17 	ldw	r2,-8(fp)
 80002b4:	10800217 	ldw	r2,8(r2)
 80002b8:	11400044 	addi	r5,r2,1
 80002bc:	e13ffe17 	ldw	r4,-8(fp)
 80002c0:	21400215 	stw	r5,8(r4)
 80002c4:	1085883a 	add	r2,r2,r2
 80002c8:	1085883a 	add	r2,r2,r2
 80002cc:	1885883a 	add	r2,r3,r2
 80002d0:	e0ffff17 	ldw	r3,-4(fp)
 80002d4:	10c00015 	stw	r3,0(r2)
 80002d8:	e0bffe17 	ldw	r2,-8(fp)
 80002dc:	10c00217 	ldw	r3,8(r2)
 80002e0:	e0bffe17 	ldw	r2,-8(fp)
 80002e4:	10800117 	ldw	r2,4(r2)
 80002e8:	18800b16 	blt	r3,r2,8000318 <gppcu_put_instr+0x88>
 80002ec:	01c200f4 	movhi	r7,2051
 80002f0:	39d9c504 	addi	r7,r7,26388
 80002f4:	01802ec4 	movi	r6,187
 80002f8:	014200f4 	movhi	r5,2051
 80002fc:	2959c804 	addi	r5,r5,26400
 8000300:	010200f4 	movhi	r4,2051
 8000304:	2119cd04 	addi	r4,r4,26420
 8000308:	80270b00 	call	80270b0 <printf>
 800030c:	010200f4 	movhi	r4,2051
 8000310:	2119d804 	addi	r4,r4,26464
 8000314:	80270b00 	call	80270b0 <printf>
 8000318:	0001883a 	nop
 800031c:	e037883a 	mov	sp,fp
 8000320:	dfc00117 	ldw	ra,4(sp)
 8000324:	df000017 	ldw	fp,0(sp)
 8000328:	dec00204 	addi	sp,sp,8
 800032c:	f800283a 	ret

08000330 <gppcu_mvi>:
 8000330:	defffa04 	addi	sp,sp,-24
 8000334:	dfc00515 	stw	ra,20(sp)
 8000338:	df000415 	stw	fp,16(sp)
 800033c:	df000404 	addi	fp,sp,16
 8000340:	e13ffc15 	stw	r4,-16(fp)
 8000344:	e17ffd15 	stw	r5,-12(fp)
 8000348:	3005883a 	mov	r2,r6
 800034c:	e1ffff15 	stw	r7,-4(fp)
 8000350:	e0bffe05 	stb	r2,-8(fp)
 8000354:	e0bffd17 	ldw	r2,-12(fp)
 8000358:	1006973a 	slli	r3,r2,28
 800035c:	e0bffe03 	ldbu	r2,-8(fp)
 8000360:	100495ba 	slli	r2,r2,22
 8000364:	1886b03a 	or	r3,r3,r2
 8000368:	e0bfff17 	ldw	r2,-4(fp)
 800036c:	1004947a 	slli	r2,r2,17
 8000370:	1886b03a 	or	r3,r3,r2
 8000374:	e1000217 	ldw	r4,8(fp)
 8000378:	008000b4 	movhi	r2,2
 800037c:	10bfffc4 	addi	r2,r2,-1
 8000380:	2084703a 	and	r2,r4,r2
 8000384:	1884b03a 	or	r2,r3,r2
 8000388:	10814034 	orhi	r2,r2,1280
 800038c:	100b883a 	mov	r5,r2
 8000390:	e13ffc17 	ldw	r4,-16(fp)
 8000394:	80002900 	call	8000290 <gppcu_put_instr>
 8000398:	0001883a 	nop
 800039c:	e037883a 	mov	sp,fp
 80003a0:	dfc00117 	ldw	ra,4(sp)
 80003a4:	df000017 	ldw	fp,0(sp)
 80003a8:	dec00204 	addi	sp,sp,8
 80003ac:	f800283a 	ret

080003b0 <gppcu_fp_arith>:
 80003b0:	defffa04 	addi	sp,sp,-24
 80003b4:	dfc00515 	stw	ra,20(sp)
 80003b8:	df000415 	stw	fp,16(sp)
 80003bc:	df000404 	addi	fp,sp,16
 80003c0:	e13ffc15 	stw	r4,-16(fp)
 80003c4:	e17ffd15 	stw	r5,-12(fp)
 80003c8:	e1bffe15 	stw	r6,-8(fp)
 80003cc:	e1ffff15 	stw	r7,-4(fp)
 80003d0:	e0bffd17 	ldw	r2,-12(fp)
 80003d4:	1006973a 	slli	r3,r2,28
 80003d8:	e0bffe17 	ldw	r2,-8(fp)
 80003dc:	100495fa 	slli	r2,r2,23
 80003e0:	1886b03a 	or	r3,r3,r2
 80003e4:	e0bfff17 	ldw	r2,-4(fp)
 80003e8:	1004947a 	slli	r2,r2,17
 80003ec:	1886b03a 	or	r3,r3,r2
 80003f0:	e0800217 	ldw	r2,8(fp)
 80003f4:	1004933a 	slli	r2,r2,12
 80003f8:	1886b03a 	or	r3,r3,r2
 80003fc:	e0800317 	ldw	r2,12(fp)
 8000400:	1884b03a 	or	r2,r3,r2
 8000404:	100b883a 	mov	r5,r2
 8000408:	e13ffc17 	ldw	r4,-16(fp)
 800040c:	80002900 	call	8000290 <gppcu_put_instr>
 8000410:	0001883a 	nop
 8000414:	e037883a 	mov	sp,fp
 8000418:	dfc00117 	ldw	ra,4(sp)
 800041c:	df000017 	ldw	fp,0(sp)
 8000420:	dec00204 	addi	sp,sp,8
 8000424:	f800283a 	ret

08000428 <gppcu_fp_0>:
 8000428:	defffa04 	addi	sp,sp,-24
 800042c:	dfc00515 	stw	ra,20(sp)
 8000430:	df000415 	stw	fp,16(sp)
 8000434:	df000404 	addi	fp,sp,16
 8000438:	e13ffc15 	stw	r4,-16(fp)
 800043c:	e17ffd15 	stw	r5,-12(fp)
 8000440:	e1bffe15 	stw	r6,-8(fp)
 8000444:	e1ffff15 	stw	r7,-4(fp)
 8000448:	e0bffd17 	ldw	r2,-12(fp)
 800044c:	1006973a 	slli	r3,r2,28
 8000450:	e0bffe17 	ldw	r2,-8(fp)
 8000454:	100495fa 	slli	r2,r2,23
 8000458:	1886b03a 	or	r3,r3,r2
 800045c:	e0bfff17 	ldw	r2,-4(fp)
 8000460:	1004947a 	slli	r2,r2,17
 8000464:	1886b03a 	or	r3,r3,r2
 8000468:	e0800217 	ldw	r2,8(fp)
 800046c:	1004933a 	slli	r2,r2,12
 8000470:	1884b03a 	or	r2,r3,r2
 8000474:	100b883a 	mov	r5,r2
 8000478:	e13ffc17 	ldw	r4,-16(fp)
 800047c:	80002900 	call	8000290 <gppcu_put_instr>
 8000480:	0001883a 	nop
 8000484:	e037883a 	mov	sp,fp
 8000488:	dfc00117 	ldw	ra,4(sp)
 800048c:	df000017 	ldw	fp,0(sp)
 8000490:	dec00204 	addi	sp,sp,8
 8000494:	f800283a 	ret

08000498 <gppcu_ldl>:
 8000498:	defff904 	addi	sp,sp,-28
 800049c:	dfc00615 	stw	ra,24(sp)
 80004a0:	df000515 	stw	fp,20(sp)
 80004a4:	df000504 	addi	fp,sp,20
 80004a8:	e13ffb15 	stw	r4,-20(fp)
 80004ac:	e17ffc15 	stw	r5,-16(fp)
 80004b0:	e1bffd15 	stw	r6,-12(fp)
 80004b4:	e1fffe15 	stw	r7,-8(fp)
 80004b8:	e0800217 	ldw	r2,8(fp)
 80004bc:	e0bfff05 	stb	r2,-4(fp)
 80004c0:	e0bffc17 	ldw	r2,-16(fp)
 80004c4:	1006973a 	slli	r3,r2,28
 80004c8:	e0bffd17 	ldw	r2,-12(fp)
 80004cc:	1004947a 	slli	r2,r2,17
 80004d0:	1884b03a 	or	r2,r3,r2
 80004d4:	e0ffff03 	ldbu	r3,-4(fp)
 80004d8:	18c01fcc 	andi	r3,r3,127
 80004dc:	1806917a 	slli	r3,r3,5
 80004e0:	10c6b03a 	or	r3,r2,r3
 80004e4:	e0bffe17 	ldw	r2,-8(fp)
 80004e8:	1884b03a 	or	r2,r3,r2
 80004ec:	1082c034 	orhi	r2,r2,2816
 80004f0:	100b883a 	mov	r5,r2
 80004f4:	e13ffb17 	ldw	r4,-20(fp)
 80004f8:	80002900 	call	8000290 <gppcu_put_instr>
 80004fc:	0001883a 	nop
 8000500:	e037883a 	mov	sp,fp
 8000504:	dfc00117 	ldw	ra,4(sp)
 8000508:	df000017 	ldw	fp,0(sp)
 800050c:	dec00204 	addi	sp,sp,8
 8000510:	f800283a 	ret

08000514 <gppcu_stl>:
 8000514:	defff904 	addi	sp,sp,-28
 8000518:	dfc00615 	stw	ra,24(sp)
 800051c:	df000515 	stw	fp,20(sp)
 8000520:	df000504 	addi	fp,sp,20
 8000524:	e13ffb15 	stw	r4,-20(fp)
 8000528:	e17ffc15 	stw	r5,-16(fp)
 800052c:	e1bffd15 	stw	r6,-12(fp)
 8000530:	e1fffe15 	stw	r7,-8(fp)
 8000534:	e0800217 	ldw	r2,8(fp)
 8000538:	e0bfff05 	stb	r2,-4(fp)
 800053c:	e0bffc17 	ldw	r2,-16(fp)
 8000540:	1006973a 	slli	r3,r2,28
 8000544:	e0bffd17 	ldw	r2,-12(fp)
 8000548:	1004933a 	slli	r2,r2,12
 800054c:	1884b03a 	or	r2,r3,r2
 8000550:	e0ffff03 	ldbu	r3,-4(fp)
 8000554:	18c01fcc 	andi	r3,r3,127
 8000558:	1806917a 	slli	r3,r3,5
 800055c:	10c6b03a 	or	r3,r2,r3
 8000560:	e0bffe17 	ldw	r2,-8(fp)
 8000564:	1884b03a 	or	r2,r3,r2
 8000568:	10830034 	orhi	r2,r2,3072
 800056c:	100b883a 	mov	r5,r2
 8000570:	e13ffb17 	ldw	r4,-20(fp)
 8000574:	80002900 	call	8000290 <gppcu_put_instr>
 8000578:	0001883a 	nop
 800057c:	e037883a 	mov	sp,fp
 8000580:	dfc00117 	ldw	ra,4(sp)
 8000584:	df000017 	ldw	fp,0(sp)
 8000588:	dec00204 	addi	sp,sp,8
 800058c:	f800283a 	ret

08000590 <gppcu_ldci>:
 8000590:	defffa04 	addi	sp,sp,-24
 8000594:	dfc00515 	stw	ra,20(sp)
 8000598:	df000415 	stw	fp,16(sp)
 800059c:	df000404 	addi	fp,sp,16
 80005a0:	e13ffc15 	stw	r4,-16(fp)
 80005a4:	e17ffd15 	stw	r5,-12(fp)
 80005a8:	e1bffe15 	stw	r6,-8(fp)
 80005ac:	e1ffff15 	stw	r7,-4(fp)
 80005b0:	e0bffd17 	ldw	r2,-12(fp)
 80005b4:	1006973a 	slli	r3,r2,28
 80005b8:	e0bffe17 	ldw	r2,-8(fp)
 80005bc:	1004947a 	slli	r2,r2,17
 80005c0:	1886b03a 	or	r3,r3,r2
 80005c4:	e13fff17 	ldw	r4,-4(fp)
 80005c8:	008000b4 	movhi	r2,2
 80005cc:	10bfffc4 	addi	r2,r2,-1
 80005d0:	2084703a 	and	r2,r4,r2
 80005d4:	1884b03a 	or	r2,r3,r2
 80005d8:	1082e034 	orhi	r2,r2,2944
 80005dc:	100b883a 	mov	r5,r2
 80005e0:	e13ffc17 	ldw	r4,-16(fp)
 80005e4:	80002900 	call	8000290 <gppcu_put_instr>
 80005e8:	0001883a 	nop
 80005ec:	e037883a 	mov	sp,fp
 80005f0:	dfc00117 	ldw	ra,4(sp)
 80005f4:	df000017 	ldw	fp,0(sp)
 80005f8:	dec00204 	addi	sp,sp,8
 80005fc:	f800283a 	ret

08000600 <mat4_rotate_zyx>:
 8000600:	deffdc04 	addi	sp,sp,-144
 8000604:	dfc02315 	stw	ra,140(sp)
 8000608:	df002215 	stw	fp,136(sp)
 800060c:	df002204 	addi	fp,sp,136
 8000610:	e13ffe15 	stw	r4,-8(fp)
 8000614:	e17fff15 	stw	r5,-4(fp)
 8000618:	e13fde04 	addi	r4,fp,-136
 800061c:	800ebf80 	call	800ebf8 <mat4_identity>
 8000620:	e0bfee04 	addi	r2,fp,-72
 8000624:	1009883a 	mov	r4,r2
 8000628:	800ebf80 	call	800ebf8 <mat4_identity>
 800062c:	e0bfff17 	ldw	r2,-4(fp)
 8000630:	10800204 	addi	r2,r2,8
 8000634:	10c00017 	ldw	r3,0(r2)
 8000638:	e0bfee04 	addi	r2,fp,-72
 800063c:	180b883a 	mov	r5,r3
 8000640:	1009883a 	mov	r4,r2
 8000644:	801005c0 	call	801005c <mat4_rotation_z>
 8000648:	100d883a 	mov	r6,r2
 800064c:	e17fde04 	addi	r5,fp,-136
 8000650:	e13fde04 	addi	r4,fp,-136
 8000654:	8010cec0 	call	8010cec <mat4_multiply>
 8000658:	e0bfee04 	addi	r2,fp,-72
 800065c:	1009883a 	mov	r4,r2
 8000660:	800ebf80 	call	800ebf8 <mat4_identity>
 8000664:	e0bfff17 	ldw	r2,-4(fp)
 8000668:	10800104 	addi	r2,r2,4
 800066c:	10c00017 	ldw	r3,0(r2)
 8000670:	e0bfee04 	addi	r2,fp,-72
 8000674:	180b883a 	mov	r5,r3
 8000678:	1009883a 	mov	r4,r2
 800067c:	800ffd40 	call	800ffd4 <mat4_rotation_y>
 8000680:	100d883a 	mov	r6,r2
 8000684:	e17fde04 	addi	r5,fp,-136
 8000688:	e13fde04 	addi	r4,fp,-136
 800068c:	8010cec0 	call	8010cec <mat4_multiply>
 8000690:	e0bfee04 	addi	r2,fp,-72
 8000694:	1009883a 	mov	r4,r2
 8000698:	800ebf80 	call	800ebf8 <mat4_identity>
 800069c:	e0bfff17 	ldw	r2,-4(fp)
 80006a0:	10c00017 	ldw	r3,0(r2)
 80006a4:	e0bfee04 	addi	r2,fp,-72
 80006a8:	180b883a 	mov	r5,r3
 80006ac:	1009883a 	mov	r4,r2
 80006b0:	800ff480 	call	800ff48 <mat4_rotation_x>
 80006b4:	100d883a 	mov	r6,r2
 80006b8:	e17fde04 	addi	r5,fp,-136
 80006bc:	e13fde04 	addi	r4,fp,-136
 80006c0:	8010cec0 	call	8010cec <mat4_multiply>
 80006c4:	e17fde04 	addi	r5,fp,-136
 80006c8:	e13ffe17 	ldw	r4,-8(fp)
 80006cc:	800f0d40 	call	800f0d4 <mat4_assign>
 80006d0:	e0bffe17 	ldw	r2,-8(fp)
 80006d4:	e037883a 	mov	sp,fp
 80006d8:	dfc00117 	ldw	ra,4(sp)
 80006dc:	df000017 	ldw	fp,0(sp)
 80006e0:	dec00204 	addi	sp,sp,8
 80006e4:	f800283a 	ret

080006e8 <app_calc_object_constant>:
 80006e8:	deffac04 	addi	sp,sp,-336
 80006ec:	dfc05315 	stw	ra,332(sp)
 80006f0:	df005215 	stw	fp,328(sp)
 80006f4:	df005204 	addi	fp,sp,328
 80006f8:	e13ffd15 	stw	r4,-12(fp)
 80006fc:	e17ffe15 	stw	r5,-8(fp)
 8000700:	e1bfff15 	stw	r6,-4(fp)
 8000704:	e13fb004 	addi	r4,fp,-320
 8000708:	800ebf80 	call	800ebf8 <mat4_identity>
 800070c:	e0bfff17 	ldw	r2,-4(fp)
 8000710:	10800a04 	addi	r2,r2,40
 8000714:	100d883a 	mov	r6,r2
 8000718:	e17fb004 	addi	r5,fp,-320
 800071c:	e13fb004 	addi	r4,fp,-320
 8000720:	8010b500 	call	8010b50 <mat4_scale>
 8000724:	e0bfff17 	ldw	r2,-4(fp)
 8000728:	10c00704 	addi	r3,r2,28
 800072c:	e0bfc004 	addi	r2,fp,-256
 8000730:	180b883a 	mov	r5,r3
 8000734:	1009883a 	mov	r4,r2
 8000738:	80006000 	call	8000600 <mat4_rotate_zyx>
 800073c:	100d883a 	mov	r6,r2
 8000740:	e17fb004 	addi	r5,fp,-320
 8000744:	e13fb004 	addi	r4,fp,-320
 8000748:	8010cec0 	call	8010cec <mat4_multiply>
 800074c:	e0bfff17 	ldw	r2,-4(fp)
 8000750:	10800404 	addi	r2,r2,16
 8000754:	100d883a 	mov	r6,r2
 8000758:	e17fb004 	addi	r5,fp,-320
 800075c:	e13fb004 	addi	r4,fp,-320
 8000760:	80108480 	call	8010848 <mat4_translate>
 8000764:	e0fffe17 	ldw	r3,-8(fp)
 8000768:	e0bfea04 	addi	r2,fp,-88
 800076c:	180b883a 	mov	r5,r3
 8000770:	1009883a 	mov	r4,r2
 8000774:	80078c00 	call	80078c0 <vec3_assign>
 8000778:	e0bfe004 	addi	r2,fp,-128
 800077c:	d8000015 	stw	zero,0(sp)
 8000780:	01f04834 	movhi	r7,49440
 8000784:	000d883a 	mov	r6,zero
 8000788:	000b883a 	mov	r5,zero
 800078c:	1009883a 	mov	r4,r2
 8000790:	80098e40 	call	80098e4 <vec4>
 8000794:	e0bfe704 	addi	r2,fp,-100
 8000798:	000f883a 	mov	r7,zero
 800079c:	018fe034 	movhi	r6,16256
 80007a0:	000b883a 	mov	r5,zero
 80007a4:	1009883a 	mov	r4,r2
 80007a8:	80078640 	call	8007864 <vec3>
 80007ac:	e0bffe17 	ldw	r2,-8(fp)
 80007b0:	10c00304 	addi	r3,r2,12
 80007b4:	e0bfc004 	addi	r2,fp,-256
 80007b8:	180b883a 	mov	r5,r3
 80007bc:	1009883a 	mov	r4,r2
 80007c0:	80006000 	call	8000600 <mat4_rotate_zyx>
 80007c4:	e13fc004 	addi	r4,fp,-256
 80007c8:	e0ffe004 	addi	r3,fp,-128
 80007cc:	e0bfe004 	addi	r2,fp,-128
 80007d0:	200d883a 	mov	r6,r4
 80007d4:	180b883a 	mov	r5,r3
 80007d8:	1009883a 	mov	r4,r2
 80007dc:	800a0d40 	call	800a0d4 <vec4_multiply_mat4>
 80007e0:	e13fea04 	addi	r4,fp,-88
 80007e4:	e0ffe004 	addi	r3,fp,-128
 80007e8:	e0bfe404 	addi	r2,fp,-112
 80007ec:	200d883a 	mov	r6,r4
 80007f0:	180b883a 	mov	r5,r3
 80007f4:	1009883a 	mov	r4,r2
 80007f8:	8007b680 	call	8007b68 <vec3_add>
 80007fc:	e17fe704 	addi	r5,fp,-100
 8000800:	e13fe404 	addi	r4,fp,-112
 8000804:	e0ffea04 	addi	r3,fp,-88
 8000808:	e0bfd004 	addi	r2,fp,-192
 800080c:	280f883a 	mov	r7,r5
 8000810:	200d883a 	mov	r6,r4
 8000814:	180b883a 	mov	r5,r3
 8000818:	1009883a 	mov	r4,r2
 800081c:	80128040 	call	8012804 <mat4_look_at>
 8000820:	e0bffe17 	ldw	r2,-8(fp)
 8000824:	10c00617 	ldw	r3,24(r2)
 8000828:	1809883a 	mov	r4,r3
 800082c:	800358c0 	call	800358c <to_radians>
 8000830:	100b883a 	mov	r5,r2
 8000834:	e0fffe17 	ldw	r3,-8(fp)
 8000838:	18800717 	ldw	r2,28(r3)
 800083c:	e13ffe17 	ldw	r4,-8(fp)
 8000840:	20c00817 	ldw	r3,32(r4)
 8000844:	e13fed04 	addi	r4,fp,-76
 8000848:	d8c00115 	stw	r3,4(sp)
 800084c:	d8800015 	stw	r2,0(sp)
 8000850:	01d0dc34 	movhi	r7,17264
 8000854:	0190f234 	movhi	r6,17352
 8000858:	8012ccc0 	call	8012ccc <mat4_perspective_fov>
 800085c:	e0bffd17 	ldw	r2,-12(fp)
 8000860:	e0ffd004 	addi	r3,fp,-192
 8000864:	180d883a 	mov	r6,r3
 8000868:	e17fb004 	addi	r5,fp,-320
 800086c:	1009883a 	mov	r4,r2
 8000870:	8010cec0 	call	8010cec <mat4_multiply>
 8000874:	e0bffd17 	ldw	r2,-12(fp)
 8000878:	e0fffd17 	ldw	r3,-12(fp)
 800087c:	e13fed04 	addi	r4,fp,-76
 8000880:	200d883a 	mov	r6,r4
 8000884:	180b883a 	mov	r5,r3
 8000888:	1009883a 	mov	r4,r2
 800088c:	8010cec0 	call	8010cec <mat4_multiply>
 8000890:	e0bffd17 	ldw	r2,-12(fp)
 8000894:	00d0f234 	movhi	r3,17352
 8000898:	10c01015 	stw	r3,64(r2)
 800089c:	e0bffd17 	ldw	r2,-12(fp)
 80008a0:	00d0dc34 	movhi	r3,17264
 80008a4:	10c01115 	stw	r3,68(r2)
 80008a8:	0001883a 	nop
 80008ac:	e037883a 	mov	sp,fp
 80008b0:	dfc00117 	ldw	ra,4(sp)
 80008b4:	df000017 	ldw	fp,0(sp)
 80008b8:	dec00204 	addi	sp,sp,8
 80008bc:	f800283a 	ret

080008c0 <app_upload_program>:
 80008c0:	defff804 	addi	sp,sp,-32
 80008c4:	dfc00715 	stw	ra,28(sp)
 80008c8:	df000615 	stw	fp,24(sp)
 80008cc:	df000604 	addi	fp,sp,24
 80008d0:	e13fff15 	stw	r4,-4(fp)
 80008d4:	e13fff17 	ldw	r4,-4(fp)
 80008d8:	800202c0 	call	800202c <gppcu_clear_instr>
 80008dc:	e0bfff17 	ldw	r2,-4(fp)
 80008e0:	e0bffe15 	stw	r2,-8(fp)
 80008e4:	d0a00003 	ldbu	r2,-32768(gp)
 80008e8:	10803fcc 	andi	r2,r2,255
 80008ec:	d8000015 	stw	zero,0(sp)
 80008f0:	100f883a 	mov	r7,r2
 80008f4:	000d883a 	mov	r6,zero
 80008f8:	000b883a 	mov	r5,zero
 80008fc:	e13ffe17 	ldw	r4,-8(fp)
 8000900:	80004980 	call	8000498 <gppcu_ldl>
 8000904:	d0a00003 	ldbu	r2,-32768(gp)
 8000908:	10c03fcc 	andi	r3,r2,255
 800090c:	00800044 	movi	r2,1
 8000910:	d8800015 	stw	r2,0(sp)
 8000914:	180f883a 	mov	r7,r3
 8000918:	01800044 	movi	r6,1
 800091c:	000b883a 	mov	r5,zero
 8000920:	e13ffe17 	ldw	r4,-8(fp)
 8000924:	80004980 	call	8000498 <gppcu_ldl>
 8000928:	d0a00003 	ldbu	r2,-32768(gp)
 800092c:	10c03fcc 	andi	r3,r2,255
 8000930:	00800084 	movi	r2,2
 8000934:	d8800015 	stw	r2,0(sp)
 8000938:	180f883a 	mov	r7,r3
 800093c:	01800084 	movi	r6,2
 8000940:	000b883a 	mov	r5,zero
 8000944:	e13ffe17 	ldw	r4,-8(fp)
 8000948:	80004980 	call	8000498 <gppcu_ldl>
 800094c:	01c00044 	movi	r7,1
 8000950:	018000c4 	movi	r6,3
 8000954:	000b883a 	mov	r5,zero
 8000958:	e13ffe17 	ldw	r4,-8(fp)
 800095c:	80005900 	call	8000590 <gppcu_ldci>
 8000960:	e03ffd15 	stw	zero,-12(fp)
 8000964:	00003a06 	br	8000a50 <app_upload_program+0x190>
 8000968:	d8000015 	stw	zero,0(sp)
 800096c:	01c00104 	movi	r7,4
 8000970:	000d883a 	mov	r6,zero
 8000974:	000b883a 	mov	r5,zero
 8000978:	e13ffe17 	ldw	r4,-8(fp)
 800097c:	80003300 	call	8000330 <gppcu_mvi>
 8000980:	e03ffc15 	stw	zero,-16(fp)
 8000984:	00002106 	br	8000a0c <app_upload_program+0x14c>
 8000988:	e0bffc17 	ldw	r2,-16(fp)
 800098c:	10800104 	addi	r2,r2,4
 8000990:	1085883a 	add	r2,r2,r2
 8000994:	1085883a 	add	r2,r2,r2
 8000998:	1007883a 	mov	r3,r2
 800099c:	e0bffd17 	ldw	r2,-12(fp)
 80009a0:	1885883a 	add	r2,r3,r2
 80009a4:	100f883a 	mov	r7,r2
 80009a8:	01800184 	movi	r6,6
 80009ac:	000b883a 	mov	r5,zero
 80009b0:	e13ffe17 	ldw	r4,-8(fp)
 80009b4:	80005900 	call	8000590 <gppcu_ldci>
 80009b8:	e0bffc17 	ldw	r2,-16(fp)
 80009bc:	00c00184 	movi	r3,6
 80009c0:	d8c00115 	stw	r3,4(sp)
 80009c4:	d8800015 	stw	r2,0(sp)
 80009c8:	01c00144 	movi	r7,5
 80009cc:	01800404 	movi	r6,16
 80009d0:	000b883a 	mov	r5,zero
 80009d4:	e13ffe17 	ldw	r4,-8(fp)
 80009d8:	80003b00 	call	80003b0 <gppcu_fp_arith>
 80009dc:	00800144 	movi	r2,5
 80009e0:	d8800115 	stw	r2,4(sp)
 80009e4:	00800104 	movi	r2,4
 80009e8:	d8800015 	stw	r2,0(sp)
 80009ec:	01c00104 	movi	r7,4
 80009f0:	01800484 	movi	r6,18
 80009f4:	000b883a 	mov	r5,zero
 80009f8:	e13ffe17 	ldw	r4,-8(fp)
 80009fc:	80003b00 	call	80003b0 <gppcu_fp_arith>
 8000a00:	e0bffc17 	ldw	r2,-16(fp)
 8000a04:	10800044 	addi	r2,r2,1
 8000a08:	e0bffc15 	stw	r2,-16(fp)
 8000a0c:	e0bffc17 	ldw	r2,-16(fp)
 8000a10:	10800110 	cmplti	r2,r2,4
 8000a14:	103fdc1e 	bne	r2,zero,8000988 <__alt_data_end+0xf8000988>
 8000a18:	d0a00003 	ldbu	r2,-32768(gp)
 8000a1c:	10c03fcc 	andi	r3,r2,255
 8000a20:	e0bffd17 	ldw	r2,-12(fp)
 8000a24:	10800184 	addi	r2,r2,6
 8000a28:	10803fcc 	andi	r2,r2,255
 8000a2c:	d8800015 	stw	r2,0(sp)
 8000a30:	180f883a 	mov	r7,r3
 8000a34:	01800104 	movi	r6,4
 8000a38:	000b883a 	mov	r5,zero
 8000a3c:	e13ffe17 	ldw	r4,-8(fp)
 8000a40:	80005140 	call	8000514 <gppcu_stl>
 8000a44:	e0bffd17 	ldw	r2,-12(fp)
 8000a48:	10800044 	addi	r2,r2,1
 8000a4c:	e0bffd15 	stw	r2,-12(fp)
 8000a50:	e0bffd17 	ldw	r2,-12(fp)
 8000a54:	108000d0 	cmplti	r2,r2,3
 8000a58:	103fc31e 	bne	r2,zero,8000968 <__alt_data_end+0xf8000968>
 8000a5c:	d0a00003 	ldbu	r2,-32768(gp)
 8000a60:	10c03fcc 	andi	r3,r2,255
 8000a64:	00800184 	movi	r2,6
 8000a68:	d8800015 	stw	r2,0(sp)
 8000a6c:	180f883a 	mov	r7,r3
 8000a70:	000d883a 	mov	r6,zero
 8000a74:	000b883a 	mov	r5,zero
 8000a78:	e13ffe17 	ldw	r4,-8(fp)
 8000a7c:	80004980 	call	8000498 <gppcu_ldl>
 8000a80:	d0a00003 	ldbu	r2,-32768(gp)
 8000a84:	10c03fcc 	andi	r3,r2,255
 8000a88:	008001c4 	movi	r2,7
 8000a8c:	d8800015 	stw	r2,0(sp)
 8000a90:	180f883a 	mov	r7,r3
 8000a94:	01800044 	movi	r6,1
 8000a98:	000b883a 	mov	r5,zero
 8000a9c:	e13ffe17 	ldw	r4,-8(fp)
 8000aa0:	80004980 	call	8000498 <gppcu_ldl>
 8000aa4:	d0a00003 	ldbu	r2,-32768(gp)
 8000aa8:	10c03fcc 	andi	r3,r2,255
 8000aac:	00800204 	movi	r2,8
 8000ab0:	d8800015 	stw	r2,0(sp)
 8000ab4:	180f883a 	mov	r7,r3
 8000ab8:	01800084 	movi	r6,2
 8000abc:	000b883a 	mov	r5,zero
 8000ac0:	e13ffe17 	ldw	r4,-8(fp)
 8000ac4:	80004980 	call	8000498 <gppcu_ldl>
 8000ac8:	00800084 	movi	r2,2
 8000acc:	d8800115 	stw	r2,4(sp)
 8000ad0:	d8000015 	stw	zero,0(sp)
 8000ad4:	000f883a 	mov	r7,zero
 8000ad8:	01800444 	movi	r6,17
 8000adc:	000b883a 	mov	r5,zero
 8000ae0:	e13ffe17 	ldw	r4,-8(fp)
 8000ae4:	80003b00 	call	80003b0 <gppcu_fp_arith>
 8000ae8:	00800084 	movi	r2,2
 8000aec:	d8800115 	stw	r2,4(sp)
 8000af0:	00800044 	movi	r2,1
 8000af4:	d8800015 	stw	r2,0(sp)
 8000af8:	01c00044 	movi	r7,1
 8000afc:	01800444 	movi	r6,17
 8000b00:	000b883a 	mov	r5,zero
 8000b04:	e13ffe17 	ldw	r4,-8(fp)
 8000b08:	80003b00 	call	80003b0 <gppcu_fp_arith>
 8000b0c:	01c00444 	movi	r7,17
 8000b10:	01800104 	movi	r6,4
 8000b14:	000b883a 	mov	r5,zero
 8000b18:	e13ffe17 	ldw	r4,-8(fp)
 8000b1c:	80005900 	call	8000590 <gppcu_ldci>
 8000b20:	01c00484 	movi	r7,18
 8000b24:	01800144 	movi	r6,5
 8000b28:	000b883a 	mov	r5,zero
 8000b2c:	e13ffe17 	ldw	r4,-8(fp)
 8000b30:	80005900 	call	8000590 <gppcu_ldci>
 8000b34:	00800104 	movi	r2,4
 8000b38:	d8800115 	stw	r2,4(sp)
 8000b3c:	d8000015 	stw	zero,0(sp)
 8000b40:	000f883a 	mov	r7,zero
 8000b44:	01800404 	movi	r6,16
 8000b48:	000b883a 	mov	r5,zero
 8000b4c:	e13ffe17 	ldw	r4,-8(fp)
 8000b50:	80003b00 	call	80003b0 <gppcu_fp_arith>
 8000b54:	00800144 	movi	r2,5
 8000b58:	d8800115 	stw	r2,4(sp)
 8000b5c:	00800044 	movi	r2,1
 8000b60:	d8800015 	stw	r2,0(sp)
 8000b64:	01c00044 	movi	r7,1
 8000b68:	01800404 	movi	r6,16
 8000b6c:	000b883a 	mov	r5,zero
 8000b70:	e13ffe17 	ldw	r4,-8(fp)
 8000b74:	80003b00 	call	80003b0 <gppcu_fp_arith>
 8000b78:	d8000015 	stw	zero,0(sp)
 8000b7c:	000f883a 	mov	r7,zero
 8000b80:	018003c4 	movi	r6,15
 8000b84:	000b883a 	mov	r5,zero
 8000b88:	e13ffe17 	ldw	r4,-8(fp)
 8000b8c:	80004280 	call	8000428 <gppcu_fp_0>
 8000b90:	00800044 	movi	r2,1
 8000b94:	d8800015 	stw	r2,0(sp)
 8000b98:	01c00044 	movi	r7,1
 8000b9c:	018003c4 	movi	r6,15
 8000ba0:	000b883a 	mov	r5,zero
 8000ba4:	e13ffe17 	ldw	r4,-8(fp)
 8000ba8:	80004280 	call	8000428 <gppcu_fp_0>
 8000bac:	d0a00003 	ldbu	r2,-32768(gp)
 8000bb0:	10c03fcc 	andi	r3,r2,255
 8000bb4:	008000c4 	movi	r2,3
 8000bb8:	d8800015 	stw	r2,0(sp)
 8000bbc:	180f883a 	mov	r7,r3
 8000bc0:	000d883a 	mov	r6,zero
 8000bc4:	000b883a 	mov	r5,zero
 8000bc8:	e13ffe17 	ldw	r4,-8(fp)
 8000bcc:	80005140 	call	8000514 <gppcu_stl>
 8000bd0:	d0a00003 	ldbu	r2,-32768(gp)
 8000bd4:	10c03fcc 	andi	r3,r2,255
 8000bd8:	00800104 	movi	r2,4
 8000bdc:	d8800015 	stw	r2,0(sp)
 8000be0:	180f883a 	mov	r7,r3
 8000be4:	01800044 	movi	r6,1
 8000be8:	000b883a 	mov	r5,zero
 8000bec:	e13ffe17 	ldw	r4,-8(fp)
 8000bf0:	80005140 	call	8000514 <gppcu_stl>
 8000bf4:	d0a00003 	ldbu	r2,-32768(gp)
 8000bf8:	10c03fcc 	andi	r3,r2,255
 8000bfc:	00800144 	movi	r2,5
 8000c00:	d8800015 	stw	r2,0(sp)
 8000c04:	180f883a 	mov	r7,r3
 8000c08:	01800084 	movi	r6,2
 8000c0c:	000b883a 	mov	r5,zero
 8000c10:	e13ffe17 	ldw	r4,-8(fp)
 8000c14:	80005140 	call	8000514 <gppcu_stl>
 8000c18:	0001883a 	nop
 8000c1c:	e037883a 	mov	sp,fp
 8000c20:	dfc00117 	ldw	ra,4(sp)
 8000c24:	df000017 	ldw	fp,0(sp)
 8000c28:	dec00204 	addi	sp,sp,8
 8000c2c:	f800283a 	ret

08000c30 <app_upload_vertices>:
 8000c30:	defffc04 	addi	sp,sp,-16
 8000c34:	dfc00315 	stw	ra,12(sp)
 8000c38:	df000215 	stw	fp,8(sp)
 8000c3c:	df000204 	addi	fp,sp,8
 8000c40:	e13ffe15 	stw	r4,-8(fp)
 8000c44:	e17fff15 	stw	r5,-4(fp)
 8000c48:	e0bfff17 	ldw	r2,-4(fp)
 8000c4c:	1080030b 	ldhu	r2,12(r2)
 8000c50:	10bfffcc 	andi	r2,r2,65535
 8000c54:	100d883a 	mov	r6,r2
 8000c58:	01400304 	movi	r5,12
 8000c5c:	e13ffe17 	ldw	r4,-8(fp)
 8000c60:	80013b80 	call	80013b8 <gppcu_init_task>
 8000c64:	e0bfff17 	ldw	r2,-4(fp)
 8000c68:	10800017 	ldw	r2,0(r2)
 8000c6c:	000f883a 	mov	r7,zero
 8000c70:	018000c4 	movi	r6,3
 8000c74:	100b883a 	mov	r5,r2
 8000c78:	e13ffe17 	ldw	r4,-8(fp)
 8000c7c:	80020580 	call	8002058 <gppcu_write>
 8000c80:	0001883a 	nop
 8000c84:	e037883a 	mov	sp,fp
 8000c88:	dfc00117 	ldw	ra,4(sp)
 8000c8c:	df000017 	ldw	fp,0(sp)
 8000c90:	dec00204 	addi	sp,sp,8
 8000c94:	f800283a 	ret

08000c98 <app_upload_object_constant>:
 8000c98:	defffd04 	addi	sp,sp,-12
 8000c9c:	df000215 	stw	fp,8(sp)
 8000ca0:	df000204 	addi	fp,sp,8
 8000ca4:	e13ffe15 	stw	r4,-8(fp)
 8000ca8:	e17fff15 	stw	r5,-4(fp)
 8000cac:	0001883a 	nop
 8000cb0:	e037883a 	mov	sp,fp
 8000cb4:	df000017 	ldw	fp,0(sp)
 8000cb8:	dec00104 	addi	sp,sp,4
 8000cbc:	f800283a 	ret

08000cc0 <rgb16_drawline>:
 8000cc0:	defff504 	addi	sp,sp,-44
 8000cc4:	df000a15 	stw	fp,40(sp)
 8000cc8:	df000a04 	addi	fp,sp,40
 8000ccc:	e13ffb15 	stw	r4,-20(fp)
 8000cd0:	3009883a 	mov	r4,r6
 8000cd4:	3807883a 	mov	r3,r7
 8000cd8:	e0800117 	ldw	r2,4(fp)
 8000cdc:	e17ffc0d 	sth	r5,-16(fp)
 8000ce0:	e13ffd0d 	sth	r4,-12(fp)
 8000ce4:	e0fffe0d 	sth	r3,-8(fp)
 8000ce8:	e0bfff0d 	sth	r2,-4(fp)
 8000cec:	e0fffe0f 	ldh	r3,-8(fp)
 8000cf0:	e0bffc0f 	ldh	r2,-16(fp)
 8000cf4:	1885c83a 	sub	r2,r3,r2
 8000cf8:	1000010e 	bge	r2,zero,8000d00 <rgb16_drawline+0x40>
 8000cfc:	0085c83a 	sub	r2,zero,r2
 8000d00:	e0bff70d 	sth	r2,-36(fp)
 8000d04:	e0ffff0f 	ldh	r3,-4(fp)
 8000d08:	e0bffd0f 	ldh	r2,-12(fp)
 8000d0c:	1885c83a 	sub	r2,r3,r2
 8000d10:	1000010e 	bge	r2,zero,8000d18 <rgb16_drawline+0x58>
 8000d14:	0085c83a 	sub	r2,zero,r2
 8000d18:	0085c83a 	sub	r2,zero,r2
 8000d1c:	e0bff78d 	sth	r2,-34(fp)
 8000d20:	e0bffe0f 	ldh	r2,-8(fp)
 8000d24:	e0fffc0f 	ldh	r3,-16(fp)
 8000d28:	1880020e 	bge	r3,r2,8000d34 <rgb16_drawline+0x74>
 8000d2c:	00800044 	movi	r2,1
 8000d30:	00000106 	br	8000d38 <rgb16_drawline+0x78>
 8000d34:	00bfffc4 	movi	r2,-1
 8000d38:	e0bff815 	stw	r2,-32(fp)
 8000d3c:	e0bfff0f 	ldh	r2,-4(fp)
 8000d40:	e0fffd0f 	ldh	r3,-12(fp)
 8000d44:	1880020e 	bge	r3,r2,8000d50 <rgb16_drawline+0x90>
 8000d48:	00800044 	movi	r2,1
 8000d4c:	00000106 	br	8000d54 <rgb16_drawline+0x94>
 8000d50:	00bfffc4 	movi	r2,-1
 8000d54:	e0bff915 	stw	r2,-28(fp)
 8000d58:	e0fff70f 	ldh	r3,-36(fp)
 8000d5c:	e0bff78f 	ldh	r2,-34(fp)
 8000d60:	1885883a 	add	r2,r3,r2
 8000d64:	e0bff615 	stw	r2,-40(fp)
 8000d68:	e0fffc0f 	ldh	r3,-16(fp)
 8000d6c:	e0bffe0f 	ldh	r2,-8(fp)
 8000d70:	1880031e 	bne	r3,r2,8000d80 <rgb16_drawline+0xc0>
 8000d74:	e0fffd0f 	ldh	r3,-12(fp)
 8000d78:	e0bfff0f 	ldh	r2,-4(fp)
 8000d7c:	18801c26 	beq	r3,r2,8000df0 <rgb16_drawline+0x130>
 8000d80:	e0bff617 	ldw	r2,-40(fp)
 8000d84:	1085883a 	add	r2,r2,r2
 8000d88:	e0bffa15 	stw	r2,-24(fp)
 8000d8c:	e0bff78f 	ldh	r2,-34(fp)
 8000d90:	e0fffa17 	ldw	r3,-24(fp)
 8000d94:	18800916 	blt	r3,r2,8000dbc <rgb16_drawline+0xfc>
 8000d98:	e0bff78f 	ldh	r2,-34(fp)
 8000d9c:	e0fff617 	ldw	r3,-40(fp)
 8000da0:	1885883a 	add	r2,r3,r2
 8000da4:	e0bff615 	stw	r2,-40(fp)
 8000da8:	e0bff817 	ldw	r2,-32(fp)
 8000dac:	1007883a 	mov	r3,r2
 8000db0:	e0bffc0b 	ldhu	r2,-16(fp)
 8000db4:	1885883a 	add	r2,r3,r2
 8000db8:	e0bffc0d 	sth	r2,-16(fp)
 8000dbc:	e0fff70f 	ldh	r3,-36(fp)
 8000dc0:	e0bffa17 	ldw	r2,-24(fp)
 8000dc4:	18bfe816 	blt	r3,r2,8000d68 <__alt_data_end+0xf8000d68>
 8000dc8:	e0bff70f 	ldh	r2,-36(fp)
 8000dcc:	e0fff617 	ldw	r3,-40(fp)
 8000dd0:	1885883a 	add	r2,r3,r2
 8000dd4:	e0bff615 	stw	r2,-40(fp)
 8000dd8:	e0bff917 	ldw	r2,-28(fp)
 8000ddc:	1007883a 	mov	r3,r2
 8000de0:	e0bffd0b 	ldhu	r2,-12(fp)
 8000de4:	1885883a 	add	r2,r3,r2
 8000de8:	e0bffd0d 	sth	r2,-12(fp)
 8000dec:	003fde06 	br	8000d68 <__alt_data_end+0xf8000d68>
 8000df0:	0001883a 	nop
 8000df4:	0001883a 	nop
 8000df8:	e037883a 	mov	sp,fp
 8000dfc:	df000017 	ldw	fp,0(sp)
 8000e00:	dec00104 	addi	sp,sp,4
 8000e04:	f800283a 	ret

08000e08 <gppcu_push_instr>:
 8000e08:	defffc04 	addi	sp,sp,-16
 8000e0c:	df000315 	stw	fp,12(sp)
 8000e10:	df000304 	addi	fp,sp,12
 8000e14:	e13ffd15 	stw	r4,-12(fp)
 8000e18:	e17ffe15 	stw	r5,-8(fp)
 8000e1c:	e1bfff15 	stw	r6,-4(fp)
 8000e20:	e0bffe17 	ldw	r2,-8(fp)
 8000e24:	e0ffff17 	ldw	r3,-4(fp)
 8000e28:	10c00035 	stwio	r3,0(r2)
 8000e2c:	e0bffd17 	ldw	r2,-12(fp)
 8000e30:	0007883a 	mov	r3,zero
 8000e34:	10c00035 	stwio	r3,0(r2)
 8000e38:	e0bffd17 	ldw	r2,-12(fp)
 8000e3c:	00e00034 	movhi	r3,32768
 8000e40:	10c00035 	stwio	r3,0(r2)
 8000e44:	e0bffd17 	ldw	r2,-12(fp)
 8000e48:	0007883a 	mov	r3,zero
 8000e4c:	10c00035 	stwio	r3,0(r2)
 8000e50:	0001883a 	nop
 8000e54:	e037883a 	mov	sp,fp
 8000e58:	df000017 	ldw	fp,0(sp)
 8000e5c:	dec00104 	addi	sp,sp,4
 8000e60:	f800283a 	ret

08000e64 <gppcu_data_rd>:
 8000e64:	defffa04 	addi	sp,sp,-24
 8000e68:	df000515 	stw	fp,20(sp)
 8000e6c:	df000504 	addi	fp,sp,20
 8000e70:	e13ffc15 	stw	r4,-16(fp)
 8000e74:	e17ffd15 	stw	r5,-12(fp)
 8000e78:	e1bffe15 	stw	r6,-8(fp)
 8000e7c:	e1ffff15 	stw	r7,-4(fp)
 8000e80:	e0bffe17 	ldw	r2,-8(fp)
 8000e84:	1004943a 	slli	r2,r2,16
 8000e88:	10c04034 	orhi	r3,r2,256
 8000e8c:	e0bfff17 	ldw	r2,-4(fp)
 8000e90:	1884b03a 	or	r2,r3,r2
 8000e94:	e0bffb15 	stw	r2,-20(fp)
 8000e98:	e0bffc17 	ldw	r2,-16(fp)
 8000e9c:	e0fffb17 	ldw	r3,-20(fp)
 8000ea0:	10c00035 	stwio	r3,0(r2)
 8000ea4:	e0bffc17 	ldw	r2,-16(fp)
 8000ea8:	e0fffb17 	ldw	r3,-20(fp)
 8000eac:	18e00034 	orhi	r3,r3,32768
 8000eb0:	10c00035 	stwio	r3,0(r2)
 8000eb4:	e0fffc17 	ldw	r3,-16(fp)
 8000eb8:	e13ffb17 	ldw	r4,-20(fp)
 8000ebc:	00a00034 	movhi	r2,32768
 8000ec0:	10bfffc4 	addi	r2,r2,-1
 8000ec4:	2084703a 	and	r2,r4,r2
 8000ec8:	18800035 	stwio	r2,0(r3)
 8000ecc:	e0bffd17 	ldw	r2,-12(fp)
 8000ed0:	10800037 	ldwio	r2,0(r2)
 8000ed4:	e037883a 	mov	sp,fp
 8000ed8:	df000017 	ldw	fp,0(sp)
 8000edc:	dec00104 	addi	sp,sp,4
 8000ee0:	f800283a 	ret

08000ee4 <gppcu_data_wr>:
 8000ee4:	defffa04 	addi	sp,sp,-24
 8000ee8:	df000515 	stw	fp,20(sp)
 8000eec:	df000504 	addi	fp,sp,20
 8000ef0:	e13ffc15 	stw	r4,-16(fp)
 8000ef4:	e17ffd15 	stw	r5,-12(fp)
 8000ef8:	e1bffe15 	stw	r6,-8(fp)
 8000efc:	e1ffff15 	stw	r7,-4(fp)
 8000f00:	e0bffe17 	ldw	r2,-8(fp)
 8000f04:	1004943a 	slli	r2,r2,16
 8000f08:	10c08034 	orhi	r3,r2,512
 8000f0c:	e0bfff17 	ldw	r2,-4(fp)
 8000f10:	1884b03a 	or	r2,r3,r2
 8000f14:	e0bffb15 	stw	r2,-20(fp)
 8000f18:	e0bffd17 	ldw	r2,-12(fp)
 8000f1c:	e0c00117 	ldw	r3,4(fp)
 8000f20:	10c00035 	stwio	r3,0(r2)
 8000f24:	e0bffc17 	ldw	r2,-16(fp)
 8000f28:	e0fffb17 	ldw	r3,-20(fp)
 8000f2c:	10c00035 	stwio	r3,0(r2)
 8000f30:	e0bffc17 	ldw	r2,-16(fp)
 8000f34:	e0fffb17 	ldw	r3,-20(fp)
 8000f38:	18e00034 	orhi	r3,r3,32768
 8000f3c:	10c00035 	stwio	r3,0(r2)
 8000f40:	e0fffc17 	ldw	r3,-16(fp)
 8000f44:	e13ffb17 	ldw	r4,-20(fp)
 8000f48:	00a00034 	movhi	r2,32768
 8000f4c:	10bfffc4 	addi	r2,r2,-1
 8000f50:	2084703a 	and	r2,r4,r2
 8000f54:	18800035 	stwio	r2,0(r3)
 8000f58:	0001883a 	nop
 8000f5c:	e037883a 	mov	sp,fp
 8000f60:	df000017 	ldw	fp,0(sp)
 8000f64:	dec00104 	addi	sp,sp,4
 8000f68:	f800283a 	ret

08000f6c <gppcu_constant_wr>:
 8000f6c:	defffa04 	addi	sp,sp,-24
 8000f70:	df000515 	stw	fp,20(sp)
 8000f74:	df000504 	addi	fp,sp,20
 8000f78:	e13ffc15 	stw	r4,-16(fp)
 8000f7c:	e17ffd15 	stw	r5,-12(fp)
 8000f80:	3005883a 	mov	r2,r6
 8000f84:	e1ffff15 	stw	r7,-4(fp)
 8000f88:	e0bffe0d 	sth	r2,-8(fp)
 8000f8c:	e0bffe0b 	ldhu	r2,-8(fp)
 8000f90:	1080c034 	orhi	r2,r2,768
 8000f94:	e0bffb15 	stw	r2,-20(fp)
 8000f98:	e0bffd17 	ldw	r2,-12(fp)
 8000f9c:	e0ffff17 	ldw	r3,-4(fp)
 8000fa0:	10c00035 	stwio	r3,0(r2)
 8000fa4:	e0bffc17 	ldw	r2,-16(fp)
 8000fa8:	e0fffb17 	ldw	r3,-20(fp)
 8000fac:	10c00035 	stwio	r3,0(r2)
 8000fb0:	e0bffc17 	ldw	r2,-16(fp)
 8000fb4:	e0fffb17 	ldw	r3,-20(fp)
 8000fb8:	18e00034 	orhi	r3,r3,32768
 8000fbc:	10c00035 	stwio	r3,0(r2)
 8000fc0:	e0fffc17 	ldw	r3,-16(fp)
 8000fc4:	e13ffb17 	ldw	r4,-20(fp)
 8000fc8:	00a00034 	movhi	r2,32768
 8000fcc:	10bfffc4 	addi	r2,r2,-1
 8000fd0:	2084703a 	and	r2,r4,r2
 8000fd4:	18800035 	stwio	r2,0(r3)
 8000fd8:	0001883a 	nop
 8000fdc:	e037883a 	mov	sp,fp
 8000fe0:	df000017 	ldw	fp,0(sp)
 8000fe4:	dec00104 	addi	sp,sp,4
 8000fe8:	f800283a 	ret

08000fec <gppcu_device_command>:
 8000fec:	defffb04 	addi	sp,sp,-20
 8000ff0:	df000415 	stw	fp,16(sp)
 8000ff4:	df000404 	addi	fp,sp,16
 8000ff8:	e13ffd15 	stw	r4,-12(fp)
 8000ffc:	2807883a 	mov	r3,r5
 8001000:	3005883a 	mov	r2,r6
 8001004:	e0fffe05 	stb	r3,-8(fp)
 8001008:	e0bfff0d 	sth	r2,-4(fp)
 800100c:	e0bffe03 	ldbu	r2,-8(fp)
 8001010:	1004943a 	slli	r2,r2,16
 8001014:	10c10034 	orhi	r3,r2,1024
 8001018:	e0bfff0b 	ldhu	r2,-4(fp)
 800101c:	1884b03a 	or	r2,r3,r2
 8001020:	e0bffc15 	stw	r2,-16(fp)
 8001024:	e0bffd17 	ldw	r2,-12(fp)
 8001028:	e0fffc17 	ldw	r3,-16(fp)
 800102c:	10c00035 	stwio	r3,0(r2)
 8001030:	e0bffd17 	ldw	r2,-12(fp)
 8001034:	e0fffc17 	ldw	r3,-16(fp)
 8001038:	18e00034 	orhi	r3,r3,32768
 800103c:	10c00035 	stwio	r3,0(r2)
 8001040:	e0fffd17 	ldw	r3,-12(fp)
 8001044:	e13ffc17 	ldw	r4,-16(fp)
 8001048:	00a00034 	movhi	r2,32768
 800104c:	10bfffc4 	addi	r2,r2,-1
 8001050:	2084b03a 	or	r2,r4,r2
 8001054:	18800035 	stwio	r2,0(r3)
 8001058:	0001883a 	nop
 800105c:	e037883a 	mov	sp,fp
 8001060:	df000017 	ldw	fp,0(sp)
 8001064:	dec00104 	addi	sp,sp,4
 8001068:	f800283a 	ret

0800106c <gppcu_stat>:
 800106c:	defff904 	addi	sp,sp,-28
 8001070:	df000615 	stw	fp,24(sp)
 8001074:	df000604 	addi	fp,sp,24
 8001078:	e13ffc15 	stw	r4,-16(fp)
 800107c:	e17ffd15 	stw	r5,-12(fp)
 8001080:	e1bffe15 	stw	r6,-8(fp)
 8001084:	e1ffff15 	stw	r7,-4(fp)
 8001088:	00810034 	movhi	r2,1024
 800108c:	e0bffa15 	stw	r2,-24(fp)
 8001090:	e0fffa17 	ldw	r3,-24(fp)
 8001094:	00840134 	movhi	r2,4100
 8001098:	10841404 	addi	r2,r2,4176
 800109c:	10c00035 	stwio	r3,0(r2)
 80010a0:	00840134 	movhi	r2,4100
 80010a4:	10841804 	addi	r2,r2,4192
 80010a8:	10800037 	ldwio	r2,0(r2)
 80010ac:	e0bffb15 	stw	r2,-20(fp)
 80010b0:	e0bffb17 	ldw	r2,-20(fp)
 80010b4:	1004d7fa 	srli	r2,r2,31
 80010b8:	1007883a 	mov	r3,r2
 80010bc:	e0bffc17 	ldw	r2,-16(fp)
 80010c0:	10c00005 	stb	r3,0(r2)
 80010c4:	e0bffb17 	ldw	r2,-20(fp)
 80010c8:	1090002c 	andhi	r2,r2,16384
 80010cc:	1004c03a 	cmpne	r2,r2,zero
 80010d0:	1007883a 	mov	r3,r2
 80010d4:	e0bffd17 	ldw	r2,-12(fp)
 80010d8:	10c00005 	stb	r3,0(r2)
 80010dc:	e0bffb17 	ldw	r2,-20(fp)
 80010e0:	1004d63a 	srli	r2,r2,24
 80010e4:	10800fcc 	andi	r2,r2,63
 80010e8:	1007883a 	mov	r3,r2
 80010ec:	e0bffe17 	ldw	r2,-8(fp)
 80010f0:	10c00005 	stb	r3,0(r2)
 80010f4:	e0bffb17 	ldw	r2,-20(fp)
 80010f8:	1004d43a 	srli	r2,r2,16
 80010fc:	1007883a 	mov	r3,r2
 8001100:	e0bfff17 	ldw	r2,-4(fp)
 8001104:	10c00005 	stb	r3,0(r2)
 8001108:	e0bffb17 	ldw	r2,-20(fp)
 800110c:	1004d23a 	srli	r2,r2,8
 8001110:	1007883a 	mov	r3,r2
 8001114:	e0800117 	ldw	r2,4(fp)
 8001118:	10c00005 	stb	r3,0(r2)
 800111c:	e0bffb17 	ldw	r2,-20(fp)
 8001120:	1004d13a 	srli	r2,r2,4
 8001124:	108003cc 	andi	r2,r2,15
 8001128:	1007883a 	mov	r3,r2
 800112c:	e0800217 	ldw	r2,8(fp)
 8001130:	10c00005 	stb	r3,0(r2)
 8001134:	e0bffb17 	ldw	r2,-20(fp)
 8001138:	108003cc 	andi	r2,r2,15
 800113c:	1007883a 	mov	r3,r2
 8001140:	e0800317 	ldw	r2,12(fp)
 8001144:	10c00005 	stb	r3,0(r2)
 8001148:	0001883a 	nop
 800114c:	e037883a 	mov	sp,fp
 8001150:	df000017 	ldw	fp,0(sp)
 8001154:	dec00104 	addi	sp,sp,4
 8001158:	f800283a 	ret

0800115c <gppcu_is_done>:
 800115c:	defff604 	addi	sp,sp,-40
 8001160:	dfc00915 	stw	ra,36(sp)
 8001164:	df000815 	stw	fp,32(sp)
 8001168:	df000804 	addi	fp,sp,32
 800116c:	e13ffe15 	stw	r4,-8(fp)
 8001170:	e17fff15 	stw	r5,-4(fp)
 8001174:	e17ffc04 	addi	r5,fp,-16
 8001178:	e13ffc04 	addi	r4,fp,-16
 800117c:	e0fffc04 	addi	r3,fp,-16
 8001180:	e0bffd04 	addi	r2,fp,-12
 8001184:	d8800215 	stw	r2,8(sp)
 8001188:	e0bffd44 	addi	r2,fp,-11
 800118c:	d8800115 	stw	r2,4(sp)
 8001190:	e0bffc04 	addi	r2,fp,-16
 8001194:	d8800015 	stw	r2,0(sp)
 8001198:	280f883a 	mov	r7,r5
 800119c:	200d883a 	mov	r6,r4
 80011a0:	e17ffb04 	addi	r5,fp,-20
 80011a4:	1809883a 	mov	r4,r3
 80011a8:	800106c0 	call	800106c <gppcu_stat>
 80011ac:	e0bfff17 	ldw	r2,-4(fp)
 80011b0:	10000826 	beq	r2,zero,80011d4 <gppcu_is_done+0x78>
 80011b4:	e0bffd43 	ldbu	r2,-11(fp)
 80011b8:	10c03fcc 	andi	r3,r2,255
 80011bc:	e0bffd03 	ldbu	r2,-12(fp)
 80011c0:	10803fcc 	andi	r2,r2,255
 80011c4:	1885c83a 	sub	r2,r3,r2
 80011c8:	1007883a 	mov	r3,r2
 80011cc:	e0bfff17 	ldw	r2,-4(fp)
 80011d0:	10c0000d 	sth	r3,0(r2)
 80011d4:	e0bffb03 	ldbu	r2,-20(fp)
 80011d8:	e037883a 	mov	sp,fp
 80011dc:	dfc00117 	ldw	ra,4(sp)
 80011e0:	df000017 	ldw	fp,0(sp)
 80011e4:	dec00204 	addi	sp,sp,8
 80011e8:	f800283a 	ret

080011ec <DEPRECATED__gppcu_init>:
 80011ec:	defffa04 	addi	sp,sp,-24
 80011f0:	dfc00515 	stw	ra,20(sp)
 80011f4:	df000415 	stw	fp,16(sp)
 80011f8:	df000404 	addi	fp,sp,16
 80011fc:	e13ffc15 	stw	r4,-16(fp)
 8001200:	e17ffd15 	stw	r5,-12(fp)
 8001204:	e1bffe15 	stw	r6,-8(fp)
 8001208:	e1ffff15 	stw	r7,-4(fp)
 800120c:	e0bffc17 	ldw	r2,-16(fp)
 8001210:	e0fffe17 	ldw	r3,-8(fp)
 8001214:	10c00115 	stw	r3,4(r2)
 8001218:	e0bffe17 	ldw	r2,-8(fp)
 800121c:	1085883a 	add	r2,r2,r2
 8001220:	1085883a 	add	r2,r2,r2
 8001224:	1009883a 	mov	r4,r2
 8001228:	8025d5c0 	call	8025d5c <malloc>
 800122c:	1007883a 	mov	r3,r2
 8001230:	e0bffc17 	ldw	r2,-16(fp)
 8001234:	10c00015 	stw	r3,0(r2)
 8001238:	e0bffc17 	ldw	r2,-16(fp)
 800123c:	10800017 	ldw	r2,0(r2)
 8001240:	10000b1e 	bne	r2,zero,8001270 <DEPRECATED__gppcu_init+0x84>
 8001244:	01c200f4 	movhi	r7,2051
 8001248:	39d9e004 	addi	r7,r7,26496
 800124c:	01801844 	movi	r6,97
 8001250:	014200f4 	movhi	r5,2051
 8001254:	2959e304 	addi	r5,r5,26508
 8001258:	010200f4 	movhi	r4,2051
 800125c:	2119e804 	addi	r4,r4,26528
 8001260:	80270b00 	call	80270b0 <printf>
 8001264:	010200f4 	movhi	r4,2051
 8001268:	2119f304 	addi	r4,r4,26572
 800126c:	80270b00 	call	80270b0 <printf>
 8001270:	e0bffc17 	ldw	r2,-16(fp)
 8001274:	10000215 	stw	zero,8(r2)
 8001278:	e0bffc17 	ldw	r2,-16(fp)
 800127c:	e0fffd17 	ldw	r3,-12(fp)
 8001280:	10c00315 	stw	r3,12(r2)
 8001284:	e0bffc17 	ldw	r2,-16(fp)
 8001288:	10000415 	stw	zero,16(r2)
 800128c:	e0bffc17 	ldw	r2,-16(fp)
 8001290:	10000515 	stw	zero,20(r2)
 8001294:	e0bffc17 	ldw	r2,-16(fp)
 8001298:	10000715 	stw	zero,28(r2)
 800129c:	e0bffc17 	ldw	r2,-16(fp)
 80012a0:	e0ffff17 	ldw	r3,-4(fp)
 80012a4:	10c00815 	stw	r3,32(r2)
 80012a8:	0001883a 	nop
 80012ac:	e037883a 	mov	sp,fp
 80012b0:	dfc00117 	ldw	ra,4(sp)
 80012b4:	df000017 	ldw	fp,0(sp)
 80012b8:	dec00204 	addi	sp,sp,8
 80012bc:	f800283a 	ret

080012c0 <gppcu_init>:
 80012c0:	defffa04 	addi	sp,sp,-24
 80012c4:	dfc00515 	stw	ra,20(sp)
 80012c8:	df000415 	stw	fp,16(sp)
 80012cc:	df000404 	addi	fp,sp,16
 80012d0:	e13ffc15 	stw	r4,-16(fp)
 80012d4:	e17ffd15 	stw	r5,-12(fp)
 80012d8:	e1bffe15 	stw	r6,-8(fp)
 80012dc:	e1ffff15 	stw	r7,-4(fp)
 80012e0:	e0bffc17 	ldw	r2,-16(fp)
 80012e4:	e0fffe17 	ldw	r3,-8(fp)
 80012e8:	10c00115 	stw	r3,4(r2)
 80012ec:	e0bffe17 	ldw	r2,-8(fp)
 80012f0:	1085883a 	add	r2,r2,r2
 80012f4:	1085883a 	add	r2,r2,r2
 80012f8:	1009883a 	mov	r4,r2
 80012fc:	8025d5c0 	call	8025d5c <malloc>
 8001300:	1007883a 	mov	r3,r2
 8001304:	e0bffc17 	ldw	r2,-16(fp)
 8001308:	10c00015 	stw	r3,0(r2)
 800130c:	e0bffc17 	ldw	r2,-16(fp)
 8001310:	10800017 	ldw	r2,0(r2)
 8001314:	10000b1e 	bne	r2,zero,8001344 <gppcu_init+0x84>
 8001318:	01c200f4 	movhi	r7,2051
 800131c:	39d9e004 	addi	r7,r7,26496
 8001320:	01801b84 	movi	r6,110
 8001324:	014200f4 	movhi	r5,2051
 8001328:	2959e304 	addi	r5,r5,26508
 800132c:	010200f4 	movhi	r4,2051
 8001330:	2119e804 	addi	r4,r4,26528
 8001334:	80270b00 	call	80270b0 <printf>
 8001338:	010200f4 	movhi	r4,2051
 800133c:	2119f304 	addi	r4,r4,26572
 8001340:	80270b00 	call	80270b0 <printf>
 8001344:	e0bffc17 	ldw	r2,-16(fp)
 8001348:	10000215 	stw	zero,8(r2)
 800134c:	e0bffc17 	ldw	r2,-16(fp)
 8001350:	e0fffd17 	ldw	r3,-12(fp)
 8001354:	10c00315 	stw	r3,12(r2)
 8001358:	e0bffc17 	ldw	r2,-16(fp)
 800135c:	10000415 	stw	zero,16(r2)
 8001360:	e0bffc17 	ldw	r2,-16(fp)
 8001364:	10000515 	stw	zero,20(r2)
 8001368:	e0bffc17 	ldw	r2,-16(fp)
 800136c:	10000715 	stw	zero,28(r2)
 8001370:	e0bffc17 	ldw	r2,-16(fp)
 8001374:	e0ffff17 	ldw	r3,-4(fp)
 8001378:	10c00815 	stw	r3,32(r2)
 800137c:	e0bffc17 	ldw	r2,-16(fp)
 8001380:	e0c00217 	ldw	r3,8(fp)
 8001384:	10c00b15 	stw	r3,44(r2)
 8001388:	e0bffc17 	ldw	r2,-16(fp)
 800138c:	e0c00417 	ldw	r3,16(fp)
 8001390:	10c00a15 	stw	r3,40(r2)
 8001394:	e0bffc17 	ldw	r2,-16(fp)
 8001398:	e0c00317 	ldw	r3,12(fp)
 800139c:	10c00915 	stw	r3,36(r2)
 80013a0:	0001883a 	nop
 80013a4:	e037883a 	mov	sp,fp
 80013a8:	dfc00117 	ldw	ra,4(sp)
 80013ac:	df000017 	ldw	fp,0(sp)
 80013b0:	dec00204 	addi	sp,sp,8
 80013b4:	f800283a 	ret

080013b8 <gppcu_init_task>:
 80013b8:	defffb04 	addi	sp,sp,-20
 80013bc:	dfc00415 	stw	ra,16(sp)
 80013c0:	df000315 	stw	fp,12(sp)
 80013c4:	df000304 	addi	fp,sp,12
 80013c8:	e13ffd15 	stw	r4,-12(fp)
 80013cc:	2807883a 	mov	r3,r5
 80013d0:	3005883a 	mov	r2,r6
 80013d4:	e0fffe05 	stb	r3,-8(fp)
 80013d8:	e0bfff0d 	sth	r2,-4(fp)
 80013dc:	e0ffff0b 	ldhu	r3,-4(fp)
 80013e0:	e0bffd17 	ldw	r2,-12(fp)
 80013e4:	10c00715 	stw	r3,28(r2)
 80013e8:	e0ffff0b 	ldhu	r3,-4(fp)
 80013ec:	e0bffd17 	ldw	r2,-12(fp)
 80013f0:	10800317 	ldw	r2,12(r2)
 80013f4:	100b883a 	mov	r5,r2
 80013f8:	1809883a 	mov	r4,r3
 80013fc:	8023d540 	call	8023d54 <__divsi3>
 8001400:	10c00044 	addi	r3,r2,1
 8001404:	e0bffd17 	ldw	r2,-12(fp)
 8001408:	10c00415 	stw	r3,16(r2)
 800140c:	e0fffe03 	ldbu	r3,-8(fp)
 8001410:	e0bffd17 	ldw	r2,-12(fp)
 8001414:	10c00515 	stw	r3,20(r2)
 8001418:	e0bffd17 	ldw	r2,-12(fp)
 800141c:	10800817 	ldw	r2,32(r2)
 8001420:	e0fffe03 	ldbu	r3,-8(fp)
 8001424:	180b883a 	mov	r5,r3
 8001428:	1009883a 	mov	r4,r2
 800142c:	8023d540 	call	8023d54 <__divsi3>
 8001430:	1007883a 	mov	r3,r2
 8001434:	e0bffd17 	ldw	r2,-12(fp)
 8001438:	10c00615 	stw	r3,24(r2)
 800143c:	e0ffff0b 	ldhu	r3,-4(fp)
 8001440:	e0bffd17 	ldw	r2,-12(fp)
 8001444:	11000617 	ldw	r4,24(r2)
 8001448:	e0bffd17 	ldw	r2,-12(fp)
 800144c:	10800317 	ldw	r2,12(r2)
 8001450:	2085383a 	mul	r2,r4,r2
 8001454:	18800b16 	blt	r3,r2,8001484 <gppcu_init_task+0xcc>
 8001458:	01c200f4 	movhi	r7,2051
 800145c:	39d9e004 	addi	r7,r7,26496
 8001460:	01802044 	movi	r6,129
 8001464:	014200f4 	movhi	r5,2051
 8001468:	2959f904 	addi	r5,r5,26596
 800146c:	010200f4 	movhi	r4,2051
 8001470:	2119e804 	addi	r4,r4,26528
 8001474:	80270b00 	call	80270b0 <printf>
 8001478:	010200f4 	movhi	r4,2051
 800147c:	211a0504 	addi	r4,r4,26644
 8001480:	80270b00 	call	80270b0 <printf>
 8001484:	0001883a 	nop
 8001488:	e037883a 	mov	sp,fp
 800148c:	dfc00117 	ldw	ra,4(sp)
 8001490:	df000017 	ldw	fp,0(sp)
 8001494:	dec00204 	addi	sp,sp,8
 8001498:	f800283a 	ret

0800149c <gppcu_destroy>:
 800149c:	defffd04 	addi	sp,sp,-12
 80014a0:	dfc00215 	stw	ra,8(sp)
 80014a4:	df000115 	stw	fp,4(sp)
 80014a8:	df000104 	addi	fp,sp,4
 80014ac:	e13fff15 	stw	r4,-4(fp)
 80014b0:	e0bfff17 	ldw	r2,-4(fp)
 80014b4:	10800017 	ldw	r2,0(r2)
 80014b8:	1009883a 	mov	r4,r2
 80014bc:	8025d940 	call	8025d94 <free>
 80014c0:	0001883a 	nop
 80014c4:	e037883a 	mov	sp,fp
 80014c8:	dfc00117 	ldw	ra,4(sp)
 80014cc:	df000017 	ldw	fp,0(sp)
 80014d0:	dec00204 	addi	sp,sp,8
 80014d4:	f800283a 	ret

080014d8 <instr_useregd>:
 80014d8:	defffe04 	addi	sp,sp,-8
 80014dc:	df000115 	stw	fp,4(sp)
 80014e0:	df000104 	addi	fp,sp,4
 80014e4:	2005883a 	mov	r2,r4
 80014e8:	e0bfff05 	stb	r2,-4(fp)
 80014ec:	e0bfff03 	ldbu	r2,-4(fp)
 80014f0:	10c00668 	cmpgeui	r3,r2,25
 80014f4:	1800511e 	bne	r3,zero,800163c <instr_useregd+0x164>
 80014f8:	100690ba 	slli	r3,r2,2
 80014fc:	00820034 	movhi	r2,2048
 8001500:	10854404 	addi	r2,r2,5392
 8001504:	1885883a 	add	r2,r3,r2
 8001508:	10800017 	ldw	r2,0(r2)
 800150c:	1000683a 	jmp	r2
 8001510:	08001574 	orhi	zero,at,85
 8001514:	0800157c 	xorhi	zero,at,85
 8001518:	08001584 	addi	zero,at,86
 800151c:	0800158c 	andi	zero,at,86
 8001520:	08001594 	ori	zero,at,86
 8001524:	0800159c 	xori	zero,at,86
 8001528:	080015a4 	muli	zero,at,86
 800152c:	080015ac 	andhi	zero,at,86
 8001530:	080015b4 	orhi	zero,at,86
 8001534:	080015bc 	xorhi	zero,at,86
 8001538:	080015c4 	addi	zero,at,87
 800153c:	080015cc 	andi	zero,at,87
 8001540:	080015d4 	ori	zero,at,87
 8001544:	080015dc 	xori	zero,at,87
 8001548:	080015e4 	muli	zero,at,87
 800154c:	080015ec 	andhi	zero,at,87
 8001550:	080015f4 	orhi	zero,at,87
 8001554:	080015fc 	xorhi	zero,at,87
 8001558:	08001604 	addi	zero,at,88
 800155c:	0800160c 	andi	zero,at,88
 8001560:	08001614 	ori	zero,at,88
 8001564:	0800161c 	xori	zero,at,88
 8001568:	08001624 	muli	zero,at,88
 800156c:	0800162c 	andhi	zero,at,88
 8001570:	08001634 	orhi	zero,at,88
 8001574:	0005883a 	mov	r2,zero
 8001578:	00003106 	br	8001640 <instr_useregd+0x168>
 800157c:	00800044 	movi	r2,1
 8001580:	00002f06 	br	8001640 <instr_useregd+0x168>
 8001584:	00800044 	movi	r2,1
 8001588:	00002d06 	br	8001640 <instr_useregd+0x168>
 800158c:	00800044 	movi	r2,1
 8001590:	00002b06 	br	8001640 <instr_useregd+0x168>
 8001594:	00800044 	movi	r2,1
 8001598:	00002906 	br	8001640 <instr_useregd+0x168>
 800159c:	00800044 	movi	r2,1
 80015a0:	00002706 	br	8001640 <instr_useregd+0x168>
 80015a4:	00800044 	movi	r2,1
 80015a8:	00002506 	br	8001640 <instr_useregd+0x168>
 80015ac:	00800044 	movi	r2,1
 80015b0:	00002306 	br	8001640 <instr_useregd+0x168>
 80015b4:	00800044 	movi	r2,1
 80015b8:	00002106 	br	8001640 <instr_useregd+0x168>
 80015bc:	00800044 	movi	r2,1
 80015c0:	00001f06 	br	8001640 <instr_useregd+0x168>
 80015c4:	00800044 	movi	r2,1
 80015c8:	00001d06 	br	8001640 <instr_useregd+0x168>
 80015cc:	00800044 	movi	r2,1
 80015d0:	00001b06 	br	8001640 <instr_useregd+0x168>
 80015d4:	00800044 	movi	r2,1
 80015d8:	00001906 	br	8001640 <instr_useregd+0x168>
 80015dc:	00800044 	movi	r2,1
 80015e0:	00001706 	br	8001640 <instr_useregd+0x168>
 80015e4:	00800044 	movi	r2,1
 80015e8:	00001506 	br	8001640 <instr_useregd+0x168>
 80015ec:	00800044 	movi	r2,1
 80015f0:	00001306 	br	8001640 <instr_useregd+0x168>
 80015f4:	00800044 	movi	r2,1
 80015f8:	00001106 	br	8001640 <instr_useregd+0x168>
 80015fc:	00800044 	movi	r2,1
 8001600:	00000f06 	br	8001640 <instr_useregd+0x168>
 8001604:	00800044 	movi	r2,1
 8001608:	00000d06 	br	8001640 <instr_useregd+0x168>
 800160c:	00800044 	movi	r2,1
 8001610:	00000b06 	br	8001640 <instr_useregd+0x168>
 8001614:	0005883a 	mov	r2,zero
 8001618:	00000906 	br	8001640 <instr_useregd+0x168>
 800161c:	00800044 	movi	r2,1
 8001620:	00000706 	br	8001640 <instr_useregd+0x168>
 8001624:	00800044 	movi	r2,1
 8001628:	00000506 	br	8001640 <instr_useregd+0x168>
 800162c:	00800044 	movi	r2,1
 8001630:	00000306 	br	8001640 <instr_useregd+0x168>
 8001634:	0005883a 	mov	r2,zero
 8001638:	00000106 	br	8001640 <instr_useregd+0x168>
 800163c:	0005883a 	mov	r2,zero
 8001640:	e037883a 	mov	sp,fp
 8001644:	df000017 	ldw	fp,0(sp)
 8001648:	dec00104 	addi	sp,sp,4
 800164c:	f800283a 	ret

08001650 <instr_userega>:
 8001650:	defffe04 	addi	sp,sp,-8
 8001654:	df000115 	stw	fp,4(sp)
 8001658:	df000104 	addi	fp,sp,4
 800165c:	2005883a 	mov	r2,r4
 8001660:	e0bfff05 	stb	r2,-4(fp)
 8001664:	e0bfff03 	ldbu	r2,-4(fp)
 8001668:	10c00668 	cmpgeui	r3,r2,25
 800166c:	1800511e 	bne	r3,zero,80017b4 <instr_userega+0x164>
 8001670:	100690ba 	slli	r3,r2,2
 8001674:	00820034 	movhi	r2,2048
 8001678:	1085a204 	addi	r2,r2,5768
 800167c:	1885883a 	add	r2,r3,r2
 8001680:	10800017 	ldw	r2,0(r2)
 8001684:	1000683a 	jmp	r2
 8001688:	080016ec 	andhi	zero,at,91
 800168c:	080016f4 	orhi	zero,at,91
 8001690:	080016fc 	xorhi	zero,at,91
 8001694:	08001704 	addi	zero,at,92
 8001698:	0800170c 	andi	zero,at,92
 800169c:	08001714 	ori	zero,at,92
 80016a0:	0800171c 	xori	zero,at,92
 80016a4:	08001724 	muli	zero,at,92
 80016a8:	0800172c 	andhi	zero,at,92
 80016ac:	08001734 	orhi	zero,at,92
 80016b0:	0800173c 	xorhi	zero,at,92
 80016b4:	08001744 	addi	zero,at,93
 80016b8:	0800174c 	andi	zero,at,93
 80016bc:	08001754 	ori	zero,at,93
 80016c0:	0800175c 	xori	zero,at,93
 80016c4:	08001764 	muli	zero,at,93
 80016c8:	0800176c 	andhi	zero,at,93
 80016cc:	08001774 	orhi	zero,at,93
 80016d0:	0800177c 	xorhi	zero,at,93
 80016d4:	08001784 	addi	zero,at,94
 80016d8:	0800178c 	andi	zero,at,94
 80016dc:	08001794 	ori	zero,at,94
 80016e0:	0800179c 	xori	zero,at,94
 80016e4:	080017a4 	muli	zero,at,94
 80016e8:	080017ac 	andhi	zero,at,94
 80016ec:	0005883a 	mov	r2,zero
 80016f0:	00003106 	br	80017b8 <instr_userega+0x168>
 80016f4:	0005883a 	mov	r2,zero
 80016f8:	00002f06 	br	80017b8 <instr_userega+0x168>
 80016fc:	0005883a 	mov	r2,zero
 8001700:	00002d06 	br	80017b8 <instr_userega+0x168>
 8001704:	00800044 	movi	r2,1
 8001708:	00002b06 	br	80017b8 <instr_userega+0x168>
 800170c:	00800044 	movi	r2,1
 8001710:	00002906 	br	80017b8 <instr_userega+0x168>
 8001714:	00800044 	movi	r2,1
 8001718:	00002706 	br	80017b8 <instr_userega+0x168>
 800171c:	00800044 	movi	r2,1
 8001720:	00002506 	br	80017b8 <instr_userega+0x168>
 8001724:	00800044 	movi	r2,1
 8001728:	00002306 	br	80017b8 <instr_userega+0x168>
 800172c:	00800044 	movi	r2,1
 8001730:	00002106 	br	80017b8 <instr_userega+0x168>
 8001734:	00800044 	movi	r2,1
 8001738:	00001f06 	br	80017b8 <instr_userega+0x168>
 800173c:	0005883a 	mov	r2,zero
 8001740:	00001d06 	br	80017b8 <instr_userega+0x168>
 8001744:	00800044 	movi	r2,1
 8001748:	00001b06 	br	80017b8 <instr_userega+0x168>
 800174c:	00800044 	movi	r2,1
 8001750:	00001906 	br	80017b8 <instr_userega+0x168>
 8001754:	00800044 	movi	r2,1
 8001758:	00001706 	br	80017b8 <instr_userega+0x168>
 800175c:	00800044 	movi	r2,1
 8001760:	00001506 	br	80017b8 <instr_userega+0x168>
 8001764:	00800044 	movi	r2,1
 8001768:	00001306 	br	80017b8 <instr_userega+0x168>
 800176c:	00800044 	movi	r2,1
 8001770:	00001106 	br	80017b8 <instr_userega+0x168>
 8001774:	00800044 	movi	r2,1
 8001778:	00000f06 	br	80017b8 <instr_userega+0x168>
 800177c:	00800044 	movi	r2,1
 8001780:	00000d06 	br	80017b8 <instr_userega+0x168>
 8001784:	00800044 	movi	r2,1
 8001788:	00000b06 	br	80017b8 <instr_userega+0x168>
 800178c:	00800044 	movi	r2,1
 8001790:	00000906 	br	80017b8 <instr_userega+0x168>
 8001794:	00800044 	movi	r2,1
 8001798:	00000706 	br	80017b8 <instr_userega+0x168>
 800179c:	00800044 	movi	r2,1
 80017a0:	00000506 	br	80017b8 <instr_userega+0x168>
 80017a4:	0005883a 	mov	r2,zero
 80017a8:	00000306 	br	80017b8 <instr_userega+0x168>
 80017ac:	00800044 	movi	r2,1
 80017b0:	00000106 	br	80017b8 <instr_userega+0x168>
 80017b4:	0005883a 	mov	r2,zero
 80017b8:	e037883a 	mov	sp,fp
 80017bc:	df000017 	ldw	fp,0(sp)
 80017c0:	dec00104 	addi	sp,sp,4
 80017c4:	f800283a 	ret

080017c8 <instr_useregb>:
 80017c8:	defffe04 	addi	sp,sp,-8
 80017cc:	df000115 	stw	fp,4(sp)
 80017d0:	df000104 	addi	fp,sp,4
 80017d4:	2005883a 	mov	r2,r4
 80017d8:	e0bfff05 	stb	r2,-4(fp)
 80017dc:	e0bfff03 	ldbu	r2,-4(fp)
 80017e0:	10c00668 	cmpgeui	r3,r2,25
 80017e4:	1800511e 	bne	r3,zero,800192c <instr_useregb+0x164>
 80017e8:	100690ba 	slli	r3,r2,2
 80017ec:	00820034 	movhi	r2,2048
 80017f0:	10860004 	addi	r2,r2,6144
 80017f4:	1885883a 	add	r2,r3,r2
 80017f8:	10800017 	ldw	r2,0(r2)
 80017fc:	1000683a 	jmp	r2
 8001800:	08001864 	muli	zero,at,97
 8001804:	0800186c 	andhi	zero,at,97
 8001808:	08001874 	orhi	zero,at,97
 800180c:	0800187c 	xorhi	zero,at,97
 8001810:	08001884 	addi	zero,at,98
 8001814:	0800188c 	andi	zero,at,98
 8001818:	08001894 	ori	zero,at,98
 800181c:	0800189c 	xori	zero,at,98
 8001820:	080018a4 	muli	zero,at,98
 8001824:	080018ac 	andhi	zero,at,98
 8001828:	080018b4 	orhi	zero,at,98
 800182c:	080018bc 	xorhi	zero,at,98
 8001830:	080018c4 	addi	zero,at,99
 8001834:	080018cc 	andi	zero,at,99
 8001838:	080018d4 	ori	zero,at,99
 800183c:	080018dc 	xori	zero,at,99
 8001840:	080018e4 	muli	zero,at,99
 8001844:	080018ec 	andhi	zero,at,99
 8001848:	080018f4 	orhi	zero,at,99
 800184c:	080018fc 	xorhi	zero,at,99
 8001850:	08001904 	addi	zero,at,100
 8001854:	0800190c 	andi	zero,at,100
 8001858:	08001914 	ori	zero,at,100
 800185c:	0800191c 	xori	zero,at,100
 8001860:	08001924 	muli	zero,at,100
 8001864:	0005883a 	mov	r2,zero
 8001868:	00003106 	br	8001930 <instr_useregb+0x168>
 800186c:	00800044 	movi	r2,1
 8001870:	00002f06 	br	8001930 <instr_useregb+0x168>
 8001874:	00800044 	movi	r2,1
 8001878:	00002d06 	br	8001930 <instr_useregb+0x168>
 800187c:	00800044 	movi	r2,1
 8001880:	00002b06 	br	8001930 <instr_useregb+0x168>
 8001884:	00800044 	movi	r2,1
 8001888:	00002906 	br	8001930 <instr_useregb+0x168>
 800188c:	00800044 	movi	r2,1
 8001890:	00002706 	br	8001930 <instr_useregb+0x168>
 8001894:	00800044 	movi	r2,1
 8001898:	00002506 	br	8001930 <instr_useregb+0x168>
 800189c:	00800044 	movi	r2,1
 80018a0:	00002306 	br	8001930 <instr_useregb+0x168>
 80018a4:	0005883a 	mov	r2,zero
 80018a8:	00002106 	br	8001930 <instr_useregb+0x168>
 80018ac:	0005883a 	mov	r2,zero
 80018b0:	00001f06 	br	8001930 <instr_useregb+0x168>
 80018b4:	0005883a 	mov	r2,zero
 80018b8:	00001d06 	br	8001930 <instr_useregb+0x168>
 80018bc:	0005883a 	mov	r2,zero
 80018c0:	00001b06 	br	8001930 <instr_useregb+0x168>
 80018c4:	0005883a 	mov	r2,zero
 80018c8:	00001906 	br	8001930 <instr_useregb+0x168>
 80018cc:	0005883a 	mov	r2,zero
 80018d0:	00001706 	br	8001930 <instr_useregb+0x168>
 80018d4:	0005883a 	mov	r2,zero
 80018d8:	00001506 	br	8001930 <instr_useregb+0x168>
 80018dc:	0005883a 	mov	r2,zero
 80018e0:	00001306 	br	8001930 <instr_useregb+0x168>
 80018e4:	00800044 	movi	r2,1
 80018e8:	00001106 	br	8001930 <instr_useregb+0x168>
 80018ec:	00800044 	movi	r2,1
 80018f0:	00000f06 	br	8001930 <instr_useregb+0x168>
 80018f4:	00800044 	movi	r2,1
 80018f8:	00000d06 	br	8001930 <instr_useregb+0x168>
 80018fc:	00800044 	movi	r2,1
 8001900:	00000b06 	br	8001930 <instr_useregb+0x168>
 8001904:	0005883a 	mov	r2,zero
 8001908:	00000906 	br	8001930 <instr_useregb+0x168>
 800190c:	0005883a 	mov	r2,zero
 8001910:	00000706 	br	8001930 <instr_useregb+0x168>
 8001914:	00800044 	movi	r2,1
 8001918:	00000506 	br	8001930 <instr_useregb+0x168>
 800191c:	0005883a 	mov	r2,zero
 8001920:	00000306 	br	8001930 <instr_useregb+0x168>
 8001924:	00800044 	movi	r2,1
 8001928:	00000106 	br	8001930 <instr_useregb+0x168>
 800192c:	0005883a 	mov	r2,zero
 8001930:	e037883a 	mov	sp,fp
 8001934:	df000017 	ldw	fp,0(sp)
 8001938:	dec00104 	addi	sp,sp,4
 800193c:	f800283a 	ret

08001940 <DEPRECATED__gppcu_program_autofeed_device>:
 8001940:	defffa04 	addi	sp,sp,-24
 8001944:	dfc00515 	stw	ra,20(sp)
 8001948:	df000415 	stw	fp,16(sp)
 800194c:	df000404 	addi	fp,sp,16
 8001950:	e13fff15 	stw	r4,-4(fp)
 8001954:	e0bfff17 	ldw	r2,-4(fp)
 8001958:	10800017 	ldw	r2,0(r2)
 800195c:	e0bffc15 	stw	r2,-16(fp)
 8001960:	e0bfff17 	ldw	r2,-4(fp)
 8001964:	10c00017 	ldw	r3,0(r2)
 8001968:	e0bfff17 	ldw	r2,-4(fp)
 800196c:	10800217 	ldw	r2,8(r2)
 8001970:	1085883a 	add	r2,r2,r2
 8001974:	1085883a 	add	r2,r2,r2
 8001978:	1885883a 	add	r2,r3,r2
 800197c:	e0bffd15 	stw	r2,-12(fp)
 8001980:	e0bfff17 	ldw	r2,-4(fp)
 8001984:	10800b17 	ldw	r2,44(r2)
 8001988:	000d883a 	mov	r6,zero
 800198c:	014000c4 	movi	r5,3
 8001990:	1009883a 	mov	r4,r2
 8001994:	8000fec0 	call	8000fec <gppcu_device_command>
 8001998:	e0bfff17 	ldw	r2,-4(fp)
 800199c:	10c00b17 	ldw	r3,44(r2)
 80019a0:	e0bfff17 	ldw	r2,-4(fp)
 80019a4:	10800517 	ldw	r2,20(r2)
 80019a8:	10bfffcc 	andi	r2,r2,65535
 80019ac:	100d883a 	mov	r6,r2
 80019b0:	01400084 	movi	r5,2
 80019b4:	1809883a 	mov	r4,r3
 80019b8:	8000fec0 	call	8000fec <gppcu_device_command>
 80019bc:	e0bfff17 	ldw	r2,-4(fp)
 80019c0:	10c00b17 	ldw	r3,44(r2)
 80019c4:	e0bfff17 	ldw	r2,-4(fp)
 80019c8:	10800417 	ldw	r2,16(r2)
 80019cc:	10bfffcc 	andi	r2,r2,65535
 80019d0:	100d883a 	mov	r6,r2
 80019d4:	01400044 	movi	r5,1
 80019d8:	1809883a 	mov	r4,r3
 80019dc:	8000fec0 	call	8000fec <gppcu_device_command>
 80019e0:	00001d06 	br	8001a58 <DEPRECATED__gppcu_program_autofeed_device+0x118>
 80019e4:	e0bffc17 	ldw	r2,-16(fp)
 80019e8:	10c00104 	addi	r3,r2,4
 80019ec:	e0fffc15 	stw	r3,-16(fp)
 80019f0:	10800017 	ldw	r2,0(r2)
 80019f4:	e0bffe15 	stw	r2,-8(fp)
 80019f8:	e0bfff17 	ldw	r2,-4(fp)
 80019fc:	10c00b17 	ldw	r3,44(r2)
 8001a00:	e0bfff17 	ldw	r2,-4(fp)
 8001a04:	10800917 	ldw	r2,36(r2)
 8001a08:	000d883a 	mov	r6,zero
 8001a0c:	100b883a 	mov	r5,r2
 8001a10:	1809883a 	mov	r4,r3
 8001a14:	8000e080 	call	8000e08 <gppcu_push_instr>
 8001a18:	e0bfff17 	ldw	r2,-4(fp)
 8001a1c:	10c00b17 	ldw	r3,44(r2)
 8001a20:	e0bfff17 	ldw	r2,-4(fp)
 8001a24:	10800917 	ldw	r2,36(r2)
 8001a28:	000d883a 	mov	r6,zero
 8001a2c:	100b883a 	mov	r5,r2
 8001a30:	1809883a 	mov	r4,r3
 8001a34:	8000e080 	call	8000e08 <gppcu_push_instr>
 8001a38:	e0bfff17 	ldw	r2,-4(fp)
 8001a3c:	10c00b17 	ldw	r3,44(r2)
 8001a40:	e0bfff17 	ldw	r2,-4(fp)
 8001a44:	10800917 	ldw	r2,36(r2)
 8001a48:	e1bffe17 	ldw	r6,-8(fp)
 8001a4c:	100b883a 	mov	r5,r2
 8001a50:	1809883a 	mov	r4,r3
 8001a54:	8000e080 	call	8000e08 <gppcu_push_instr>
 8001a58:	e0fffc17 	ldw	r3,-16(fp)
 8001a5c:	e0bffd17 	ldw	r2,-12(fp)
 8001a60:	18bfe036 	bltu	r3,r2,80019e4 <__alt_data_end+0xf80019e4>
 8001a64:	0001883a 	nop
 8001a68:	e037883a 	mov	sp,fp
 8001a6c:	dfc00117 	ldw	ra,4(sp)
 8001a70:	df000017 	ldw	fp,0(sp)
 8001a74:	dec00204 	addi	sp,sp,8
 8001a78:	f800283a 	ret

08001a7c <instr_to_string>:
 8001a7c:	defff204 	addi	sp,sp,-56
 8001a80:	dfc00d15 	stw	ra,52(sp)
 8001a84:	df000c15 	stw	fp,48(sp)
 8001a88:	df000c04 	addi	fp,sp,48
 8001a8c:	e13ffe15 	stw	r4,-8(fp)
 8001a90:	e17fff15 	stw	r5,-4(fp)
 8001a94:	e0bffe17 	ldw	r2,-8(fp)
 8001a98:	e0bff415 	stw	r2,-48(fp)
 8001a9c:	00800104 	movi	r2,4
 8001aa0:	e0bff715 	stw	r2,-36(fp)
 8001aa4:	00800144 	movi	r2,5
 8001aa8:	e0bff815 	stw	r2,-32(fp)
 8001aac:	00800044 	movi	r2,1
 8001ab0:	e0bff915 	stw	r2,-28(fp)
 8001ab4:	00800144 	movi	r2,5
 8001ab8:	e0bffa15 	stw	r2,-24(fp)
 8001abc:	00800144 	movi	r2,5
 8001ac0:	e0bffb15 	stw	r2,-20(fp)
 8001ac4:	008001c4 	movi	r2,7
 8001ac8:	e0bffc15 	stw	r2,-16(fp)
 8001acc:	00800144 	movi	r2,5
 8001ad0:	e0bffd15 	stw	r2,-12(fp)
 8001ad4:	01801004 	movi	r6,64
 8001ad8:	01400c04 	movi	r5,48
 8001adc:	e13ffe17 	ldw	r4,-8(fp)
 8001ae0:	8026e880 	call	8026e88 <memset>
 8001ae4:	e0bff704 	addi	r2,fp,-36
 8001ae8:	e0bff515 	stw	r2,-44(fp)
 8001aec:	00800804 	movi	r2,32
 8001af0:	e0bff615 	stw	r2,-40(fp)
 8001af4:	00001c06 	br	8001b68 <instr_to_string+0xec>
 8001af8:	e0bff417 	ldw	r2,-48(fp)
 8001afc:	10c00044 	addi	r3,r2,1
 8001b00:	e0fff415 	stw	r3,-48(fp)
 8001b04:	e0ffff17 	ldw	r3,-4(fp)
 8001b08:	1800020e 	bge	r3,zero,8001b14 <instr_to_string+0x98>
 8001b0c:	00c00c44 	movi	r3,49
 8001b10:	00000106 	br	8001b18 <instr_to_string+0x9c>
 8001b14:	00c00c04 	movi	r3,48
 8001b18:	10c00005 	stb	r3,0(r2)
 8001b1c:	e0bfff17 	ldw	r2,-4(fp)
 8001b20:	1085883a 	add	r2,r2,r2
 8001b24:	e0bfff15 	stw	r2,-4(fp)
 8001b28:	e0bff517 	ldw	r2,-44(fp)
 8001b2c:	10800017 	ldw	r2,0(r2)
 8001b30:	10ffffc4 	addi	r3,r2,-1
 8001b34:	e0bff517 	ldw	r2,-44(fp)
 8001b38:	10c00015 	stw	r3,0(r2)
 8001b3c:	e0bff517 	ldw	r2,-44(fp)
 8001b40:	10800017 	ldw	r2,0(r2)
 8001b44:	1000081e 	bne	r2,zero,8001b68 <instr_to_string+0xec>
 8001b48:	e0bff517 	ldw	r2,-44(fp)
 8001b4c:	10800104 	addi	r2,r2,4
 8001b50:	e0bff515 	stw	r2,-44(fp)
 8001b54:	e0bff417 	ldw	r2,-48(fp)
 8001b58:	10c00044 	addi	r3,r2,1
 8001b5c:	e0fff415 	stw	r3,-48(fp)
 8001b60:	00c00804 	movi	r3,32
 8001b64:	10c00005 	stb	r3,0(r2)
 8001b68:	e0bff617 	ldw	r2,-40(fp)
 8001b6c:	10ffffc4 	addi	r3,r2,-1
 8001b70:	e0fff615 	stw	r3,-40(fp)
 8001b74:	103fe01e 	bne	r2,zero,8001af8 <__alt_data_end+0xf8001af8>
 8001b78:	e0bff417 	ldw	r2,-48(fp)
 8001b7c:	10c00044 	addi	r3,r2,1
 8001b80:	e0fff415 	stw	r3,-48(fp)
 8001b84:	10000005 	stb	zero,0(r2)
 8001b88:	e0bff417 	ldw	r2,-48(fp)
 8001b8c:	e037883a 	mov	sp,fp
 8001b90:	dfc00117 	ldw	ra,4(sp)
 8001b94:	df000017 	ldw	fp,0(sp)
 8001b98:	dec00204 	addi	sp,sp,8
 8001b9c:	f800283a 	ret

08001ba0 <gppcu_program_autofeed_device_parallel>:
 8001ba0:	deffd304 	addi	sp,sp,-180
 8001ba4:	dfc02c15 	stw	ra,176(sp)
 8001ba8:	df002b15 	stw	fp,172(sp)
 8001bac:	dc002a15 	stw	r16,168(sp)
 8001bb0:	df002b04 	addi	fp,sp,172
 8001bb4:	e13ffe15 	stw	r4,-8(fp)
 8001bb8:	e0bffe17 	ldw	r2,-8(fp)
 8001bbc:	10800017 	ldw	r2,0(r2)
 8001bc0:	e0bfd615 	stw	r2,-168(fp)
 8001bc4:	e0bffe17 	ldw	r2,-8(fp)
 8001bc8:	10c00017 	ldw	r3,0(r2)
 8001bcc:	e0bffe17 	ldw	r2,-8(fp)
 8001bd0:	10800217 	ldw	r2,8(r2)
 8001bd4:	1085883a 	add	r2,r2,r2
 8001bd8:	1085883a 	add	r2,r2,r2
 8001bdc:	1885883a 	add	r2,r3,r2
 8001be0:	e0bfd715 	stw	r2,-164(fp)
 8001be4:	e0bffe17 	ldw	r2,-8(fp)
 8001be8:	10800b17 	ldw	r2,44(r2)
 8001bec:	000d883a 	mov	r6,zero
 8001bf0:	014000c4 	movi	r5,3
 8001bf4:	1009883a 	mov	r4,r2
 8001bf8:	8000fec0 	call	8000fec <gppcu_device_command>
 8001bfc:	e0bffe17 	ldw	r2,-8(fp)
 8001c00:	11000b17 	ldw	r4,44(r2)
 8001c04:	e0bffe17 	ldw	r2,-8(fp)
 8001c08:	10800517 	ldw	r2,20(r2)
 8001c0c:	1007883a 	mov	r3,r2
 8001c10:	1805883a 	mov	r2,r3
 8001c14:	1085883a 	add	r2,r2,r2
 8001c18:	10c5883a 	add	r2,r2,r3
 8001c1c:	10bfffcc 	andi	r2,r2,65535
 8001c20:	100d883a 	mov	r6,r2
 8001c24:	01400084 	movi	r5,2
 8001c28:	8000fec0 	call	8000fec <gppcu_device_command>
 8001c2c:	e0bffe17 	ldw	r2,-8(fp)
 8001c30:	14000b17 	ldw	r16,44(r2)
 8001c34:	e0bffe17 	ldw	r2,-8(fp)
 8001c38:	10800417 	ldw	r2,16(r2)
 8001c3c:	10800084 	addi	r2,r2,2
 8001c40:	014000c4 	movi	r5,3
 8001c44:	1009883a 	mov	r4,r2
 8001c48:	8023d540 	call	8023d54 <__divsi3>
 8001c4c:	10bfffcc 	andi	r2,r2,65535
 8001c50:	100d883a 	mov	r6,r2
 8001c54:	01400044 	movi	r5,1
 8001c58:	8009883a 	mov	r4,r16
 8001c5c:	8000fec0 	call	8000fec <gppcu_device_command>
 8001c60:	e0bffe17 	ldw	r2,-8(fp)
 8001c64:	10c00b17 	ldw	r3,44(r2)
 8001c68:	e0bffe17 	ldw	r2,-8(fp)
 8001c6c:	10800917 	ldw	r2,36(r2)
 8001c70:	000d883a 	mov	r6,zero
 8001c74:	100b883a 	mov	r5,r2
 8001c78:	1809883a 	mov	r4,r3
 8001c7c:	8000e080 	call	8000e08 <gppcu_push_instr>
 8001c80:	e0bffe17 	ldw	r2,-8(fp)
 8001c84:	10c00b17 	ldw	r3,44(r2)
 8001c88:	e0bffe17 	ldw	r2,-8(fp)
 8001c8c:	10800917 	ldw	r2,36(r2)
 8001c90:	000d883a 	mov	r6,zero
 8001c94:	100b883a 	mov	r5,r2
 8001c98:	1809883a 	mov	r4,r3
 8001c9c:	8000e080 	call	8000e08 <gppcu_push_instr>
 8001ca0:	e0bffe17 	ldw	r2,-8(fp)
 8001ca4:	10c00b17 	ldw	r3,44(r2)
 8001ca8:	e0bffe17 	ldw	r2,-8(fp)
 8001cac:	11000917 	ldw	r4,36(r2)
 8001cb0:	00800244 	movi	r2,9
 8001cb4:	10803fcc 	andi	r2,r2,255
 8001cb8:	1004947a 	slli	r2,r2,17
 8001cbc:	1082e034 	orhi	r2,r2,2944
 8001cc0:	100d883a 	mov	r6,r2
 8001cc4:	200b883a 	mov	r5,r4
 8001cc8:	1809883a 	mov	r4,r3
 8001ccc:	8000e080 	call	8000e08 <gppcu_push_instr>
 8001cd0:	e0bffe17 	ldw	r2,-8(fp)
 8001cd4:	10c00b17 	ldw	r3,44(r2)
 8001cd8:	e0bffe17 	ldw	r2,-8(fp)
 8001cdc:	10800917 	ldw	r2,36(r2)
 8001ce0:	000d883a 	mov	r6,zero
 8001ce4:	100b883a 	mov	r5,r2
 8001ce8:	1809883a 	mov	r4,r3
 8001cec:	8000e080 	call	8000e08 <gppcu_push_instr>
 8001cf0:	e0bffe17 	ldw	r2,-8(fp)
 8001cf4:	10c00b17 	ldw	r3,44(r2)
 8001cf8:	e0bffe17 	ldw	r2,-8(fp)
 8001cfc:	10800917 	ldw	r2,36(r2)
 8001d00:	000d883a 	mov	r6,zero
 8001d04:	100b883a 	mov	r5,r2
 8001d08:	1809883a 	mov	r4,r3
 8001d0c:	8000e080 	call	8000e08 <gppcu_push_instr>
 8001d10:	e03fd515 	stw	zero,-172(fp)
 8001d14:	00001e06 	br	8001d90 <gppcu_program_autofeed_device_parallel+0x1f0>
 8001d18:	e0bffe17 	ldw	r2,-8(fp)
 8001d1c:	11c00b17 	ldw	r7,44(r2)
 8001d20:	e0bffe17 	ldw	r2,-8(fp)
 8001d24:	11400917 	ldw	r5,36(r2)
 8001d28:	00800244 	movi	r2,9
 8001d2c:	10c03fcc 	andi	r3,r2,255
 8001d30:	e0bfd517 	ldw	r2,-172(fp)
 8001d34:	10800044 	addi	r2,r2,1
 8001d38:	108002a4 	muli	r2,r2,10
 8001d3c:	1885883a 	add	r2,r3,r2
 8001d40:	1004947a 	slli	r2,r2,17
 8001d44:	1007883a 	mov	r3,r2
 8001d48:	00800244 	movi	r2,9
 8001d4c:	10803fcc 	andi	r2,r2,255
 8001d50:	1004933a 	slli	r2,r2,12
 8001d54:	1886b03a 	or	r3,r3,r2
 8001d58:	e0bffe17 	ldw	r2,-8(fp)
 8001d5c:	11000517 	ldw	r4,20(r2)
 8001d60:	e0bfd517 	ldw	r2,-172(fp)
 8001d64:	10800044 	addi	r2,r2,1
 8001d68:	2085383a 	mul	r2,r4,r2
 8001d6c:	1083ffcc 	andi	r2,r2,4095
 8001d70:	1884b03a 	or	r2,r3,r2
 8001d74:	10810034 	orhi	r2,r2,1024
 8001d78:	100d883a 	mov	r6,r2
 8001d7c:	3809883a 	mov	r4,r7
 8001d80:	8000e080 	call	8000e08 <gppcu_push_instr>
 8001d84:	e0bfd517 	ldw	r2,-172(fp)
 8001d88:	10800044 	addi	r2,r2,1
 8001d8c:	e0bfd515 	stw	r2,-172(fp)
 8001d90:	e0bfd517 	ldw	r2,-172(fp)
 8001d94:	108000d0 	cmplti	r2,r2,3
 8001d98:	103fdf1e 	bne	r2,zero,8001d18 <__alt_data_end+0xf8001d18>
 8001d9c:	e0bffe17 	ldw	r2,-8(fp)
 8001da0:	10c00b17 	ldw	r3,44(r2)
 8001da4:	e0bffe17 	ldw	r2,-8(fp)
 8001da8:	10800917 	ldw	r2,36(r2)
 8001dac:	000d883a 	mov	r6,zero
 8001db0:	100b883a 	mov	r5,r2
 8001db4:	1809883a 	mov	r4,r3
 8001db8:	8000e080 	call	8000e08 <gppcu_push_instr>
 8001dbc:	e0bffe17 	ldw	r2,-8(fp)
 8001dc0:	10c00b17 	ldw	r3,44(r2)
 8001dc4:	e0bffe17 	ldw	r2,-8(fp)
 8001dc8:	10800917 	ldw	r2,36(r2)
 8001dcc:	000d883a 	mov	r6,zero
 8001dd0:	100b883a 	mov	r5,r2
 8001dd4:	1809883a 	mov	r4,r3
 8001dd8:	8000e080 	call	8000e08 <gppcu_push_instr>
 8001ddc:	00006b06 	br	8001f8c <gppcu_program_autofeed_device_parallel+0x3ec>
 8001de0:	e0bfd617 	ldw	r2,-168(fp)
 8001de4:	10c00104 	addi	r3,r2,4
 8001de8:	e0ffd615 	stw	r3,-168(fp)
 8001dec:	10800017 	ldw	r2,0(r2)
 8001df0:	e0bfd815 	stw	r2,-160(fp)
 8001df4:	e0bfd817 	ldw	r2,-160(fp)
 8001df8:	1004d5fa 	srli	r2,r2,23
 8001dfc:	108007cc 	andi	r2,r2,31
 8001e00:	e0bfd905 	stb	r2,-156(fp)
 8001e04:	e0bfd903 	ldbu	r2,-156(fp)
 8001e08:	1000091e 	bne	r2,zero,8001e30 <gppcu_program_autofeed_device_parallel+0x290>
 8001e0c:	e0bffe17 	ldw	r2,-8(fp)
 8001e10:	10c00b17 	ldw	r3,44(r2)
 8001e14:	e0bffe17 	ldw	r2,-8(fp)
 8001e18:	10800917 	ldw	r2,36(r2)
 8001e1c:	000d883a 	mov	r6,zero
 8001e20:	100b883a 	mov	r5,r2
 8001e24:	1809883a 	mov	r4,r3
 8001e28:	8000e080 	call	8000e08 <gppcu_push_instr>
 8001e2c:	00005706 	br	8001f8c <gppcu_program_autofeed_device_parallel+0x3ec>
 8001e30:	e03fd515 	stw	zero,-172(fp)
 8001e34:	00004306 	br	8001f44 <gppcu_program_autofeed_device_parallel+0x3a4>
 8001e38:	e0bfd517 	ldw	r2,-172(fp)
 8001e3c:	1085883a 	add	r2,r2,r2
 8001e40:	1085883a 	add	r2,r2,r2
 8001e44:	1007883a 	mov	r3,r2
 8001e48:	e0bfdc04 	addi	r2,fp,-144
 8001e4c:	10c5883a 	add	r2,r2,r3
 8001e50:	e0bfda15 	stw	r2,-152(fp)
 8001e54:	e0bfd517 	ldw	r2,-172(fp)
 8001e58:	108002a4 	muli	r2,r2,10
 8001e5c:	e0bfdb05 	stb	r2,-148(fp)
 8001e60:	e0bfda17 	ldw	r2,-152(fp)
 8001e64:	e0ffd817 	ldw	r3,-160(fp)
 8001e68:	10c00015 	stw	r3,0(r2)
 8001e6c:	e0bfd903 	ldbu	r2,-156(fp)
 8001e70:	1009883a 	mov	r4,r2
 8001e74:	80016500 	call	8001650 <instr_userega>
 8001e78:	10803fcc 	andi	r2,r2,255
 8001e7c:	10000726 	beq	r2,zero,8001e9c <gppcu_program_autofeed_device_parallel+0x2fc>
 8001e80:	e0bfda17 	ldw	r2,-152(fp)
 8001e84:	10800017 	ldw	r2,0(r2)
 8001e88:	e0ffdb03 	ldbu	r3,-148(fp)
 8001e8c:	1806933a 	slli	r3,r3,12
 8001e90:	10c7883a 	add	r3,r2,r3
 8001e94:	e0bfda17 	ldw	r2,-152(fp)
 8001e98:	10c00015 	stw	r3,0(r2)
 8001e9c:	e0bfd903 	ldbu	r2,-156(fp)
 8001ea0:	1009883a 	mov	r4,r2
 8001ea4:	80017c80 	call	80017c8 <instr_useregb>
 8001ea8:	10803fcc 	andi	r2,r2,255
 8001eac:	10000626 	beq	r2,zero,8001ec8 <gppcu_program_autofeed_device_parallel+0x328>
 8001eb0:	e0bfda17 	ldw	r2,-152(fp)
 8001eb4:	10c00017 	ldw	r3,0(r2)
 8001eb8:	e0bfdb03 	ldbu	r2,-148(fp)
 8001ebc:	1887883a 	add	r3,r3,r2
 8001ec0:	e0bfda17 	ldw	r2,-152(fp)
 8001ec4:	10c00015 	stw	r3,0(r2)
 8001ec8:	e0bfd903 	ldbu	r2,-156(fp)
 8001ecc:	1009883a 	mov	r4,r2
 8001ed0:	80014d80 	call	80014d8 <instr_useregd>
 8001ed4:	10803fcc 	andi	r2,r2,255
 8001ed8:	10000726 	beq	r2,zero,8001ef8 <gppcu_program_autofeed_device_parallel+0x358>
 8001edc:	e0bfda17 	ldw	r2,-152(fp)
 8001ee0:	10800017 	ldw	r2,0(r2)
 8001ee4:	e0ffdb03 	ldbu	r3,-148(fp)
 8001ee8:	1806947a 	slli	r3,r3,17
 8001eec:	10c7883a 	add	r3,r2,r3
 8001ef0:	e0bfda17 	ldw	r2,-152(fp)
 8001ef4:	10c00015 	stw	r3,0(r2)
 8001ef8:	e0bffe17 	ldw	r2,-8(fp)
 8001efc:	10c00b17 	ldw	r3,44(r2)
 8001f00:	e0bffe17 	ldw	r2,-8(fp)
 8001f04:	11000917 	ldw	r4,36(r2)
 8001f08:	e0bfda17 	ldw	r2,-152(fp)
 8001f0c:	10800017 	ldw	r2,0(r2)
 8001f10:	100d883a 	mov	r6,r2
 8001f14:	200b883a 	mov	r5,r4
 8001f18:	1809883a 	mov	r4,r3
 8001f1c:	8000e080 	call	8000e08 <gppcu_push_instr>
 8001f20:	e0bfda17 	ldw	r2,-152(fp)
 8001f24:	10c00017 	ldw	r3,0(r2)
 8001f28:	e0bfdf04 	addi	r2,fp,-132
 8001f2c:	180b883a 	mov	r5,r3
 8001f30:	1009883a 	mov	r4,r2
 8001f34:	8001a7c0 	call	8001a7c <instr_to_string>
 8001f38:	e0bfd517 	ldw	r2,-172(fp)
 8001f3c:	10800044 	addi	r2,r2,1
 8001f40:	e0bfd515 	stw	r2,-172(fp)
 8001f44:	e0bfd517 	ldw	r2,-172(fp)
 8001f48:	108000d0 	cmplti	r2,r2,3
 8001f4c:	103fba1e 	bne	r2,zero,8001e38 <__alt_data_end+0xf8001e38>
 8001f50:	e03fd515 	stw	zero,-172(fp)
 8001f54:	00000b06 	br	8001f84 <gppcu_program_autofeed_device_parallel+0x3e4>
 8001f58:	e0bffe17 	ldw	r2,-8(fp)
 8001f5c:	10c00b17 	ldw	r3,44(r2)
 8001f60:	e0bffe17 	ldw	r2,-8(fp)
 8001f64:	10800917 	ldw	r2,36(r2)
 8001f68:	000d883a 	mov	r6,zero
 8001f6c:	100b883a 	mov	r5,r2
 8001f70:	1809883a 	mov	r4,r3
 8001f74:	8000e080 	call	8000e08 <gppcu_push_instr>
 8001f78:	e0bfd517 	ldw	r2,-172(fp)
 8001f7c:	10800044 	addi	r2,r2,1
 8001f80:	e0bfd515 	stw	r2,-172(fp)
 8001f84:	e0bfd517 	ldw	r2,-172(fp)
 8001f88:	00bff30e 	bge	zero,r2,8001f58 <__alt_data_end+0xf8001f58>
 8001f8c:	e0ffd617 	ldw	r3,-168(fp)
 8001f90:	e0bfd717 	ldw	r2,-164(fp)
 8001f94:	18bf9236 	bltu	r3,r2,8001de0 <__alt_data_end+0xf8001de0>
 8001f98:	0001883a 	nop
 8001f9c:	e6ffff04 	addi	sp,fp,-4
 8001fa0:	dfc00217 	ldw	ra,8(sp)
 8001fa4:	df000117 	ldw	fp,4(sp)
 8001fa8:	dc000017 	ldw	r16,0(sp)
 8001fac:	dec00304 	addi	sp,sp,12
 8001fb0:	f800283a 	ret

08001fb4 <gppcu_run_autofeed_device>:
 8001fb4:	defffc04 	addi	sp,sp,-16
 8001fb8:	dfc00315 	stw	ra,12(sp)
 8001fbc:	df000215 	stw	fp,8(sp)
 8001fc0:	df000204 	addi	fp,sp,8
 8001fc4:	e13fff15 	stw	r4,-4(fp)
 8001fc8:	e0bfff17 	ldw	r2,-4(fp)
 8001fcc:	10800b17 	ldw	r2,44(r2)
 8001fd0:	000d883a 	mov	r6,zero
 8001fd4:	000b883a 	mov	r5,zero
 8001fd8:	1009883a 	mov	r4,r2
 8001fdc:	8000fec0 	call	8000fec <gppcu_device_command>
 8001fe0:	00800804 	movi	r2,32
 8001fe4:	e0bffe15 	stw	r2,-8(fp)
 8001fe8:	0001883a 	nop
 8001fec:	e0bffe17 	ldw	r2,-8(fp)
 8001ff0:	10ffffc4 	addi	r3,r2,-1
 8001ff4:	e0fffe15 	stw	r3,-8(fp)
 8001ff8:	103ffc1e 	bne	r2,zero,8001fec <__alt_data_end+0xf8001fec>
 8001ffc:	e0bfff17 	ldw	r2,-4(fp)
 8002000:	10800b17 	ldw	r2,44(r2)
 8002004:	01800044 	movi	r6,1
 8002008:	000b883a 	mov	r5,zero
 800200c:	1009883a 	mov	r4,r2
 8002010:	8000fec0 	call	8000fec <gppcu_device_command>
 8002014:	0001883a 	nop
 8002018:	e037883a 	mov	sp,fp
 800201c:	dfc00117 	ldw	ra,4(sp)
 8002020:	df000017 	ldw	fp,0(sp)
 8002024:	dec00204 	addi	sp,sp,8
 8002028:	f800283a 	ret

0800202c <gppcu_clear_instr>:
 800202c:	defffe04 	addi	sp,sp,-8
 8002030:	df000115 	stw	fp,4(sp)
 8002034:	df000104 	addi	fp,sp,4
 8002038:	e13fff15 	stw	r4,-4(fp)
 800203c:	e0bfff17 	ldw	r2,-4(fp)
 8002040:	10000215 	stw	zero,8(r2)
 8002044:	0001883a 	nop
 8002048:	e037883a 	mov	sp,fp
 800204c:	df000017 	ldw	fp,0(sp)
 8002050:	dec00104 	addi	sp,sp,4
 8002054:	f800283a 	ret

08002058 <gppcu_write>:
 8002058:	defff304 	addi	sp,sp,-52
 800205c:	dfc00c15 	stw	ra,48(sp)
 8002060:	df000b15 	stw	fp,44(sp)
 8002064:	df000b04 	addi	fp,sp,44
 8002068:	e13ffc15 	stw	r4,-16(fp)
 800206c:	e17ffd15 	stw	r5,-12(fp)
 8002070:	3005883a 	mov	r2,r6
 8002074:	e1ffff15 	stw	r7,-4(fp)
 8002078:	e0bffe05 	stb	r2,-8(fp)
 800207c:	e03ff615 	stw	zero,-40(fp)
 8002080:	e03ff715 	stw	zero,-36(fp)
 8002084:	e0bffd17 	ldw	r2,-12(fp)
 8002088:	e0bffa15 	stw	r2,-24(fp)
 800208c:	e0fffe03 	ldbu	r3,-8(fp)
 8002090:	e0bfff17 	ldw	r2,-4(fp)
 8002094:	1885883a 	add	r2,r3,r2
 8002098:	e0fffc17 	ldw	r3,-16(fp)
 800209c:	18c00517 	ldw	r3,20(r3)
 80020a0:	10c00b36 	bltu	r2,r3,80020d0 <gppcu_write+0x78>
 80020a4:	01c200f4 	movhi	r7,2051
 80020a8:	39d9e004 	addi	r7,r7,26496
 80020ac:	01806744 	movi	r6,413
 80020b0:	014200f4 	movhi	r5,2051
 80020b4:	295a0d04 	addi	r5,r5,26676
 80020b8:	010200f4 	movhi	r4,2051
 80020bc:	2119e804 	addi	r4,r4,26528
 80020c0:	80270b00 	call	80270b0 <printf>
 80020c4:	010200f4 	movhi	r4,2051
 80020c8:	211a1804 	addi	r4,r4,26720
 80020cc:	80270b00 	call	80270b0 <printf>
 80020d0:	e03ff815 	stw	zero,-32(fp)
 80020d4:	e03ff915 	stw	zero,-28(fp)
 80020d8:	00002c06 	br	800218c <gppcu_write+0x134>
 80020dc:	e03ffb15 	stw	zero,-20(fp)
 80020e0:	00001506 	br	8002138 <gppcu_write+0xe0>
 80020e4:	e0bffc17 	ldw	r2,-16(fp)
 80020e8:	11000b17 	ldw	r4,44(r2)
 80020ec:	e0bffc17 	ldw	r2,-16(fp)
 80020f0:	11400917 	ldw	r5,36(r2)
 80020f4:	e0fff717 	ldw	r3,-36(fp)
 80020f8:	e0bfff17 	ldw	r2,-4(fp)
 80020fc:	1887883a 	add	r3,r3,r2
 8002100:	e0bffb17 	ldw	r2,-20(fp)
 8002104:	1885883a 	add	r2,r3,r2
 8002108:	100d883a 	mov	r6,r2
 800210c:	e0bffa17 	ldw	r2,-24(fp)
 8002110:	10c00104 	addi	r3,r2,4
 8002114:	e0fffa15 	stw	r3,-24(fp)
 8002118:	10800017 	ldw	r2,0(r2)
 800211c:	d8800015 	stw	r2,0(sp)
 8002120:	300f883a 	mov	r7,r6
 8002124:	e1bff917 	ldw	r6,-28(fp)
 8002128:	8000ee40 	call	8000ee4 <gppcu_data_wr>
 800212c:	e0bffb17 	ldw	r2,-20(fp)
 8002130:	10800044 	addi	r2,r2,1
 8002134:	e0bffb15 	stw	r2,-20(fp)
 8002138:	e0bffe03 	ldbu	r2,-8(fp)
 800213c:	e0fffb17 	ldw	r3,-20(fp)
 8002140:	18bfe816 	blt	r3,r2,80020e4 <__alt_data_end+0xf80020e4>
 8002144:	e0bff917 	ldw	r2,-28(fp)
 8002148:	10800044 	addi	r2,r2,1
 800214c:	e0bff915 	stw	r2,-28(fp)
 8002150:	e0bff917 	ldw	r2,-28(fp)
 8002154:	10800618 	cmpnei	r2,r2,24
 8002158:	1000091e 	bne	r2,zero,8002180 <gppcu_write+0x128>
 800215c:	e03ff915 	stw	zero,-28(fp)
 8002160:	e0bff617 	ldw	r2,-40(fp)
 8002164:	10800044 	addi	r2,r2,1
 8002168:	e0bff615 	stw	r2,-40(fp)
 800216c:	e0bffc17 	ldw	r2,-16(fp)
 8002170:	10800517 	ldw	r2,20(r2)
 8002174:	e0fff717 	ldw	r3,-36(fp)
 8002178:	1885883a 	add	r2,r3,r2
 800217c:	e0bff715 	stw	r2,-36(fp)
 8002180:	e0bff817 	ldw	r2,-32(fp)
 8002184:	10800044 	addi	r2,r2,1
 8002188:	e0bff815 	stw	r2,-32(fp)
 800218c:	e0bffc17 	ldw	r2,-16(fp)
 8002190:	10800717 	ldw	r2,28(r2)
 8002194:	e0fff817 	ldw	r3,-32(fp)
 8002198:	18bfd016 	blt	r3,r2,80020dc <__alt_data_end+0xf80020dc>
 800219c:	0001883a 	nop
 80021a0:	e037883a 	mov	sp,fp
 80021a4:	dfc00117 	ldw	ra,4(sp)
 80021a8:	df000017 	ldw	fp,0(sp)
 80021ac:	dec00204 	addi	sp,sp,8
 80021b0:	f800283a 	ret

080021b4 <gppcu_read>:
 80021b4:	defff204 	addi	sp,sp,-56
 80021b8:	dfc00d15 	stw	ra,52(sp)
 80021bc:	df000c15 	stw	fp,48(sp)
 80021c0:	dc000b15 	stw	r16,44(sp)
 80021c4:	df000c04 	addi	fp,sp,48
 80021c8:	e13ffb15 	stw	r4,-20(fp)
 80021cc:	e17ffc15 	stw	r5,-16(fp)
 80021d0:	e1bffd15 	stw	r6,-12(fp)
 80021d4:	3805883a 	mov	r2,r7
 80021d8:	e0bffe05 	stb	r2,-8(fp)
 80021dc:	e03ff415 	stw	zero,-48(fp)
 80021e0:	e03ff515 	stw	zero,-44(fp)
 80021e4:	e03ff615 	stw	zero,-40(fp)
 80021e8:	e03ff715 	stw	zero,-36(fp)
 80021ec:	e0bffc17 	ldw	r2,-16(fp)
 80021f0:	e0bff915 	stw	r2,-28(fp)
 80021f4:	e0bffd17 	ldw	r2,-12(fp)
 80021f8:	1085883a 	add	r2,r2,r2
 80021fc:	1085883a 	add	r2,r2,r2
 8002200:	1007883a 	mov	r3,r2
 8002204:	e0bff917 	ldw	r2,-28(fp)
 8002208:	10c5883a 	add	r2,r2,r3
 800220c:	e0bffa15 	stw	r2,-24(fp)
 8002210:	e0fffe03 	ldbu	r3,-8(fp)
 8002214:	e0800217 	ldw	r2,8(fp)
 8002218:	1885883a 	add	r2,r3,r2
 800221c:	e0fffb17 	ldw	r3,-20(fp)
 8002220:	18c00517 	ldw	r3,20(r3)
 8002224:	10c03e36 	bltu	r2,r3,8002320 <gppcu_read+0x16c>
 8002228:	01c200f4 	movhi	r7,2051
 800222c:	39d9e004 	addi	r7,r7,26496
 8002230:	018070c4 	movi	r6,451
 8002234:	014200f4 	movhi	r5,2051
 8002238:	295a0d04 	addi	r5,r5,26676
 800223c:	010200f4 	movhi	r4,2051
 8002240:	2119e804 	addi	r4,r4,26528
 8002244:	80270b00 	call	80270b0 <printf>
 8002248:	010200f4 	movhi	r4,2051
 800224c:	211a1804 	addi	r4,r4,26720
 8002250:	80270b00 	call	80270b0 <printf>
 8002254:	00003206 	br	8002320 <gppcu_read+0x16c>
 8002258:	e0bffe03 	ldbu	r2,-8(fp)
 800225c:	1085883a 	add	r2,r2,r2
 8002260:	1085883a 	add	r2,r2,r2
 8002264:	1007883a 	mov	r3,r2
 8002268:	e0bff917 	ldw	r2,-28(fp)
 800226c:	10c7883a 	add	r3,r2,r3
 8002270:	e0bffa17 	ldw	r2,-24(fp)
 8002274:	18802f2e 	bgeu	r3,r2,8002334 <gppcu_read+0x180>
 8002278:	e03ff815 	stw	zero,-32(fp)
 800227c:	00001306 	br	80022cc <gppcu_read+0x118>
 8002280:	e43ff917 	ldw	r16,-28(fp)
 8002284:	80800104 	addi	r2,r16,4
 8002288:	e0bff915 	stw	r2,-28(fp)
 800228c:	e0bffb17 	ldw	r2,-20(fp)
 8002290:	11000b17 	ldw	r4,44(r2)
 8002294:	e0bffb17 	ldw	r2,-20(fp)
 8002298:	11400a17 	ldw	r5,40(r2)
 800229c:	e0fff517 	ldw	r3,-44(fp)
 80022a0:	e0800217 	ldw	r2,8(fp)
 80022a4:	1887883a 	add	r3,r3,r2
 80022a8:	e0bff817 	ldw	r2,-32(fp)
 80022ac:	1885883a 	add	r2,r3,r2
 80022b0:	100f883a 	mov	r7,r2
 80022b4:	e1bff717 	ldw	r6,-36(fp)
 80022b8:	8000e640 	call	8000e64 <gppcu_data_rd>
 80022bc:	80800015 	stw	r2,0(r16)
 80022c0:	e0bff817 	ldw	r2,-32(fp)
 80022c4:	10800044 	addi	r2,r2,1
 80022c8:	e0bff815 	stw	r2,-32(fp)
 80022cc:	e0bffe03 	ldbu	r2,-8(fp)
 80022d0:	e0fff817 	ldw	r3,-32(fp)
 80022d4:	18bfea16 	blt	r3,r2,8002280 <__alt_data_end+0xf8002280>
 80022d8:	e0bff717 	ldw	r2,-36(fp)
 80022dc:	10800044 	addi	r2,r2,1
 80022e0:	e0bff715 	stw	r2,-36(fp)
 80022e4:	e0bff717 	ldw	r2,-36(fp)
 80022e8:	10800618 	cmpnei	r2,r2,24
 80022ec:	1000091e 	bne	r2,zero,8002314 <gppcu_read+0x160>
 80022f0:	e03ff715 	stw	zero,-36(fp)
 80022f4:	e0bff417 	ldw	r2,-48(fp)
 80022f8:	10800044 	addi	r2,r2,1
 80022fc:	e0bff415 	stw	r2,-48(fp)
 8002300:	e0bffb17 	ldw	r2,-20(fp)
 8002304:	10800517 	ldw	r2,20(r2)
 8002308:	e0fff517 	ldw	r3,-44(fp)
 800230c:	1885883a 	add	r2,r3,r2
 8002310:	e0bff515 	stw	r2,-44(fp)
 8002314:	e0bff617 	ldw	r2,-40(fp)
 8002318:	10800044 	addi	r2,r2,1
 800231c:	e0bff615 	stw	r2,-40(fp)
 8002320:	e0bffb17 	ldw	r2,-20(fp)
 8002324:	10800717 	ldw	r2,28(r2)
 8002328:	e0fff617 	ldw	r3,-40(fp)
 800232c:	18bfca16 	blt	r3,r2,8002258 <__alt_data_end+0xf8002258>
 8002330:	00000106 	br	8002338 <gppcu_read+0x184>
 8002334:	0001883a 	nop
 8002338:	0001883a 	nop
 800233c:	e6ffff04 	addi	sp,fp,-4
 8002340:	dfc00217 	ldw	ra,8(sp)
 8002344:	df000117 	ldw	fp,4(sp)
 8002348:	dc000017 	ldw	r16,0(sp)
 800234c:	dec00304 	addi	sp,sp,12
 8002350:	f800283a 	ret

08002354 <gppcu_write_const>:
 8002354:	defff804 	addi	sp,sp,-32
 8002358:	dfc00715 	stw	ra,28(sp)
 800235c:	df000615 	stw	fp,24(sp)
 8002360:	df000604 	addi	fp,sp,24
 8002364:	e13ffc15 	stw	r4,-16(fp)
 8002368:	e17ffd15 	stw	r5,-12(fp)
 800236c:	e1bffe15 	stw	r6,-8(fp)
 8002370:	e1ffff15 	stw	r7,-4(fp)
 8002374:	e0bffd17 	ldw	r2,-12(fp)
 8002378:	e0bffa15 	stw	r2,-24(fp)
 800237c:	e0bfff17 	ldw	r2,-4(fp)
 8002380:	1085883a 	add	r2,r2,r2
 8002384:	1085883a 	add	r2,r2,r2
 8002388:	1007883a 	mov	r3,r2
 800238c:	e0bffd17 	ldw	r2,-12(fp)
 8002390:	10c5883a 	add	r2,r2,r3
 8002394:	e0bffb15 	stw	r2,-20(fp)
 8002398:	00001006 	br	80023dc <gppcu_write_const+0x88>
 800239c:	e0bffc17 	ldw	r2,-16(fp)
 80023a0:	11000b17 	ldw	r4,44(r2)
 80023a4:	e0bffc17 	ldw	r2,-16(fp)
 80023a8:	11400917 	ldw	r5,36(r2)
 80023ac:	e0bffe17 	ldw	r2,-8(fp)
 80023b0:	10c00044 	addi	r3,r2,1
 80023b4:	e0fffe15 	stw	r3,-8(fp)
 80023b8:	10ffffcc 	andi	r3,r2,65535
 80023bc:	e0bffa17 	ldw	r2,-24(fp)
 80023c0:	10800017 	ldw	r2,0(r2)
 80023c4:	100f883a 	mov	r7,r2
 80023c8:	180d883a 	mov	r6,r3
 80023cc:	8000f6c0 	call	8000f6c <gppcu_constant_wr>
 80023d0:	e0bffa17 	ldw	r2,-24(fp)
 80023d4:	10800104 	addi	r2,r2,4
 80023d8:	e0bffa15 	stw	r2,-24(fp)
 80023dc:	e0fffa17 	ldw	r3,-24(fp)
 80023e0:	e0bffb17 	ldw	r2,-20(fp)
 80023e4:	18bfed1e 	bne	r3,r2,800239c <__alt_data_end+0xf800239c>
 80023e8:	0001883a 	nop
 80023ec:	e037883a 	mov	sp,fp
 80023f0:	dfc00117 	ldw	ra,4(sp)
 80023f4:	df000017 	ldw	fp,0(sp)
 80023f8:	dec00204 	addi	sp,sp,8
 80023fc:	f800283a 	ret

08002400 <gppcu_data_wr_slow>:
 8002400:	defffa04 	addi	sp,sp,-24
 8002404:	dfc00515 	stw	ra,20(sp)
 8002408:	df000415 	stw	fp,16(sp)
 800240c:	df000404 	addi	fp,sp,16
 8002410:	e13ffd15 	stw	r4,-12(fp)
 8002414:	e17ffe15 	stw	r5,-8(fp)
 8002418:	e1bfff15 	stw	r6,-4(fp)
 800241c:	e0bfff17 	ldw	r2,-4(fp)
 8002420:	d8800015 	stw	r2,0(sp)
 8002424:	e1fffe17 	ldw	r7,-8(fp)
 8002428:	e1bffd17 	ldw	r6,-12(fp)
 800242c:	01440134 	movhi	r5,4100
 8002430:	29441004 	addi	r5,r5,4160
 8002434:	01040134 	movhi	r4,4100
 8002438:	21041404 	addi	r4,r4,4176
 800243c:	8000ee40 	call	8000ee4 <gppcu_data_wr>
 8002440:	0001883a 	nop
 8002444:	e037883a 	mov	sp,fp
 8002448:	dfc00117 	ldw	ra,4(sp)
 800244c:	df000017 	ldw	fp,0(sp)
 8002450:	dec00204 	addi	sp,sp,8
 8002454:	f800283a 	ret

08002458 <gppcu_data_rd_slow>:
 8002458:	defffc04 	addi	sp,sp,-16
 800245c:	dfc00315 	stw	ra,12(sp)
 8002460:	df000215 	stw	fp,8(sp)
 8002464:	df000204 	addi	fp,sp,8
 8002468:	e13ffe15 	stw	r4,-8(fp)
 800246c:	e17fff15 	stw	r5,-4(fp)
 8002470:	e1ffff17 	ldw	r7,-4(fp)
 8002474:	e1bffe17 	ldw	r6,-8(fp)
 8002478:	01440134 	movhi	r5,4100
 800247c:	29441804 	addi	r5,r5,4192
 8002480:	01040134 	movhi	r4,4100
 8002484:	21041404 	addi	r4,r4,4176
 8002488:	8000e640 	call	8000e64 <gppcu_data_rd>
 800248c:	e037883a 	mov	sp,fp
 8002490:	dfc00117 	ldw	ra,4(sp)
 8002494:	df000017 	ldw	fp,0(sp)
 8002498:	dec00204 	addi	sp,sp,8
 800249c:	f800283a 	ret

080024a0 <gppcu_put_instr>:
 80024a0:	defffc04 	addi	sp,sp,-16
 80024a4:	dfc00315 	stw	ra,12(sp)
 80024a8:	df000215 	stw	fp,8(sp)
 80024ac:	df000204 	addi	fp,sp,8
 80024b0:	e13ffe15 	stw	r4,-8(fp)
 80024b4:	e17fff15 	stw	r5,-4(fp)
 80024b8:	e0bffe17 	ldw	r2,-8(fp)
 80024bc:	10c00017 	ldw	r3,0(r2)
 80024c0:	e0bffe17 	ldw	r2,-8(fp)
 80024c4:	10800217 	ldw	r2,8(r2)
 80024c8:	11400044 	addi	r5,r2,1
 80024cc:	e13ffe17 	ldw	r4,-8(fp)
 80024d0:	21400215 	stw	r5,8(r4)
 80024d4:	1085883a 	add	r2,r2,r2
 80024d8:	1085883a 	add	r2,r2,r2
 80024dc:	1885883a 	add	r2,r3,r2
 80024e0:	e0ffff17 	ldw	r3,-4(fp)
 80024e4:	10c00015 	stw	r3,0(r2)
 80024e8:	e0bffe17 	ldw	r2,-8(fp)
 80024ec:	10c00217 	ldw	r3,8(r2)
 80024f0:	e0bffe17 	ldw	r2,-8(fp)
 80024f4:	10800117 	ldw	r2,4(r2)
 80024f8:	18800b16 	blt	r3,r2,8002528 <gppcu_put_instr+0x88>
 80024fc:	01c200f4 	movhi	r7,2051
 8002500:	39da1e04 	addi	r7,r7,26744
 8002504:	01802ec4 	movi	r6,187
 8002508:	014200f4 	movhi	r5,2051
 800250c:	295a2104 	addi	r5,r5,26756
 8002510:	010200f4 	movhi	r4,2051
 8002514:	211a2604 	addi	r4,r4,26776
 8002518:	80270b00 	call	80270b0 <printf>
 800251c:	010200f4 	movhi	r4,2051
 8002520:	211a3104 	addi	r4,r4,26820
 8002524:	80270b00 	call	80270b0 <printf>
 8002528:	0001883a 	nop
 800252c:	e037883a 	mov	sp,fp
 8002530:	dfc00117 	ldw	ra,4(sp)
 8002534:	df000017 	ldw	fp,0(sp)
 8002538:	dec00204 	addi	sp,sp,8
 800253c:	f800283a 	ret

08002540 <gppcu_arith_s>:
 8002540:	defff904 	addi	sp,sp,-28
 8002544:	dfc00615 	stw	ra,24(sp)
 8002548:	df000515 	stw	fp,20(sp)
 800254c:	df000504 	addi	fp,sp,20
 8002550:	e13ffb15 	stw	r4,-20(fp)
 8002554:	e17ffc15 	stw	r5,-16(fp)
 8002558:	e1bffd15 	stw	r6,-12(fp)
 800255c:	3807883a 	mov	r3,r7
 8002560:	e0800417 	ldw	r2,16(fp)
 8002564:	e0fffe05 	stb	r3,-8(fp)
 8002568:	e0bfff05 	stb	r2,-4(fp)
 800256c:	e0bffc17 	ldw	r2,-16(fp)
 8002570:	1006973a 	slli	r3,r2,28
 8002574:	e0bffd17 	ldw	r2,-12(fp)
 8002578:	100495fa 	slli	r2,r2,23
 800257c:	1886b03a 	or	r3,r3,r2
 8002580:	e0bffe03 	ldbu	r2,-8(fp)
 8002584:	100495ba 	slli	r2,r2,22
 8002588:	1886b03a 	or	r3,r3,r2
 800258c:	e0800217 	ldw	r2,8(fp)
 8002590:	1004947a 	slli	r2,r2,17
 8002594:	1884b03a 	or	r2,r3,r2
 8002598:	e0ffff03 	ldbu	r3,-4(fp)
 800259c:	18c03fcc 	andi	r3,r3,255
 80025a0:	18c01fcc 	andi	r3,r3,127
 80025a4:	1806917a 	slli	r3,r3,5
 80025a8:	10c6b03a 	or	r3,r2,r3
 80025ac:	e0800317 	ldw	r2,12(fp)
 80025b0:	1884b03a 	or	r2,r3,r2
 80025b4:	100b883a 	mov	r5,r2
 80025b8:	e13ffb17 	ldw	r4,-20(fp)
 80025bc:	80024a00 	call	80024a0 <gppcu_put_instr>
 80025c0:	0001883a 	nop
 80025c4:	e037883a 	mov	sp,fp
 80025c8:	dfc00117 	ldw	ra,4(sp)
 80025cc:	df000017 	ldw	fp,0(sp)
 80025d0:	dec00204 	addi	sp,sp,8
 80025d4:	f800283a 	ret

080025d8 <gppcu_mvi>:
 80025d8:	defffa04 	addi	sp,sp,-24
 80025dc:	dfc00515 	stw	ra,20(sp)
 80025e0:	df000415 	stw	fp,16(sp)
 80025e4:	df000404 	addi	fp,sp,16
 80025e8:	e13ffc15 	stw	r4,-16(fp)
 80025ec:	e17ffd15 	stw	r5,-12(fp)
 80025f0:	3005883a 	mov	r2,r6
 80025f4:	e1ffff15 	stw	r7,-4(fp)
 80025f8:	e0bffe05 	stb	r2,-8(fp)
 80025fc:	e0bffd17 	ldw	r2,-12(fp)
 8002600:	1006973a 	slli	r3,r2,28
 8002604:	e0bffe03 	ldbu	r2,-8(fp)
 8002608:	100495ba 	slli	r2,r2,22
 800260c:	1886b03a 	or	r3,r3,r2
 8002610:	e0bfff17 	ldw	r2,-4(fp)
 8002614:	1004947a 	slli	r2,r2,17
 8002618:	1886b03a 	or	r3,r3,r2
 800261c:	e1000217 	ldw	r4,8(fp)
 8002620:	008000b4 	movhi	r2,2
 8002624:	10bfffc4 	addi	r2,r2,-1
 8002628:	2084703a 	and	r2,r4,r2
 800262c:	1884b03a 	or	r2,r3,r2
 8002630:	10814034 	orhi	r2,r2,1280
 8002634:	100b883a 	mov	r5,r2
 8002638:	e13ffc17 	ldw	r4,-16(fp)
 800263c:	80024a00 	call	80024a0 <gppcu_put_instr>
 8002640:	0001883a 	nop
 8002644:	e037883a 	mov	sp,fp
 8002648:	dfc00117 	ldw	ra,4(sp)
 800264c:	df000017 	ldw	fp,0(sp)
 8002650:	dec00204 	addi	sp,sp,8
 8002654:	f800283a 	ret

08002658 <gppcu_arith_b>:
 8002658:	defff904 	addi	sp,sp,-28
 800265c:	dfc00615 	stw	ra,24(sp)
 8002660:	df000515 	stw	fp,20(sp)
 8002664:	df000504 	addi	fp,sp,20
 8002668:	e13ffb15 	stw	r4,-20(fp)
 800266c:	e17ffc15 	stw	r5,-16(fp)
 8002670:	e1bffd15 	stw	r6,-12(fp)
 8002674:	3807883a 	mov	r3,r7
 8002678:	e0800417 	ldw	r2,16(fp)
 800267c:	e0fffe05 	stb	r3,-8(fp)
 8002680:	e0bfff0d 	sth	r2,-4(fp)
 8002684:	e0bffc17 	ldw	r2,-16(fp)
 8002688:	1006973a 	slli	r3,r2,28
 800268c:	e0bffd17 	ldw	r2,-12(fp)
 8002690:	100495fa 	slli	r2,r2,23
 8002694:	1886b03a 	or	r3,r3,r2
 8002698:	e0bffe03 	ldbu	r2,-8(fp)
 800269c:	100495ba 	slli	r2,r2,22
 80026a0:	1886b03a 	or	r3,r3,r2
 80026a4:	e0800217 	ldw	r2,8(fp)
 80026a8:	1004947a 	slli	r2,r2,17
 80026ac:	1886b03a 	or	r3,r3,r2
 80026b0:	e0800317 	ldw	r2,12(fp)
 80026b4:	1004933a 	slli	r2,r2,12
 80026b8:	1886b03a 	or	r3,r3,r2
 80026bc:	e0bfff0b 	ldhu	r2,-4(fp)
 80026c0:	10bfffcc 	andi	r2,r2,65535
 80026c4:	1083ffcc 	andi	r2,r2,4095
 80026c8:	1884b03a 	or	r2,r3,r2
 80026cc:	100b883a 	mov	r5,r2
 80026d0:	e13ffb17 	ldw	r4,-20(fp)
 80026d4:	80024a00 	call	80024a0 <gppcu_put_instr>
 80026d8:	0001883a 	nop
 80026dc:	e037883a 	mov	sp,fp
 80026e0:	dfc00117 	ldw	ra,4(sp)
 80026e4:	df000017 	ldw	fp,0(sp)
 80026e8:	dec00204 	addi	sp,sp,8
 80026ec:	f800283a 	ret

080026f0 <gppcu_fp_arith>:
 80026f0:	defffa04 	addi	sp,sp,-24
 80026f4:	dfc00515 	stw	ra,20(sp)
 80026f8:	df000415 	stw	fp,16(sp)
 80026fc:	df000404 	addi	fp,sp,16
 8002700:	e13ffc15 	stw	r4,-16(fp)
 8002704:	e17ffd15 	stw	r5,-12(fp)
 8002708:	e1bffe15 	stw	r6,-8(fp)
 800270c:	e1ffff15 	stw	r7,-4(fp)
 8002710:	e0bffd17 	ldw	r2,-12(fp)
 8002714:	1006973a 	slli	r3,r2,28
 8002718:	e0bffe17 	ldw	r2,-8(fp)
 800271c:	100495fa 	slli	r2,r2,23
 8002720:	1886b03a 	or	r3,r3,r2
 8002724:	e0bfff17 	ldw	r2,-4(fp)
 8002728:	1004947a 	slli	r2,r2,17
 800272c:	1886b03a 	or	r3,r3,r2
 8002730:	e0800217 	ldw	r2,8(fp)
 8002734:	1004933a 	slli	r2,r2,12
 8002738:	1886b03a 	or	r3,r3,r2
 800273c:	e0800317 	ldw	r2,12(fp)
 8002740:	1884b03a 	or	r2,r3,r2
 8002744:	100b883a 	mov	r5,r2
 8002748:	e13ffc17 	ldw	r4,-16(fp)
 800274c:	80024a00 	call	80024a0 <gppcu_put_instr>
 8002750:	0001883a 	nop
 8002754:	e037883a 	mov	sp,fp
 8002758:	dfc00117 	ldw	ra,4(sp)
 800275c:	df000017 	ldw	fp,0(sp)
 8002760:	dec00204 	addi	sp,sp,8
 8002764:	f800283a 	ret

08002768 <gppcu_fp_0>:
 8002768:	defffa04 	addi	sp,sp,-24
 800276c:	dfc00515 	stw	ra,20(sp)
 8002770:	df000415 	stw	fp,16(sp)
 8002774:	df000404 	addi	fp,sp,16
 8002778:	e13ffc15 	stw	r4,-16(fp)
 800277c:	e17ffd15 	stw	r5,-12(fp)
 8002780:	e1bffe15 	stw	r6,-8(fp)
 8002784:	e1ffff15 	stw	r7,-4(fp)
 8002788:	e0bffd17 	ldw	r2,-12(fp)
 800278c:	1006973a 	slli	r3,r2,28
 8002790:	e0bffe17 	ldw	r2,-8(fp)
 8002794:	100495fa 	slli	r2,r2,23
 8002798:	1886b03a 	or	r3,r3,r2
 800279c:	e0bfff17 	ldw	r2,-4(fp)
 80027a0:	1004947a 	slli	r2,r2,17
 80027a4:	1886b03a 	or	r3,r3,r2
 80027a8:	e0800217 	ldw	r2,8(fp)
 80027ac:	1004933a 	slli	r2,r2,12
 80027b0:	1884b03a 	or	r2,r3,r2
 80027b4:	100b883a 	mov	r5,r2
 80027b8:	e13ffc17 	ldw	r4,-16(fp)
 80027bc:	80024a00 	call	80024a0 <gppcu_put_instr>
 80027c0:	0001883a 	nop
 80027c4:	e037883a 	mov	sp,fp
 80027c8:	dfc00117 	ldw	ra,4(sp)
 80027cc:	df000017 	ldw	fp,0(sp)
 80027d0:	dec00204 	addi	sp,sp,8
 80027d4:	f800283a 	ret

080027d8 <gppcu_stl>:
 80027d8:	defff904 	addi	sp,sp,-28
 80027dc:	dfc00615 	stw	ra,24(sp)
 80027e0:	df000515 	stw	fp,20(sp)
 80027e4:	df000504 	addi	fp,sp,20
 80027e8:	e13ffb15 	stw	r4,-20(fp)
 80027ec:	e17ffc15 	stw	r5,-16(fp)
 80027f0:	e1bffd15 	stw	r6,-12(fp)
 80027f4:	e1fffe15 	stw	r7,-8(fp)
 80027f8:	e0800217 	ldw	r2,8(fp)
 80027fc:	e0bfff05 	stb	r2,-4(fp)
 8002800:	e0bffc17 	ldw	r2,-16(fp)
 8002804:	1006973a 	slli	r3,r2,28
 8002808:	e0bffd17 	ldw	r2,-12(fp)
 800280c:	1004933a 	slli	r2,r2,12
 8002810:	1884b03a 	or	r2,r3,r2
 8002814:	e0ffff03 	ldbu	r3,-4(fp)
 8002818:	18c01fcc 	andi	r3,r3,127
 800281c:	1806917a 	slli	r3,r3,5
 8002820:	10c6b03a 	or	r3,r2,r3
 8002824:	e0bffe17 	ldw	r2,-8(fp)
 8002828:	1884b03a 	or	r2,r3,r2
 800282c:	10830034 	orhi	r2,r2,3072
 8002830:	100b883a 	mov	r5,r2
 8002834:	e13ffb17 	ldw	r4,-20(fp)
 8002838:	80024a00 	call	80024a0 <gppcu_put_instr>
 800283c:	0001883a 	nop
 8002840:	e037883a 	mov	sp,fp
 8002844:	dfc00117 	ldw	ra,4(sp)
 8002848:	df000017 	ldw	fp,0(sp)
 800284c:	dec00204 	addi	sp,sp,8
 8002850:	f800283a 	ret

08002854 <gppcu_ldci>:
 8002854:	defffa04 	addi	sp,sp,-24
 8002858:	dfc00515 	stw	ra,20(sp)
 800285c:	df000415 	stw	fp,16(sp)
 8002860:	df000404 	addi	fp,sp,16
 8002864:	e13ffc15 	stw	r4,-16(fp)
 8002868:	e17ffd15 	stw	r5,-12(fp)
 800286c:	e1bffe15 	stw	r6,-8(fp)
 8002870:	e1ffff15 	stw	r7,-4(fp)
 8002874:	e0bffd17 	ldw	r2,-12(fp)
 8002878:	1006973a 	slli	r3,r2,28
 800287c:	e0bffe17 	ldw	r2,-8(fp)
 8002880:	1004947a 	slli	r2,r2,17
 8002884:	1886b03a 	or	r3,r3,r2
 8002888:	e13fff17 	ldw	r4,-4(fp)
 800288c:	008000b4 	movhi	r2,2
 8002890:	10bfffc4 	addi	r2,r2,-1
 8002894:	2084703a 	and	r2,r4,r2
 8002898:	1884b03a 	or	r2,r3,r2
 800289c:	1082e034 	orhi	r2,r2,2944
 80028a0:	100b883a 	mov	r5,r2
 80028a4:	e13ffc17 	ldw	r4,-16(fp)
 80028a8:	80024a00 	call	80024a0 <gppcu_put_instr>
 80028ac:	0001883a 	nop
 80028b0:	e037883a 	mov	sp,fp
 80028b4:	dfc00117 	ldw	ra,4(sp)
 80028b8:	df000017 	ldw	fp,0(sp)
 80028bc:	dec00204 	addi	sp,sp,8
 80028c0:	f800283a 	ret

080028c4 <wait>:
 80028c4:	defffd04 	addi	sp,sp,-12
 80028c8:	df000215 	stw	fp,8(sp)
 80028cc:	df000204 	addi	fp,sp,8
 80028d0:	e13fff15 	stw	r4,-4(fp)
 80028d4:	e03ffe15 	stw	zero,-8(fp)
 80028d8:	00000306 	br	80028e8 <wait+0x24>
 80028dc:	e0bffe17 	ldw	r2,-8(fp)
 80028e0:	10800044 	addi	r2,r2,1
 80028e4:	e0bffe15 	stw	r2,-8(fp)
 80028e8:	e0fffe17 	ldw	r3,-8(fp)
 80028ec:	e0bfff17 	ldw	r2,-4(fp)
 80028f0:	18bffa16 	blt	r3,r2,80028dc <__alt_data_end+0xf80028dc>
 80028f4:	0001883a 	nop
 80028f8:	e037883a 	mov	sp,fp
 80028fc:	df000017 	ldw	fp,0(sp)
 8002900:	dec00104 	addi	sp,sp,4
 8002904:	f800283a 	ret

08002908 <display_stat_is_done>:
 8002908:	defff804 	addi	sp,sp,-32
 800290c:	dfc00715 	stw	ra,28(sp)
 8002910:	df000615 	stw	fp,24(sp)
 8002914:	df000604 	addi	fp,sp,24
 8002918:	e17ffec4 	addi	r5,fp,-5
 800291c:	e13ffe84 	addi	r4,fp,-6
 8002920:	e0fffe44 	addi	r3,fp,-7
 8002924:	e0bfff84 	addi	r2,fp,-2
 8002928:	d8800215 	stw	r2,8(sp)
 800292c:	e0bfff44 	addi	r2,fp,-3
 8002930:	d8800115 	stw	r2,4(sp)
 8002934:	e0bfff04 	addi	r2,fp,-4
 8002938:	d8800015 	stw	r2,0(sp)
 800293c:	280f883a 	mov	r7,r5
 8002940:	200d883a 	mov	r6,r4
 8002944:	180b883a 	mov	r5,r3
 8002948:	e13ffe04 	addi	r4,fp,-8
 800294c:	800106c0 	call	800106c <gppcu_stat>
 8002950:	e0bffe03 	ldbu	r2,-8(fp)
 8002954:	12003fcc 	andi	r8,r2,255
 8002958:	e0bffe43 	ldbu	r2,-7(fp)
 800295c:	11803fcc 	andi	r6,r2,255
 8002960:	e0bffe83 	ldbu	r2,-6(fp)
 8002964:	11c03fcc 	andi	r7,r2,255
 8002968:	e0bfff03 	ldbu	r2,-4(fp)
 800296c:	10803fcc 	andi	r2,r2,255
 8002970:	e0fffec3 	ldbu	r3,-5(fp)
 8002974:	18c03fcc 	andi	r3,r3,255
 8002978:	e13fff83 	ldbu	r4,-2(fp)
 800297c:	21003fcc 	andi	r4,r4,255
 8002980:	e17fff43 	ldbu	r5,-3(fp)
 8002984:	29403fcc 	andi	r5,r5,255
 8002988:	d9400315 	stw	r5,12(sp)
 800298c:	d9000215 	stw	r4,8(sp)
 8002990:	d8c00115 	stw	r3,4(sp)
 8002994:	d8800015 	stw	r2,0(sp)
 8002998:	400b883a 	mov	r5,r8
 800299c:	010200f4 	movhi	r4,2051
 80029a0:	211a3904 	addi	r4,r4,26852
 80029a4:	80270b00 	call	80270b0 <printf>
 80029a8:	e0bffe43 	ldbu	r2,-7(fp)
 80029ac:	10803fcc 	andi	r2,r2,255
 80029b0:	e037883a 	mov	sp,fp
 80029b4:	dfc00117 	ldw	ra,4(sp)
 80029b8:	df000017 	ldw	fp,0(sp)
 80029bc:	dec00204 	addi	sp,sp,8
 80029c0:	f800283a 	ret

080029c4 <mem_clr>:
 80029c4:	defffa04 	addi	sp,sp,-24
 80029c8:	dfc00515 	stw	ra,20(sp)
 80029cc:	df000415 	stw	fp,16(sp)
 80029d0:	df000404 	addi	fp,sp,16
 80029d4:	e13ffe15 	stw	r4,-8(fp)
 80029d8:	e17fff15 	stw	r5,-4(fp)
 80029dc:	e03ffc15 	stw	zero,-16(fp)
 80029e0:	00000f06 	br	8002a20 <mem_clr+0x5c>
 80029e4:	e03ffd15 	stw	zero,-12(fp)
 80029e8:	00000706 	br	8002a08 <mem_clr+0x44>
 80029ec:	000d883a 	mov	r6,zero
 80029f0:	e17ffd17 	ldw	r5,-12(fp)
 80029f4:	e13ffc17 	ldw	r4,-16(fp)
 80029f8:	80024000 	call	8002400 <gppcu_data_wr_slow>
 80029fc:	e0bffd17 	ldw	r2,-12(fp)
 8002a00:	10800044 	addi	r2,r2,1
 8002a04:	e0bffd15 	stw	r2,-12(fp)
 8002a08:	e0fffd17 	ldw	r3,-12(fp)
 8002a0c:	e0bfff17 	ldw	r2,-4(fp)
 8002a10:	18bff616 	blt	r3,r2,80029ec <__alt_data_end+0xf80029ec>
 8002a14:	e0bffc17 	ldw	r2,-16(fp)
 8002a18:	10800044 	addi	r2,r2,1
 8002a1c:	e0bffc15 	stw	r2,-16(fp)
 8002a20:	e0fffc17 	ldw	r3,-16(fp)
 8002a24:	e0bffe17 	ldw	r2,-8(fp)
 8002a28:	18bfee16 	blt	r3,r2,80029e4 <__alt_data_end+0xf80029e4>
 8002a2c:	0001883a 	nop
 8002a30:	e037883a 	mov	sp,fp
 8002a34:	dfc00117 	ldw	ra,4(sp)
 8002a38:	df000017 	ldw	fp,0(sp)
 8002a3c:	dec00204 	addi	sp,sp,8
 8002a40:	f800283a 	ret

08002a44 <monitor>:
 8002a44:	defff804 	addi	sp,sp,-32
 8002a48:	dfc00715 	stw	ra,28(sp)
 8002a4c:	df000615 	stw	fp,24(sp)
 8002a50:	df000604 	addi	fp,sp,24
 8002a54:	e13ffd15 	stw	r4,-12(fp)
 8002a58:	e17ffe15 	stw	r5,-8(fp)
 8002a5c:	e1bfff15 	stw	r6,-4(fp)
 8002a60:	e03ffa15 	stw	zero,-24(fp)
 8002a64:	00002f06 	br	8002b24 <monitor+0xe0>
 8002a68:	e17ffa17 	ldw	r5,-24(fp)
 8002a6c:	010200f4 	movhi	r4,2051
 8002a70:	211a4c04 	addi	r4,r4,26928
 8002a74:	80270b00 	call	80270b0 <printf>
 8002a78:	e0bffe17 	ldw	r2,-8(fp)
 8002a7c:	e0bffb15 	stw	r2,-20(fp)
 8002a80:	00000706 	br	8002aa0 <monitor+0x5c>
 8002a84:	e17ffb17 	ldw	r5,-20(fp)
 8002a88:	010200f4 	movhi	r4,2051
 8002a8c:	211a5004 	addi	r4,r4,26944
 8002a90:	80270b00 	call	80270b0 <printf>
 8002a94:	e0bffb17 	ldw	r2,-20(fp)
 8002a98:	10800044 	addi	r2,r2,1
 8002a9c:	e0bffb15 	stw	r2,-20(fp)
 8002aa0:	e0fffe17 	ldw	r3,-8(fp)
 8002aa4:	e0bfff17 	ldw	r2,-4(fp)
 8002aa8:	1885883a 	add	r2,r3,r2
 8002aac:	e0fffb17 	ldw	r3,-20(fp)
 8002ab0:	18bff416 	blt	r3,r2,8002a84 <__alt_data_end+0xf8002a84>
 8002ab4:	01000284 	movi	r4,10
 8002ab8:	802715c0 	call	802715c <putchar>
 8002abc:	e0bffe17 	ldw	r2,-8(fp)
 8002ac0:	e0bffc15 	stw	r2,-16(fp)
 8002ac4:	00000d06 	br	8002afc <monitor+0xb8>
 8002ac8:	e17ffc17 	ldw	r5,-16(fp)
 8002acc:	e13ffa17 	ldw	r4,-24(fp)
 8002ad0:	80024580 	call	8002458 <gppcu_data_rd_slow>
 8002ad4:	e17ffc17 	ldw	r5,-16(fp)
 8002ad8:	e13ffa17 	ldw	r4,-24(fp)
 8002adc:	80024580 	call	8002458 <gppcu_data_rd_slow>
 8002ae0:	100b883a 	mov	r5,r2
 8002ae4:	010200f4 	movhi	r4,2051
 8002ae8:	211a5004 	addi	r4,r4,26944
 8002aec:	80270b00 	call	80270b0 <printf>
 8002af0:	e0bffc17 	ldw	r2,-16(fp)
 8002af4:	10800044 	addi	r2,r2,1
 8002af8:	e0bffc15 	stw	r2,-16(fp)
 8002afc:	e0fffe17 	ldw	r3,-8(fp)
 8002b00:	e0bfff17 	ldw	r2,-4(fp)
 8002b04:	1885883a 	add	r2,r3,r2
 8002b08:	e0fffc17 	ldw	r3,-16(fp)
 8002b0c:	18bfee16 	blt	r3,r2,8002ac8 <__alt_data_end+0xf8002ac8>
 8002b10:	01000284 	movi	r4,10
 8002b14:	802715c0 	call	802715c <putchar>
 8002b18:	e0bffa17 	ldw	r2,-24(fp)
 8002b1c:	10800044 	addi	r2,r2,1
 8002b20:	e0bffa15 	stw	r2,-24(fp)
 8002b24:	e0fffa17 	ldw	r3,-24(fp)
 8002b28:	e0bffd17 	ldw	r2,-12(fp)
 8002b2c:	18bfce16 	blt	r3,r2,8002a68 <__alt_data_end+0xf8002a68>
 8002b30:	0001883a 	nop
 8002b34:	e037883a 	mov	sp,fp
 8002b38:	dfc00117 	ldw	ra,4(sp)
 8002b3c:	df000017 	ldw	fp,0(sp)
 8002b40:	dec00204 	addi	sp,sp,8
 8002b44:	f800283a 	ret

08002b48 <main>:
 8002b48:	deffee04 	addi	sp,sp,-72
 8002b4c:	dfc01115 	stw	ra,68(sp)
 8002b50:	df001015 	stw	fp,64(sp)
 8002b54:	df001004 	addi	fp,sp,64
 8002b58:	e0fff404 	addi	r3,fp,-48
 8002b5c:	00840134 	movhi	r2,4100
 8002b60:	10841804 	addi	r2,r2,4192
 8002b64:	d8800215 	stw	r2,8(sp)
 8002b68:	00840134 	movhi	r2,4100
 8002b6c:	10841004 	addi	r2,r2,4160
 8002b70:	d8800115 	stw	r2,4(sp)
 8002b74:	00840134 	movhi	r2,4100
 8002b78:	10841404 	addi	r2,r2,4176
 8002b7c:	d8800015 	stw	r2,0(sp)
 8002b80:	01c08004 	movi	r7,512
 8002b84:	01810004 	movi	r6,1024
 8002b88:	01400604 	movi	r5,24
 8002b8c:	1809883a 	mov	r4,r3
 8002b90:	80012c00 	call	80012c0 <gppcu_init>
 8002b94:	e0bff404 	addi	r2,fp,-48
 8002b98:	01803c04 	movi	r6,240
 8002b9c:	01400204 	movi	r5,8
 8002ba0:	1009883a 	mov	r4,r2
 8002ba4:	80013b80 	call	80013b8 <gppcu_init_task>
 8002ba8:	01400604 	movi	r5,24
 8002bac:	01000304 	movi	r4,12
 8002bb0:	80029c40 	call	80029c4 <mem_clr>
 8002bb4:	e0bff404 	addi	r2,fp,-48
 8002bb8:	1009883a 	mov	r4,r2
 8002bbc:	800202c0 	call	800202c <gppcu_clear_instr>
 8002bc0:	e0bff404 	addi	r2,fp,-48
 8002bc4:	e0bff315 	stw	r2,-52(fp)
 8002bc8:	008000c4 	movi	r2,3
 8002bcc:	d8800015 	stw	r2,0(sp)
 8002bd0:	000f883a 	mov	r7,zero
 8002bd4:	000d883a 	mov	r6,zero
 8002bd8:	000b883a 	mov	r5,zero
 8002bdc:	e13ff317 	ldw	r4,-52(fp)
 8002be0:	80025d80 	call	80025d8 <gppcu_mvi>
 8002be4:	00800104 	movi	r2,4
 8002be8:	d8800015 	stw	r2,0(sp)
 8002bec:	01c00044 	movi	r7,1
 8002bf0:	000d883a 	mov	r6,zero
 8002bf4:	000b883a 	mov	r5,zero
 8002bf8:	e13ff317 	ldw	r4,-52(fp)
 8002bfc:	80025d80 	call	80025d8 <gppcu_mvi>
 8002c00:	d8000015 	stw	zero,0(sp)
 8002c04:	000f883a 	mov	r7,zero
 8002c08:	01800384 	movi	r6,14
 8002c0c:	000b883a 	mov	r5,zero
 8002c10:	e13ff317 	ldw	r4,-52(fp)
 8002c14:	80027680 	call	8002768 <gppcu_fp_0>
 8002c18:	00800044 	movi	r2,1
 8002c1c:	d8800015 	stw	r2,0(sp)
 8002c20:	01c00044 	movi	r7,1
 8002c24:	01800384 	movi	r6,14
 8002c28:	000b883a 	mov	r5,zero
 8002c2c:	e13ff317 	ldw	r4,-52(fp)
 8002c30:	80027680 	call	8002768 <gppcu_fp_0>
 8002c34:	d8000115 	stw	zero,4(sp)
 8002c38:	00800044 	movi	r2,1
 8002c3c:	d8800015 	stw	r2,0(sp)
 8002c40:	01c00084 	movi	r7,2
 8002c44:	01800404 	movi	r6,16
 8002c48:	000b883a 	mov	r5,zero
 8002c4c:	e13ff317 	ldw	r4,-52(fp)
 8002c50:	80026f00 	call	80026f0 <gppcu_fp_arith>
 8002c54:	d8000115 	stw	zero,4(sp)
 8002c58:	00800044 	movi	r2,1
 8002c5c:	d8800015 	stw	r2,0(sp)
 8002c60:	01c000c4 	movi	r7,3
 8002c64:	01800444 	movi	r6,17
 8002c68:	000b883a 	mov	r5,zero
 8002c6c:	e13ff317 	ldw	r4,-52(fp)
 8002c70:	80026f00 	call	80026f0 <gppcu_fp_arith>
 8002c74:	00800084 	movi	r2,2
 8002c78:	d8800015 	stw	r2,0(sp)
 8002c7c:	01c00104 	movi	r7,4
 8002c80:	01800544 	movi	r6,21
 8002c84:	000b883a 	mov	r5,zero
 8002c88:	e13ff317 	ldw	r4,-52(fp)
 8002c8c:	80027680 	call	8002768 <gppcu_fp_0>
 8002c90:	d0a00003 	ldbu	r2,-32768(gp)
 8002c94:	10803fcc 	andi	r2,r2,255
 8002c98:	d8000015 	stw	zero,0(sp)
 8002c9c:	100f883a 	mov	r7,r2
 8002ca0:	000d883a 	mov	r6,zero
 8002ca4:	000b883a 	mov	r5,zero
 8002ca8:	e13ff317 	ldw	r4,-52(fp)
 8002cac:	80027d80 	call	80027d8 <gppcu_stl>
 8002cb0:	d0a00003 	ldbu	r2,-32768(gp)
 8002cb4:	10c03fcc 	andi	r3,r2,255
 8002cb8:	00800044 	movi	r2,1
 8002cbc:	d8800015 	stw	r2,0(sp)
 8002cc0:	180f883a 	mov	r7,r3
 8002cc4:	01800044 	movi	r6,1
 8002cc8:	000b883a 	mov	r5,zero
 8002ccc:	e13ff317 	ldw	r4,-52(fp)
 8002cd0:	80027d80 	call	80027d8 <gppcu_stl>
 8002cd4:	d0a00003 	ldbu	r2,-32768(gp)
 8002cd8:	10c03fcc 	andi	r3,r2,255
 8002cdc:	00800084 	movi	r2,2
 8002ce0:	d8800015 	stw	r2,0(sp)
 8002ce4:	180f883a 	mov	r7,r3
 8002ce8:	01800084 	movi	r6,2
 8002cec:	000b883a 	mov	r5,zero
 8002cf0:	e13ff317 	ldw	r4,-52(fp)
 8002cf4:	80027d80 	call	80027d8 <gppcu_stl>
 8002cf8:	d0a00003 	ldbu	r2,-32768(gp)
 8002cfc:	10c03fcc 	andi	r3,r2,255
 8002d00:	008000c4 	movi	r2,3
 8002d04:	d8800015 	stw	r2,0(sp)
 8002d08:	180f883a 	mov	r7,r3
 8002d0c:	018000c4 	movi	r6,3
 8002d10:	000b883a 	mov	r5,zero
 8002d14:	e13ff317 	ldw	r4,-52(fp)
 8002d18:	80027d80 	call	80027d8 <gppcu_stl>
 8002d1c:	d0a00003 	ldbu	r2,-32768(gp)
 8002d20:	10c03fcc 	andi	r3,r2,255
 8002d24:	00800104 	movi	r2,4
 8002d28:	d8800015 	stw	r2,0(sp)
 8002d2c:	180f883a 	mov	r7,r3
 8002d30:	01800104 	movi	r6,4
 8002d34:	000b883a 	mov	r5,zero
 8002d38:	e13ff317 	ldw	r4,-52(fp)
 8002d3c:	80027d80 	call	80027d8 <gppcu_stl>
 8002d40:	e0bff404 	addi	r2,fp,-48
 8002d44:	1009883a 	mov	r4,r2
 8002d48:	8001ba00 	call	8001ba0 <gppcu_program_autofeed_device_parallel>
 8002d4c:	e0bff404 	addi	r2,fp,-48
 8002d50:	1009883a 	mov	r4,r2
 8002d54:	8001fb40 	call	8001fb4 <gppcu_run_autofeed_device>
 8002d58:	00000906 	br	8002d80 <main+0x238>
 8002d5c:	e0bff404 	addi	r2,fp,-48
 8002d60:	1009883a 	mov	r4,r2
 8002d64:	8001ba00 	call	8001ba0 <gppcu_program_autofeed_device_parallel>
 8002d68:	e0bff404 	addi	r2,fp,-48
 8002d6c:	1009883a 	mov	r4,r2
 8002d70:	8001fb40 	call	8001fb4 <gppcu_run_autofeed_device>
 8002d74:	010003f4 	movhi	r4,15
 8002d78:	21109004 	addi	r4,r4,16960
 8002d7c:	80028c40 	call	80028c4 <wait>
 8002d80:	80029080 	call	8002908 <display_stat_is_done>
 8002d84:	103ff526 	beq	r2,zero,8002d5c <__alt_data_end+0xf8002d5c>
 8002d88:	01800504 	movi	r6,20
 8002d8c:	000b883a 	mov	r5,zero
 8002d90:	01000304 	movi	r4,12
 8002d94:	8002a440 	call	8002a44 <monitor>
 8002d98:	003fff06 	br	8002d98 <__alt_data_end+0xf8002d98>

08002d9c <main__d>:
 8002d9c:	defefa04 	addi	sp,sp,-1048
 8002da0:	dfc10515 	stw	ra,1044(sp)
 8002da4:	df010415 	stw	fp,1040(sp)
 8002da8:	df010404 	addi	fp,sp,1040
 8002dac:	010200f4 	movhi	r4,2051
 8002db0:	211a5104 	addi	r4,r4,26948
 8002db4:	80272bc0 	call	80272bc <puts>
 8002db8:	00800404 	movi	r2,16
 8002dbc:	e0bf0015 	stw	r2,-1024(fp)
 8002dc0:	00800104 	movi	r2,4
 8002dc4:	e0bf0115 	stw	r2,-1020(fp)
 8002dc8:	00840134 	movhi	r2,4100
 8002dcc:	10841404 	addi	r2,r2,4176
 8002dd0:	e0bf0e15 	stw	r2,-968(fp)
 8002dd4:	00840134 	movhi	r2,4100
 8002dd8:	10841804 	addi	r2,r2,4192
 8002ddc:	e0bf0d15 	stw	r2,-972(fp)
 8002de0:	00840134 	movhi	r2,4100
 8002de4:	10841004 	addi	r2,r2,4160
 8002de8:	e0bf0c15 	stw	r2,-976(fp)
 8002dec:	e0bf0304 	addi	r2,fp,-1012
 8002df0:	01c08004 	movi	r7,512
 8002df4:	01810004 	movi	r6,1024
 8002df8:	01400604 	movi	r5,24
 8002dfc:	1009883a 	mov	r4,r2
 8002e00:	80011ec0 	call	80011ec <DEPRECATED__gppcu_init>
 8002e04:	e0bf0304 	addi	r2,fp,-1012
 8002e08:	01803c04 	movi	r6,240
 8002e0c:	01400104 	movi	r5,4
 8002e10:	1009883a 	mov	r4,r2
 8002e14:	80013b80 	call	80013b8 <gppcu_init_task>
 8002e18:	e0bf0304 	addi	r2,fp,-1012
 8002e1c:	1009883a 	mov	r4,r2
 8002e20:	800202c0 	call	800202c <gppcu_clear_instr>
 8002e24:	e03eff15 	stw	zero,-1028(fp)
 8002e28:	00000b06 	br	8002e58 <main__d+0xbc>
 8002e2c:	e0feff17 	ldw	r3,-1028(fp)
 8002e30:	e0beff17 	ldw	r2,-1028(fp)
 8002e34:	1085883a 	add	r2,r2,r2
 8002e38:	1085883a 	add	r2,r2,r2
 8002e3c:	e13eff04 	addi	r4,fp,-1028
 8002e40:	2085883a 	add	r2,r4,r2
 8002e44:	10801004 	addi	r2,r2,64
 8002e48:	10c00015 	stw	r3,0(r2)
 8002e4c:	e0beff17 	ldw	r2,-1028(fp)
 8002e50:	10800044 	addi	r2,r2,1
 8002e54:	e0beff15 	stw	r2,-1028(fp)
 8002e58:	e0beff17 	ldw	r2,-1028(fp)
 8002e5c:	10803c30 	cmpltui	r2,r2,240
 8002e60:	103ff21e 	bne	r2,zero,8002e2c <__alt_data_end+0xf8002e2c>
 8002e64:	e0bf0304 	addi	r2,fp,-1012
 8002e68:	e0bf0215 	stw	r2,-1016(fp)
 8002e6c:	d0a00003 	ldbu	r2,-32768(gp)
 8002e70:	10803fcc 	andi	r2,r2,255
 8002e74:	d8000215 	stw	zero,8(sp)
 8002e78:	d8800115 	stw	r2,4(sp)
 8002e7c:	d8000015 	stw	zero,0(sp)
 8002e80:	000f883a 	mov	r7,zero
 8002e84:	01800044 	movi	r6,1
 8002e88:	000b883a 	mov	r5,zero
 8002e8c:	e13f0217 	ldw	r4,-1016(fp)
 8002e90:	80025400 	call	8002540 <gppcu_arith_s>
 8002e94:	00800044 	movi	r2,1
 8002e98:	d8800215 	stw	r2,8(sp)
 8002e9c:	d8000115 	stw	zero,4(sp)
 8002ea0:	00800044 	movi	r2,1
 8002ea4:	d8800015 	stw	r2,0(sp)
 8002ea8:	000f883a 	mov	r7,zero
 8002eac:	01800204 	movi	r6,8
 8002eb0:	000b883a 	mov	r5,zero
 8002eb4:	e13f0217 	ldw	r4,-1016(fp)
 8002eb8:	80026580 	call	8002658 <gppcu_arith_b>
 8002ebc:	00800044 	movi	r2,1
 8002ec0:	d8800015 	stw	r2,0(sp)
 8002ec4:	000f883a 	mov	r7,zero
 8002ec8:	000d883a 	mov	r6,zero
 8002ecc:	000b883a 	mov	r5,zero
 8002ed0:	e13f0217 	ldw	r4,-1016(fp)
 8002ed4:	80027d80 	call	80027d8 <gppcu_stl>
 8002ed8:	00800084 	movi	r2,2
 8002edc:	d8800015 	stw	r2,0(sp)
 8002ee0:	000f883a 	mov	r7,zero
 8002ee4:	01800044 	movi	r6,1
 8002ee8:	000b883a 	mov	r5,zero
 8002eec:	e13f0217 	ldw	r4,-1016(fp)
 8002ef0:	80027d80 	call	80027d8 <gppcu_stl>
 8002ef4:	01c00044 	movi	r7,1
 8002ef8:	01800104 	movi	r6,4
 8002efc:	000b883a 	mov	r5,zero
 8002f00:	e13f0217 	ldw	r4,-1016(fp)
 8002f04:	80028540 	call	8002854 <gppcu_ldci>
 8002f08:	d8000015 	stw	zero,0(sp)
 8002f0c:	000f883a 	mov	r7,zero
 8002f10:	01800104 	movi	r6,4
 8002f14:	000b883a 	mov	r5,zero
 8002f18:	e13f0217 	ldw	r4,-1016(fp)
 8002f1c:	80027d80 	call	80027d8 <gppcu_stl>
 8002f20:	008cc8c4 	movi	r2,13091
 8002f24:	d8800015 	stw	r2,0(sp)
 8002f28:	01c00104 	movi	r7,4
 8002f2c:	000d883a 	mov	r6,zero
 8002f30:	000b883a 	mov	r5,zero
 8002f34:	e13f0217 	ldw	r4,-1016(fp)
 8002f38:	80025d80 	call	80025d8 <gppcu_mvi>
 8002f3c:	008000c4 	movi	r2,3
 8002f40:	d8800015 	stw	r2,0(sp)
 8002f44:	000f883a 	mov	r7,zero
 8002f48:	01800104 	movi	r6,4
 8002f4c:	000b883a 	mov	r5,zero
 8002f50:	e13f0217 	ldw	r4,-1016(fp)
 8002f54:	80027d80 	call	80027d8 <gppcu_stl>
 8002f58:	00848d04 	movi	r2,4660
 8002f5c:	e0bfff15 	stw	r2,-4(fp)
 8002f60:	e0ffff04 	addi	r3,fp,-4
 8002f64:	e0bf0304 	addi	r2,fp,-1012
 8002f68:	01c00044 	movi	r7,1
 8002f6c:	01800044 	movi	r6,1
 8002f70:	180b883a 	mov	r5,r3
 8002f74:	1009883a 	mov	r4,r2
 8002f78:	80023540 	call	8002354 <gppcu_write_const>
 8002f7c:	e17f0017 	ldw	r5,-1024(fp)
 8002f80:	e13f0117 	ldw	r4,-1020(fp)
 8002f84:	80029c40 	call	80029c4 <mem_clr>
 8002f88:	e0ff0f04 	addi	r3,fp,-964
 8002f8c:	e0bf0304 	addi	r2,fp,-1012
 8002f90:	000f883a 	mov	r7,zero
 8002f94:	01800044 	movi	r6,1
 8002f98:	180b883a 	mov	r5,r3
 8002f9c:	1009883a 	mov	r4,r2
 8002fa0:	80020580 	call	8002058 <gppcu_write>
 8002fa4:	e0bf0304 	addi	r2,fp,-1012
 8002fa8:	1009883a 	mov	r4,r2
 8002fac:	8001ba00 	call	8001ba0 <gppcu_program_autofeed_device_parallel>
 8002fb0:	e0bf0304 	addi	r2,fp,-1012
 8002fb4:	1009883a 	mov	r4,r2
 8002fb8:	8001fb40 	call	8001fb4 <gppcu_run_autofeed_device>
 8002fbc:	01001334 	movhi	r4,76
 8002fc0:	2112d004 	addi	r4,r4,19264
 8002fc4:	80028c40 	call	80028c4 <wait>
 8002fc8:	80029080 	call	8002908 <display_stat_is_done>
 8002fcc:	01800544 	movi	r6,21
 8002fd0:	000b883a 	mov	r5,zero
 8002fd4:	01000104 	movi	r4,4
 8002fd8:	8002a440 	call	8002a44 <monitor>
 8002fdc:	003fe706 	br	8002f7c <__alt_data_end+0xf8002f7c>

08002fe0 <main__2>:
 8002fe0:	deffc804 	addi	sp,sp,-224
 8002fe4:	dfc03715 	stw	ra,220(sp)
 8002fe8:	df003615 	stw	fp,216(sp)
 8002fec:	dcc03515 	stw	r19,212(sp)
 8002ff0:	dc803415 	stw	r18,208(sp)
 8002ff4:	dc403315 	stw	r17,204(sp)
 8002ff8:	dc003215 	stw	r16,200(sp)
 8002ffc:	df003604 	addi	fp,sp,216
 8003000:	e0bfd004 	addi	r2,fp,-192
 8003004:	10800404 	addi	r2,r2,16
 8003008:	1009883a 	mov	r4,r2
 800300c:	80079940 	call	8007994 <vec3_zero>
 8003010:	e0bfd004 	addi	r2,fp,-192
 8003014:	10800704 	addi	r2,r2,28
 8003018:	1009883a 	mov	r4,r2
 800301c:	80079940 	call	8007994 <vec3_zero>
 8003020:	e0bfd004 	addi	r2,fp,-192
 8003024:	10800a04 	addi	r2,r2,40
 8003028:	1009883a 	mov	r4,r2
 800302c:	80079d80 	call	80079d8 <vec3_one>
 8003030:	0090deb4 	movhi	r2,17274
 8003034:	e0bfe515 	stw	r2,-108(fp)
 8003038:	008fe034 	movhi	r2,16256
 800303c:	e0bfe415 	stw	r2,-112(fp)
 8003040:	0090aab4 	movhi	r2,17066
 8003044:	e0bfe315 	stw	r2,-116(fp)
 8003048:	e0bfdd04 	addi	r2,fp,-140
 800304c:	01d09234 	movhi	r7,16968
 8003050:	000d883a 	mov	r6,zero
 8003054:	000b883a 	mov	r5,zero
 8003058:	1009883a 	mov	r4,r2
 800305c:	80078640 	call	8007864 <vec3>
 8003060:	e0bfdd04 	addi	r2,fp,-140
 8003064:	10800304 	addi	r2,r2,12
 8003068:	1009883a 	mov	r4,r2
 800306c:	80079940 	call	8007994 <vec3_zero>
 8003070:	e13fd004 	addi	r4,fp,-192
 8003074:	e0ffdd04 	addi	r3,fp,-140
 8003078:	e0bfe604 	addi	r2,fp,-104
 800307c:	200d883a 	mov	r6,r4
 8003080:	180b883a 	mov	r5,r3
 8003084:	1009883a 	mov	r4,r2
 8003088:	80006e80 	call	80006e8 <app_calc_object_constant>
 800308c:	e03fcd15 	stw	zero,-204(fp)
 8003090:	e03fce15 	stw	zero,-200(fp)
 8003094:	e03fcf15 	stw	zero,-196(fp)
 8003098:	e0fff804 	addi	r3,fp,-32
 800309c:	008fe034 	movhi	r2,16256
 80030a0:	d8800015 	stw	r2,0(sp)
 80030a4:	e1ffcf17 	ldw	r7,-196(fp)
 80030a8:	e1bfce17 	ldw	r6,-200(fp)
 80030ac:	e17fcd17 	ldw	r5,-204(fp)
 80030b0:	1809883a 	mov	r4,r3
 80030b4:	80098e40 	call	80098e4 <vec4>
 80030b8:	e13fe604 	addi	r4,fp,-104
 80030bc:	e0fff804 	addi	r3,fp,-32
 80030c0:	e0bff804 	addi	r2,fp,-32
 80030c4:	200d883a 	mov	r6,r4
 80030c8:	180b883a 	mov	r5,r3
 80030cc:	1009883a 	mov	r4,r2
 80030d0:	800a0d40 	call	800a0d4 <vec4_multiply_mat4>
 80030d4:	e13fcd17 	ldw	r4,-204(fp)
 80030d8:	8025a200 	call	8025a20 <__extendsfdf2>
 80030dc:	1025883a 	mov	r18,r2
 80030e0:	1827883a 	mov	r19,r3
 80030e4:	e13fce17 	ldw	r4,-200(fp)
 80030e8:	8025a200 	call	8025a20 <__extendsfdf2>
 80030ec:	1021883a 	mov	r16,r2
 80030f0:	1823883a 	mov	r17,r3
 80030f4:	e13fcf17 	ldw	r4,-196(fp)
 80030f8:	8025a200 	call	8025a20 <__extendsfdf2>
 80030fc:	1009883a 	mov	r4,r2
 8003100:	180b883a 	mov	r5,r3
 8003104:	d9000115 	stw	r4,4(sp)
 8003108:	d9400215 	stw	r5,8(sp)
 800310c:	dc400015 	stw	r17,0(sp)
 8003110:	800f883a 	mov	r7,r16
 8003114:	900b883a 	mov	r5,r18
 8003118:	980d883a 	mov	r6,r19
 800311c:	010200f4 	movhi	r4,2051
 8003120:	211a5b04 	addi	r4,r4,26988
 8003124:	80270b00 	call	80270b0 <printf>
 8003128:	e0bff817 	ldw	r2,-32(fp)
 800312c:	1009883a 	mov	r4,r2
 8003130:	8025a200 	call	8025a20 <__extendsfdf2>
 8003134:	1025883a 	mov	r18,r2
 8003138:	1827883a 	mov	r19,r3
 800313c:	e0bff917 	ldw	r2,-28(fp)
 8003140:	1009883a 	mov	r4,r2
 8003144:	8025a200 	call	8025a20 <__extendsfdf2>
 8003148:	1021883a 	mov	r16,r2
 800314c:	1823883a 	mov	r17,r3
 8003150:	e0bffa17 	ldw	r2,-24(fp)
 8003154:	1009883a 	mov	r4,r2
 8003158:	8025a200 	call	8025a20 <__extendsfdf2>
 800315c:	1009883a 	mov	r4,r2
 8003160:	180b883a 	mov	r5,r3
 8003164:	d9000115 	stw	r4,4(sp)
 8003168:	d9400215 	stw	r5,8(sp)
 800316c:	dc400015 	stw	r17,0(sp)
 8003170:	800f883a 	mov	r7,r16
 8003174:	900b883a 	mov	r5,r18
 8003178:	980d883a 	mov	r6,r19
 800317c:	010200f4 	movhi	r4,2051
 8003180:	211a6104 	addi	r4,r4,27012
 8003184:	80270b00 	call	80270b0 <printf>
 8003188:	e13ffa17 	ldw	r4,-24(fp)
 800318c:	e0fff804 	addi	r3,fp,-32
 8003190:	e0bff804 	addi	r2,fp,-32
 8003194:	200d883a 	mov	r6,r4
 8003198:	180b883a 	mov	r5,r3
 800319c:	1009883a 	mov	r4,r2
 80031a0:	800808c0 	call	800808c <vec3_divide_f>
 80031a4:	e0fff817 	ldw	r3,-32(fp)
 80031a8:	008fc034 	movhi	r2,16128
 80031ac:	1885ff72 	custom	253,r2,r3,r2
 80031b0:	e0bff815 	stw	r2,-32(fp)
 80031b4:	e0fff917 	ldw	r3,-28(fp)
 80031b8:	008fc034 	movhi	r2,16128
 80031bc:	1885ff72 	custom	253,r2,r3,r2
 80031c0:	e0bff915 	stw	r2,-28(fp)
 80031c4:	e0fff817 	ldw	r3,-32(fp)
 80031c8:	e0bff617 	ldw	r2,-40(fp)
 80031cc:	1885ff32 	custom	252,r2,r3,r2
 80031d0:	e0bff815 	stw	r2,-32(fp)
 80031d4:	e0fff917 	ldw	r3,-28(fp)
 80031d8:	e0bff717 	ldw	r2,-36(fp)
 80031dc:	1885ff32 	custom	252,r2,r3,r2
 80031e0:	e0bff915 	stw	r2,-28(fp)
 80031e4:	e0bff817 	ldw	r2,-32(fp)
 80031e8:	1009883a 	mov	r4,r2
 80031ec:	8025a200 	call	8025a20 <__extendsfdf2>
 80031f0:	1025883a 	mov	r18,r2
 80031f4:	1827883a 	mov	r19,r3
 80031f8:	e0bff917 	ldw	r2,-28(fp)
 80031fc:	1009883a 	mov	r4,r2
 8003200:	8025a200 	call	8025a20 <__extendsfdf2>
 8003204:	1021883a 	mov	r16,r2
 8003208:	1823883a 	mov	r17,r3
 800320c:	e0bffa17 	ldw	r2,-24(fp)
 8003210:	1009883a 	mov	r4,r2
 8003214:	8025a200 	call	8025a20 <__extendsfdf2>
 8003218:	1009883a 	mov	r4,r2
 800321c:	180b883a 	mov	r5,r3
 8003220:	d9000115 	stw	r4,4(sp)
 8003224:	d9400215 	stw	r5,8(sp)
 8003228:	dc400015 	stw	r17,0(sp)
 800322c:	800f883a 	mov	r7,r16
 8003230:	900b883a 	mov	r5,r18
 8003234:	980d883a 	mov	r6,r19
 8003238:	010200f4 	movhi	r4,2051
 800323c:	211a6704 	addi	r4,r4,27036
 8003240:	80270b00 	call	80270b0 <printf>
 8003244:	01001334 	movhi	r4,76
 8003248:	2112d004 	addi	r4,r4,19264
 800324c:	80028c40 	call	80028c4 <wait>
 8003250:	80273380 	call	8027338 <rand>
 8003254:	01401904 	movi	r5,100
 8003258:	1009883a 	mov	r4,r2
 800325c:	8023dd80 	call	8023dd8 <__modsi3>
 8003260:	10bff384 	addi	r2,r2,-50
 8003264:	1005feb2 	custom	250,r2,r2,zero
 8003268:	e0bfcd15 	stw	r2,-204(fp)
 800326c:	80273380 	call	8027338 <rand>
 8003270:	01401904 	movi	r5,100
 8003274:	1009883a 	mov	r4,r2
 8003278:	8023dd80 	call	8023dd8 <__modsi3>
 800327c:	10bff384 	addi	r2,r2,-50
 8003280:	1005feb2 	custom	250,r2,r2,zero
 8003284:	e0bfce15 	stw	r2,-200(fp)
 8003288:	80273380 	call	8027338 <rand>
 800328c:	01401904 	movi	r5,100
 8003290:	1009883a 	mov	r4,r2
 8003294:	8023dd80 	call	8023dd8 <__modsi3>
 8003298:	10bff384 	addi	r2,r2,-50
 800329c:	1005feb2 	custom	250,r2,r2,zero
 80032a0:	e0bfcf15 	stw	r2,-196(fp)
 80032a4:	003f7c06 	br	8003098 <__alt_data_end+0xf8003098>

080032a8 <main__1>:
 80032a8:	defefb04 	addi	sp,sp,-1044
 80032ac:	dfc10415 	stw	ra,1040(sp)
 80032b0:	df010315 	stw	fp,1036(sp)
 80032b4:	df010304 	addi	fp,sp,1036
 80032b8:	010200f4 	movhi	r4,2051
 80032bc:	211a5104 	addi	r4,r4,26948
 80032c0:	80272bc0 	call	80272bc <puts>
 80032c4:	00800404 	movi	r2,16
 80032c8:	e0bf0115 	stw	r2,-1020(fp)
 80032cc:	00800104 	movi	r2,4
 80032d0:	e0bf0215 	stw	r2,-1016(fp)
 80032d4:	00840134 	movhi	r2,4100
 80032d8:	10841404 	addi	r2,r2,4176
 80032dc:	e0bf0e15 	stw	r2,-968(fp)
 80032e0:	00840134 	movhi	r2,4100
 80032e4:	10841804 	addi	r2,r2,4192
 80032e8:	e0bf0d15 	stw	r2,-972(fp)
 80032ec:	00840134 	movhi	r2,4100
 80032f0:	10841004 	addi	r2,r2,4160
 80032f4:	e0bf0c15 	stw	r2,-976(fp)
 80032f8:	e0bf0304 	addi	r2,fp,-1012
 80032fc:	01c08004 	movi	r7,512
 8003300:	01810004 	movi	r6,1024
 8003304:	01400604 	movi	r5,24
 8003308:	1009883a 	mov	r4,r2
 800330c:	80011ec0 	call	80011ec <DEPRECATED__gppcu_init>
 8003310:	e0bf0304 	addi	r2,fp,-1012
 8003314:	01803c04 	movi	r6,240
 8003318:	01400104 	movi	r5,4
 800331c:	1009883a 	mov	r4,r2
 8003320:	80013b80 	call	80013b8 <gppcu_init_task>
 8003324:	e0bf0304 	addi	r2,fp,-1012
 8003328:	1009883a 	mov	r4,r2
 800332c:	800202c0 	call	800202c <gppcu_clear_instr>
 8003330:	e03f0015 	stw	zero,-1024(fp)
 8003334:	00000b06 	br	8003364 <main__1+0xbc>
 8003338:	e0ff0017 	ldw	r3,-1024(fp)
 800333c:	e0bf0017 	ldw	r2,-1024(fp)
 8003340:	1085883a 	add	r2,r2,r2
 8003344:	1085883a 	add	r2,r2,r2
 8003348:	e13f0004 	addi	r4,fp,-1024
 800334c:	2085883a 	add	r2,r4,r2
 8003350:	10800f04 	addi	r2,r2,60
 8003354:	10c00015 	stw	r3,0(r2)
 8003358:	e0bf0017 	ldw	r2,-1024(fp)
 800335c:	10800044 	addi	r2,r2,1
 8003360:	e0bf0015 	stw	r2,-1024(fp)
 8003364:	e0bf0017 	ldw	r2,-1024(fp)
 8003368:	10803c30 	cmpltui	r2,r2,240
 800336c:	103ff21e 	bne	r2,zero,8003338 <__alt_data_end+0xf8003338>
 8003370:	d0a00003 	ldbu	r2,-32768(gp)
 8003374:	10803fcc 	andi	r2,r2,255
 8003378:	e0ff0304 	addi	r3,fp,-1012
 800337c:	d8000215 	stw	zero,8(sp)
 8003380:	d8800115 	stw	r2,4(sp)
 8003384:	d8000015 	stw	zero,0(sp)
 8003388:	000f883a 	mov	r7,zero
 800338c:	01800044 	movi	r6,1
 8003390:	000b883a 	mov	r5,zero
 8003394:	1809883a 	mov	r4,r3
 8003398:	80025400 	call	8002540 <gppcu_arith_s>
 800339c:	e0ff0304 	addi	r3,fp,-1012
 80033a0:	00800044 	movi	r2,1
 80033a4:	d8800215 	stw	r2,8(sp)
 80033a8:	d8000115 	stw	zero,4(sp)
 80033ac:	00800044 	movi	r2,1
 80033b0:	d8800015 	stw	r2,0(sp)
 80033b4:	000f883a 	mov	r7,zero
 80033b8:	01800204 	movi	r6,8
 80033bc:	000b883a 	mov	r5,zero
 80033c0:	1809883a 	mov	r4,r3
 80033c4:	80026580 	call	8002658 <gppcu_arith_b>
 80033c8:	e0ff0304 	addi	r3,fp,-1012
 80033cc:	00800044 	movi	r2,1
 80033d0:	d8800015 	stw	r2,0(sp)
 80033d4:	000f883a 	mov	r7,zero
 80033d8:	000d883a 	mov	r6,zero
 80033dc:	000b883a 	mov	r5,zero
 80033e0:	1809883a 	mov	r4,r3
 80033e4:	80027d80 	call	80027d8 <gppcu_stl>
 80033e8:	e0ff0304 	addi	r3,fp,-1012
 80033ec:	00800084 	movi	r2,2
 80033f0:	d8800015 	stw	r2,0(sp)
 80033f4:	000f883a 	mov	r7,zero
 80033f8:	01800044 	movi	r6,1
 80033fc:	000b883a 	mov	r5,zero
 8003400:	1809883a 	mov	r4,r3
 8003404:	80027d80 	call	80027d8 <gppcu_stl>
 8003408:	e0bf0304 	addi	r2,fp,-1012
 800340c:	01c00044 	movi	r7,1
 8003410:	01800104 	movi	r6,4
 8003414:	000b883a 	mov	r5,zero
 8003418:	1009883a 	mov	r4,r2
 800341c:	80028540 	call	8002854 <gppcu_ldci>
 8003420:	e0bf0304 	addi	r2,fp,-1012
 8003424:	d8000015 	stw	zero,0(sp)
 8003428:	000f883a 	mov	r7,zero
 800342c:	01800104 	movi	r6,4
 8003430:	000b883a 	mov	r5,zero
 8003434:	1009883a 	mov	r4,r2
 8003438:	80027d80 	call	80027d8 <gppcu_stl>
 800343c:	00848d04 	movi	r2,4660
 8003440:	e0bfff15 	stw	r2,-4(fp)
 8003444:	e0ffff04 	addi	r3,fp,-4
 8003448:	e0bf0304 	addi	r2,fp,-1012
 800344c:	01c00044 	movi	r7,1
 8003450:	01800044 	movi	r6,1
 8003454:	180b883a 	mov	r5,r3
 8003458:	1009883a 	mov	r4,r2
 800345c:	80023540 	call	8002354 <gppcu_write_const>
 8003460:	e17f0117 	ldw	r5,-1020(fp)
 8003464:	e13f0217 	ldw	r4,-1016(fp)
 8003468:	80029c40 	call	80029c4 <mem_clr>
 800346c:	e0ff0f04 	addi	r3,fp,-964
 8003470:	e0bf0304 	addi	r2,fp,-1012
 8003474:	000f883a 	mov	r7,zero
 8003478:	01800044 	movi	r6,1
 800347c:	180b883a 	mov	r5,r3
 8003480:	1009883a 	mov	r4,r2
 8003484:	80020580 	call	8002058 <gppcu_write>
 8003488:	e0bf0304 	addi	r2,fp,-1012
 800348c:	1009883a 	mov	r4,r2
 8003490:	8001ba00 	call	8001ba0 <gppcu_program_autofeed_device_parallel>
 8003494:	e0bf0304 	addi	r2,fp,-1012
 8003498:	1009883a 	mov	r4,r2
 800349c:	8001fb40 	call	8001fb4 <gppcu_run_autofeed_device>
 80034a0:	01001334 	movhi	r4,76
 80034a4:	2112d004 	addi	r4,r4,19264
 80034a8:	80028c40 	call	80028c4 <wait>
 80034ac:	80029080 	call	8002908 <display_stat_is_done>
 80034b0:	01800544 	movi	r6,21
 80034b4:	000b883a 	mov	r5,zero
 80034b8:	01000104 	movi	r4,4
 80034bc:	8002a440 	call	8002a44 <monitor>
 80034c0:	003fe706 	br	8003460 <__alt_data_end+0xf8003460>

080034c4 <clampi>:
 80034c4:	defffc04 	addi	sp,sp,-16
 80034c8:	df000315 	stw	fp,12(sp)
 80034cc:	df000304 	addi	fp,sp,12
 80034d0:	e13ffd15 	stw	r4,-12(fp)
 80034d4:	e17ffe15 	stw	r5,-8(fp)
 80034d8:	e1bfff15 	stw	r6,-4(fp)
 80034dc:	e0fffd17 	ldw	r3,-12(fp)
 80034e0:	e0bffe17 	ldw	r2,-8(fp)
 80034e4:	1880030e 	bge	r3,r2,80034f4 <clampi+0x30>
 80034e8:	e0bffe17 	ldw	r2,-8(fp)
 80034ec:	e0bffd15 	stw	r2,-12(fp)
 80034f0:	00000506 	br	8003508 <clampi+0x44>
 80034f4:	e0bffd17 	ldw	r2,-12(fp)
 80034f8:	e0ffff17 	ldw	r3,-4(fp)
 80034fc:	1880020e 	bge	r3,r2,8003508 <clampi+0x44>
 8003500:	e0bfff17 	ldw	r2,-4(fp)
 8003504:	e0bffd15 	stw	r2,-12(fp)
 8003508:	e0bffd17 	ldw	r2,-12(fp)
 800350c:	e037883a 	mov	sp,fp
 8003510:	df000017 	ldw	fp,0(sp)
 8003514:	dec00104 	addi	sp,sp,4
 8003518:	f800283a 	ret

0800351c <nearly_equal>:
 800351c:	defffb04 	addi	sp,sp,-20
 8003520:	df000415 	stw	fp,16(sp)
 8003524:	df000404 	addi	fp,sp,16
 8003528:	e13ffd15 	stw	r4,-12(fp)
 800352c:	e17ffe15 	stw	r5,-8(fp)
 8003530:	e1bfff15 	stw	r6,-4(fp)
 8003534:	e03ffc05 	stb	zero,-16(fp)
 8003538:	e0fffd17 	ldw	r3,-12(fp)
 800353c:	e0bffe17 	ldw	r2,-8(fp)
 8003540:	1885f8b2 	custom	226,r2,r3,r2
 8003544:	1000031e 	bne	r2,zero,8003554 <nearly_equal+0x38>
 8003548:	00800044 	movi	r2,1
 800354c:	e0bffc05 	stb	r2,-16(fp)
 8003550:	00000906 	br	8003578 <nearly_equal+0x5c>
 8003554:	e0fffd17 	ldw	r3,-12(fp)
 8003558:	e0bffe17 	ldw	r2,-8(fp)
 800355c:	1885ffb2 	custom	254,r2,r3,r2
 8003560:	1007f832 	custom	224,r3,r2,zero
 8003564:	e0bfff17 	ldw	r2,-4(fp)
 8003568:	1885f9b2 	custom	230,r2,r3,r2
 800356c:	10000226 	beq	r2,zero,8003578 <nearly_equal+0x5c>
 8003570:	00800044 	movi	r2,1
 8003574:	e0bffc05 	stb	r2,-16(fp)
 8003578:	e0bffc03 	ldbu	r2,-16(fp)
 800357c:	e037883a 	mov	sp,fp
 8003580:	df000017 	ldw	fp,0(sp)
 8003584:	dec00104 	addi	sp,sp,4
 8003588:	f800283a 	ret

0800358c <to_radians>:
 800358c:	defffe04 	addi	sp,sp,-8
 8003590:	df000115 	stw	fp,4(sp)
 8003594:	df000104 	addi	fp,sp,4
 8003598:	e13fff15 	stw	r4,-4(fp)
 800359c:	e0ffff17 	ldw	r3,-4(fp)
 80035a0:	00901274 	movhi	r2,16457
 80035a4:	1083f6c4 	addi	r2,r2,4059
 80035a8:	1887ff32 	custom	252,r3,r3,r2
 80035ac:	0090cd34 	movhi	r2,17204
 80035b0:	1885fff2 	custom	255,r2,r3,r2
 80035b4:	1007883a 	mov	r3,r2
 80035b8:	1805883a 	mov	r2,r3
 80035bc:	e037883a 	mov	sp,fp
 80035c0:	df000017 	ldw	fp,0(sp)
 80035c4:	dec00104 	addi	sp,sp,4
 80035c8:	f800283a 	ret

080035cc <to_degrees>:
 80035cc:	defffe04 	addi	sp,sp,-8
 80035d0:	df000115 	stw	fp,4(sp)
 80035d4:	df000104 	addi	fp,sp,4
 80035d8:	e13fff15 	stw	r4,-4(fp)
 80035dc:	e0ffff17 	ldw	r3,-4(fp)
 80035e0:	0090cd34 	movhi	r2,17204
 80035e4:	1887ff32 	custom	252,r3,r3,r2
 80035e8:	00901274 	movhi	r2,16457
 80035ec:	1083f6c4 	addi	r2,r2,4059
 80035f0:	1885fff2 	custom	255,r2,r3,r2
 80035f4:	1007883a 	mov	r3,r2
 80035f8:	1805883a 	mov	r2,r3
 80035fc:	e037883a 	mov	sp,fp
 8003600:	df000017 	ldw	fp,0(sp)
 8003604:	dec00104 	addi	sp,sp,4
 8003608:	f800283a 	ret

0800360c <clampf>:
 800360c:	defffc04 	addi	sp,sp,-16
 8003610:	df000315 	stw	fp,12(sp)
 8003614:	df000304 	addi	fp,sp,12
 8003618:	e13ffd15 	stw	r4,-12(fp)
 800361c:	e17ffe15 	stw	r5,-8(fp)
 8003620:	e1bfff15 	stw	r6,-4(fp)
 8003624:	e0fffd17 	ldw	r3,-12(fp)
 8003628:	e0bffe17 	ldw	r2,-8(fp)
 800362c:	1885f9f2 	custom	231,r2,r3,r2
 8003630:	10000326 	beq	r2,zero,8003640 <clampf+0x34>
 8003634:	e0bffe17 	ldw	r2,-8(fp)
 8003638:	e0bffd15 	stw	r2,-12(fp)
 800363c:	00000606 	br	8003658 <clampf+0x4c>
 8003640:	e0fffd17 	ldw	r3,-12(fp)
 8003644:	e0bfff17 	ldw	r2,-4(fp)
 8003648:	1885f972 	custom	229,r2,r3,r2
 800364c:	10000226 	beq	r2,zero,8003658 <clampf+0x4c>
 8003650:	e0bfff17 	ldw	r2,-4(fp)
 8003654:	e0bffd15 	stw	r2,-12(fp)
 8003658:	e0bffd17 	ldw	r2,-12(fp)
 800365c:	1007883a 	mov	r3,r2
 8003660:	1805883a 	mov	r2,r3
 8003664:	e037883a 	mov	sp,fp
 8003668:	df000017 	ldw	fp,0(sp)
 800366c:	dec00104 	addi	sp,sp,4
 8003670:	f800283a 	ret

08003674 <vec2i_is_zero>:
 8003674:	defffe04 	addi	sp,sp,-8
 8003678:	df000115 	stw	fp,4(sp)
 800367c:	df000104 	addi	fp,sp,4
 8003680:	e13fff15 	stw	r4,-4(fp)
 8003684:	e0bfff17 	ldw	r2,-4(fp)
 8003688:	10800017 	ldw	r2,0(r2)
 800368c:	1000061e 	bne	r2,zero,80036a8 <vec2i_is_zero+0x34>
 8003690:	e0bfff17 	ldw	r2,-4(fp)
 8003694:	10800104 	addi	r2,r2,4
 8003698:	10800017 	ldw	r2,0(r2)
 800369c:	1000021e 	bne	r2,zero,80036a8 <vec2i_is_zero+0x34>
 80036a0:	00800044 	movi	r2,1
 80036a4:	00000106 	br	80036ac <vec2i_is_zero+0x38>
 80036a8:	0005883a 	mov	r2,zero
 80036ac:	1080004c 	andi	r2,r2,1
 80036b0:	e037883a 	mov	sp,fp
 80036b4:	df000017 	ldw	fp,0(sp)
 80036b8:	dec00104 	addi	sp,sp,4
 80036bc:	f800283a 	ret

080036c0 <vec2i_is_equal>:
 80036c0:	defffd04 	addi	sp,sp,-12
 80036c4:	df000215 	stw	fp,8(sp)
 80036c8:	df000204 	addi	fp,sp,8
 80036cc:	e13ffe15 	stw	r4,-8(fp)
 80036d0:	e17fff15 	stw	r5,-4(fp)
 80036d4:	e0bffe17 	ldw	r2,-8(fp)
 80036d8:	10c00017 	ldw	r3,0(r2)
 80036dc:	e0bfff17 	ldw	r2,-4(fp)
 80036e0:	10800017 	ldw	r2,0(r2)
 80036e4:	1880091e 	bne	r3,r2,800370c <vec2i_is_equal+0x4c>
 80036e8:	e0bffe17 	ldw	r2,-8(fp)
 80036ec:	10800104 	addi	r2,r2,4
 80036f0:	10c00017 	ldw	r3,0(r2)
 80036f4:	e0bfff17 	ldw	r2,-4(fp)
 80036f8:	10800104 	addi	r2,r2,4
 80036fc:	10800017 	ldw	r2,0(r2)
 8003700:	1880021e 	bne	r3,r2,800370c <vec2i_is_equal+0x4c>
 8003704:	00800044 	movi	r2,1
 8003708:	00000106 	br	8003710 <vec2i_is_equal+0x50>
 800370c:	0005883a 	mov	r2,zero
 8003710:	1080004c 	andi	r2,r2,1
 8003714:	e037883a 	mov	sp,fp
 8003718:	df000017 	ldw	fp,0(sp)
 800371c:	dec00104 	addi	sp,sp,4
 8003720:	f800283a 	ret

08003724 <vec2i>:
 8003724:	defffc04 	addi	sp,sp,-16
 8003728:	df000315 	stw	fp,12(sp)
 800372c:	df000304 	addi	fp,sp,12
 8003730:	e13ffd15 	stw	r4,-12(fp)
 8003734:	e17ffe15 	stw	r5,-8(fp)
 8003738:	e1bfff15 	stw	r6,-4(fp)
 800373c:	e0bffd17 	ldw	r2,-12(fp)
 8003740:	e0fffe17 	ldw	r3,-8(fp)
 8003744:	10c00015 	stw	r3,0(r2)
 8003748:	e0bffd17 	ldw	r2,-12(fp)
 800374c:	10800104 	addi	r2,r2,4
 8003750:	e0ffff17 	ldw	r3,-4(fp)
 8003754:	10c00015 	stw	r3,0(r2)
 8003758:	e0bffd17 	ldw	r2,-12(fp)
 800375c:	e037883a 	mov	sp,fp
 8003760:	df000017 	ldw	fp,0(sp)
 8003764:	dec00104 	addi	sp,sp,4
 8003768:	f800283a 	ret

0800376c <vec2i_assign>:
 800376c:	defffd04 	addi	sp,sp,-12
 8003770:	df000215 	stw	fp,8(sp)
 8003774:	df000204 	addi	fp,sp,8
 8003778:	e13ffe15 	stw	r4,-8(fp)
 800377c:	e17fff15 	stw	r5,-4(fp)
 8003780:	e0bfff17 	ldw	r2,-4(fp)
 8003784:	10c00017 	ldw	r3,0(r2)
 8003788:	e0bffe17 	ldw	r2,-8(fp)
 800378c:	10c00015 	stw	r3,0(r2)
 8003790:	e0bffe17 	ldw	r2,-8(fp)
 8003794:	10800104 	addi	r2,r2,4
 8003798:	e0ffff17 	ldw	r3,-4(fp)
 800379c:	18c00117 	ldw	r3,4(r3)
 80037a0:	10c00015 	stw	r3,0(r2)
 80037a4:	e0bffe17 	ldw	r2,-8(fp)
 80037a8:	e037883a 	mov	sp,fp
 80037ac:	df000017 	ldw	fp,0(sp)
 80037b0:	dec00104 	addi	sp,sp,4
 80037b4:	f800283a 	ret

080037b8 <vec2i_assign_vec2>:
 80037b8:	defffd04 	addi	sp,sp,-12
 80037bc:	df000215 	stw	fp,8(sp)
 80037c0:	df000204 	addi	fp,sp,8
 80037c4:	e13ffe15 	stw	r4,-8(fp)
 80037c8:	e17fff15 	stw	r5,-4(fp)
 80037cc:	e0ffff17 	ldw	r3,-4(fp)
 80037d0:	18800017 	ldw	r2,0(r3)
 80037d4:	1007fe72 	custom	249,r3,r2,zero
 80037d8:	e0bffe17 	ldw	r2,-8(fp)
 80037dc:	10c00015 	stw	r3,0(r2)
 80037e0:	e0bffe17 	ldw	r2,-8(fp)
 80037e4:	10800104 	addi	r2,r2,4
 80037e8:	e0ffff17 	ldw	r3,-4(fp)
 80037ec:	19000104 	addi	r4,r3,4
 80037f0:	20c00017 	ldw	r3,0(r4)
 80037f4:	1807fe72 	custom	249,r3,r3,zero
 80037f8:	10c00015 	stw	r3,0(r2)
 80037fc:	e0bffe17 	ldw	r2,-8(fp)
 8003800:	e037883a 	mov	sp,fp
 8003804:	df000017 	ldw	fp,0(sp)
 8003808:	dec00104 	addi	sp,sp,4
 800380c:	f800283a 	ret

08003810 <vec2i_zero>:
 8003810:	defffe04 	addi	sp,sp,-8
 8003814:	df000115 	stw	fp,4(sp)
 8003818:	df000104 	addi	fp,sp,4
 800381c:	e13fff15 	stw	r4,-4(fp)
 8003820:	e0bfff17 	ldw	r2,-4(fp)
 8003824:	10000015 	stw	zero,0(r2)
 8003828:	e0bfff17 	ldw	r2,-4(fp)
 800382c:	10800104 	addi	r2,r2,4
 8003830:	10000015 	stw	zero,0(r2)
 8003834:	e0bfff17 	ldw	r2,-4(fp)
 8003838:	e037883a 	mov	sp,fp
 800383c:	df000017 	ldw	fp,0(sp)
 8003840:	dec00104 	addi	sp,sp,4
 8003844:	f800283a 	ret

08003848 <vec2i_one>:
 8003848:	defffe04 	addi	sp,sp,-8
 800384c:	df000115 	stw	fp,4(sp)
 8003850:	df000104 	addi	fp,sp,4
 8003854:	e13fff15 	stw	r4,-4(fp)
 8003858:	e0bfff17 	ldw	r2,-4(fp)
 800385c:	00c00044 	movi	r3,1
 8003860:	10c00015 	stw	r3,0(r2)
 8003864:	e0bfff17 	ldw	r2,-4(fp)
 8003868:	10800104 	addi	r2,r2,4
 800386c:	00c00044 	movi	r3,1
 8003870:	10c00015 	stw	r3,0(r2)
 8003874:	e0bfff17 	ldw	r2,-4(fp)
 8003878:	e037883a 	mov	sp,fp
 800387c:	df000017 	ldw	fp,0(sp)
 8003880:	dec00104 	addi	sp,sp,4
 8003884:	f800283a 	ret

08003888 <vec2i_sign>:
 8003888:	defffd04 	addi	sp,sp,-12
 800388c:	df000215 	stw	fp,8(sp)
 8003890:	df000204 	addi	fp,sp,8
 8003894:	e13ffe15 	stw	r4,-8(fp)
 8003898:	e17fff15 	stw	r5,-4(fp)
 800389c:	e0bfff17 	ldw	r2,-4(fp)
 80038a0:	10800017 	ldw	r2,0(r2)
 80038a4:	0080040e 	bge	zero,r2,80038b8 <vec2i_sign+0x30>
 80038a8:	e0bffe17 	ldw	r2,-8(fp)
 80038ac:	00c00044 	movi	r3,1
 80038b0:	10c00015 	stw	r3,0(r2)
 80038b4:	00000906 	br	80038dc <vec2i_sign+0x54>
 80038b8:	e0bfff17 	ldw	r2,-4(fp)
 80038bc:	10800017 	ldw	r2,0(r2)
 80038c0:	1000040e 	bge	r2,zero,80038d4 <vec2i_sign+0x4c>
 80038c4:	e0bffe17 	ldw	r2,-8(fp)
 80038c8:	00ffffc4 	movi	r3,-1
 80038cc:	10c00015 	stw	r3,0(r2)
 80038d0:	00000206 	br	80038dc <vec2i_sign+0x54>
 80038d4:	e0bffe17 	ldw	r2,-8(fp)
 80038d8:	10000015 	stw	zero,0(r2)
 80038dc:	e0bfff17 	ldw	r2,-4(fp)
 80038e0:	10800104 	addi	r2,r2,4
 80038e4:	10800017 	ldw	r2,0(r2)
 80038e8:	0080050e 	bge	zero,r2,8003900 <vec2i_sign+0x78>
 80038ec:	e0bffe17 	ldw	r2,-8(fp)
 80038f0:	10800104 	addi	r2,r2,4
 80038f4:	00c00044 	movi	r3,1
 80038f8:	10c00015 	stw	r3,0(r2)
 80038fc:	00000c06 	br	8003930 <vec2i_sign+0xa8>
 8003900:	e0bfff17 	ldw	r2,-4(fp)
 8003904:	10800104 	addi	r2,r2,4
 8003908:	10800017 	ldw	r2,0(r2)
 800390c:	1000050e 	bge	r2,zero,8003924 <vec2i_sign+0x9c>
 8003910:	e0bffe17 	ldw	r2,-8(fp)
 8003914:	10800104 	addi	r2,r2,4
 8003918:	00ffffc4 	movi	r3,-1
 800391c:	10c00015 	stw	r3,0(r2)
 8003920:	00000306 	br	8003930 <vec2i_sign+0xa8>
 8003924:	e0bffe17 	ldw	r2,-8(fp)
 8003928:	10800104 	addi	r2,r2,4
 800392c:	10000015 	stw	zero,0(r2)
 8003930:	e0bffe17 	ldw	r2,-8(fp)
 8003934:	e037883a 	mov	sp,fp
 8003938:	df000017 	ldw	fp,0(sp)
 800393c:	dec00104 	addi	sp,sp,4
 8003940:	f800283a 	ret

08003944 <vec2i_add>:
 8003944:	defffc04 	addi	sp,sp,-16
 8003948:	df000315 	stw	fp,12(sp)
 800394c:	df000304 	addi	fp,sp,12
 8003950:	e13ffd15 	stw	r4,-12(fp)
 8003954:	e17ffe15 	stw	r5,-8(fp)
 8003958:	e1bfff15 	stw	r6,-4(fp)
 800395c:	e0bffe17 	ldw	r2,-8(fp)
 8003960:	10c00017 	ldw	r3,0(r2)
 8003964:	e0bfff17 	ldw	r2,-4(fp)
 8003968:	10800017 	ldw	r2,0(r2)
 800396c:	1887883a 	add	r3,r3,r2
 8003970:	e0bffd17 	ldw	r2,-12(fp)
 8003974:	10c00015 	stw	r3,0(r2)
 8003978:	e0bffd17 	ldw	r2,-12(fp)
 800397c:	10800104 	addi	r2,r2,4
 8003980:	e0fffe17 	ldw	r3,-8(fp)
 8003984:	18c00104 	addi	r3,r3,4
 8003988:	19000017 	ldw	r4,0(r3)
 800398c:	e0ffff17 	ldw	r3,-4(fp)
 8003990:	18c00104 	addi	r3,r3,4
 8003994:	18c00017 	ldw	r3,0(r3)
 8003998:	20c7883a 	add	r3,r4,r3
 800399c:	10c00015 	stw	r3,0(r2)
 80039a0:	e0bffd17 	ldw	r2,-12(fp)
 80039a4:	e037883a 	mov	sp,fp
 80039a8:	df000017 	ldw	fp,0(sp)
 80039ac:	dec00104 	addi	sp,sp,4
 80039b0:	f800283a 	ret

080039b4 <vec2i_add_i>:
 80039b4:	defffc04 	addi	sp,sp,-16
 80039b8:	df000315 	stw	fp,12(sp)
 80039bc:	df000304 	addi	fp,sp,12
 80039c0:	e13ffd15 	stw	r4,-12(fp)
 80039c4:	e17ffe15 	stw	r5,-8(fp)
 80039c8:	e1bfff15 	stw	r6,-4(fp)
 80039cc:	e0bffe17 	ldw	r2,-8(fp)
 80039d0:	10c00017 	ldw	r3,0(r2)
 80039d4:	e0bfff17 	ldw	r2,-4(fp)
 80039d8:	1887883a 	add	r3,r3,r2
 80039dc:	e0bffd17 	ldw	r2,-12(fp)
 80039e0:	10c00015 	stw	r3,0(r2)
 80039e4:	e0bffd17 	ldw	r2,-12(fp)
 80039e8:	10800104 	addi	r2,r2,4
 80039ec:	e0fffe17 	ldw	r3,-8(fp)
 80039f0:	18c00104 	addi	r3,r3,4
 80039f4:	19000017 	ldw	r4,0(r3)
 80039f8:	e0ffff17 	ldw	r3,-4(fp)
 80039fc:	20c7883a 	add	r3,r4,r3
 8003a00:	10c00015 	stw	r3,0(r2)
 8003a04:	e0bffd17 	ldw	r2,-12(fp)
 8003a08:	e037883a 	mov	sp,fp
 8003a0c:	df000017 	ldw	fp,0(sp)
 8003a10:	dec00104 	addi	sp,sp,4
 8003a14:	f800283a 	ret

08003a18 <vec2i_subtract>:
 8003a18:	defffc04 	addi	sp,sp,-16
 8003a1c:	df000315 	stw	fp,12(sp)
 8003a20:	df000304 	addi	fp,sp,12
 8003a24:	e13ffd15 	stw	r4,-12(fp)
 8003a28:	e17ffe15 	stw	r5,-8(fp)
 8003a2c:	e1bfff15 	stw	r6,-4(fp)
 8003a30:	e0bffe17 	ldw	r2,-8(fp)
 8003a34:	10c00017 	ldw	r3,0(r2)
 8003a38:	e0bfff17 	ldw	r2,-4(fp)
 8003a3c:	10800017 	ldw	r2,0(r2)
 8003a40:	1887c83a 	sub	r3,r3,r2
 8003a44:	e0bffd17 	ldw	r2,-12(fp)
 8003a48:	10c00015 	stw	r3,0(r2)
 8003a4c:	e0bffd17 	ldw	r2,-12(fp)
 8003a50:	10800104 	addi	r2,r2,4
 8003a54:	e0fffe17 	ldw	r3,-8(fp)
 8003a58:	18c00104 	addi	r3,r3,4
 8003a5c:	19000017 	ldw	r4,0(r3)
 8003a60:	e0ffff17 	ldw	r3,-4(fp)
 8003a64:	18c00104 	addi	r3,r3,4
 8003a68:	18c00017 	ldw	r3,0(r3)
 8003a6c:	20c7c83a 	sub	r3,r4,r3
 8003a70:	10c00015 	stw	r3,0(r2)
 8003a74:	e0bffd17 	ldw	r2,-12(fp)
 8003a78:	e037883a 	mov	sp,fp
 8003a7c:	df000017 	ldw	fp,0(sp)
 8003a80:	dec00104 	addi	sp,sp,4
 8003a84:	f800283a 	ret

08003a88 <vec2i_subtract_i>:
 8003a88:	defffc04 	addi	sp,sp,-16
 8003a8c:	df000315 	stw	fp,12(sp)
 8003a90:	df000304 	addi	fp,sp,12
 8003a94:	e13ffd15 	stw	r4,-12(fp)
 8003a98:	e17ffe15 	stw	r5,-8(fp)
 8003a9c:	e1bfff15 	stw	r6,-4(fp)
 8003aa0:	e0bffe17 	ldw	r2,-8(fp)
 8003aa4:	10c00017 	ldw	r3,0(r2)
 8003aa8:	e0bfff17 	ldw	r2,-4(fp)
 8003aac:	1887c83a 	sub	r3,r3,r2
 8003ab0:	e0bffd17 	ldw	r2,-12(fp)
 8003ab4:	10c00015 	stw	r3,0(r2)
 8003ab8:	e0bffd17 	ldw	r2,-12(fp)
 8003abc:	10800104 	addi	r2,r2,4
 8003ac0:	e0fffe17 	ldw	r3,-8(fp)
 8003ac4:	18c00104 	addi	r3,r3,4
 8003ac8:	19000017 	ldw	r4,0(r3)
 8003acc:	e0ffff17 	ldw	r3,-4(fp)
 8003ad0:	20c7c83a 	sub	r3,r4,r3
 8003ad4:	10c00015 	stw	r3,0(r2)
 8003ad8:	e0bffd17 	ldw	r2,-12(fp)
 8003adc:	e037883a 	mov	sp,fp
 8003ae0:	df000017 	ldw	fp,0(sp)
 8003ae4:	dec00104 	addi	sp,sp,4
 8003ae8:	f800283a 	ret

08003aec <vec2i_multiply>:
 8003aec:	defffc04 	addi	sp,sp,-16
 8003af0:	df000315 	stw	fp,12(sp)
 8003af4:	df000304 	addi	fp,sp,12
 8003af8:	e13ffd15 	stw	r4,-12(fp)
 8003afc:	e17ffe15 	stw	r5,-8(fp)
 8003b00:	e1bfff15 	stw	r6,-4(fp)
 8003b04:	e0bffe17 	ldw	r2,-8(fp)
 8003b08:	10c00017 	ldw	r3,0(r2)
 8003b0c:	e0bfff17 	ldw	r2,-4(fp)
 8003b10:	10800017 	ldw	r2,0(r2)
 8003b14:	1887383a 	mul	r3,r3,r2
 8003b18:	e0bffd17 	ldw	r2,-12(fp)
 8003b1c:	10c00015 	stw	r3,0(r2)
 8003b20:	e0bffd17 	ldw	r2,-12(fp)
 8003b24:	10800104 	addi	r2,r2,4
 8003b28:	e0fffe17 	ldw	r3,-8(fp)
 8003b2c:	18c00104 	addi	r3,r3,4
 8003b30:	19000017 	ldw	r4,0(r3)
 8003b34:	e0ffff17 	ldw	r3,-4(fp)
 8003b38:	18c00104 	addi	r3,r3,4
 8003b3c:	18c00017 	ldw	r3,0(r3)
 8003b40:	20c7383a 	mul	r3,r4,r3
 8003b44:	10c00015 	stw	r3,0(r2)
 8003b48:	e0bffd17 	ldw	r2,-12(fp)
 8003b4c:	e037883a 	mov	sp,fp
 8003b50:	df000017 	ldw	fp,0(sp)
 8003b54:	dec00104 	addi	sp,sp,4
 8003b58:	f800283a 	ret

08003b5c <vec2i_multiply_i>:
 8003b5c:	defffc04 	addi	sp,sp,-16
 8003b60:	df000315 	stw	fp,12(sp)
 8003b64:	df000304 	addi	fp,sp,12
 8003b68:	e13ffd15 	stw	r4,-12(fp)
 8003b6c:	e17ffe15 	stw	r5,-8(fp)
 8003b70:	e1bfff15 	stw	r6,-4(fp)
 8003b74:	e0bffe17 	ldw	r2,-8(fp)
 8003b78:	10c00017 	ldw	r3,0(r2)
 8003b7c:	e0bfff17 	ldw	r2,-4(fp)
 8003b80:	1887383a 	mul	r3,r3,r2
 8003b84:	e0bffd17 	ldw	r2,-12(fp)
 8003b88:	10c00015 	stw	r3,0(r2)
 8003b8c:	e0bffd17 	ldw	r2,-12(fp)
 8003b90:	10800104 	addi	r2,r2,4
 8003b94:	e0fffe17 	ldw	r3,-8(fp)
 8003b98:	18c00104 	addi	r3,r3,4
 8003b9c:	19000017 	ldw	r4,0(r3)
 8003ba0:	e0ffff17 	ldw	r3,-4(fp)
 8003ba4:	20c7383a 	mul	r3,r4,r3
 8003ba8:	10c00015 	stw	r3,0(r2)
 8003bac:	e0bffd17 	ldw	r2,-12(fp)
 8003bb0:	e037883a 	mov	sp,fp
 8003bb4:	df000017 	ldw	fp,0(sp)
 8003bb8:	dec00104 	addi	sp,sp,4
 8003bbc:	f800283a 	ret

08003bc0 <vec2i_divide>:
 8003bc0:	defffa04 	addi	sp,sp,-24
 8003bc4:	dfc00515 	stw	ra,20(sp)
 8003bc8:	df000415 	stw	fp,16(sp)
 8003bcc:	dc000315 	stw	r16,12(sp)
 8003bd0:	df000404 	addi	fp,sp,16
 8003bd4:	e13ffc15 	stw	r4,-16(fp)
 8003bd8:	e17ffd15 	stw	r5,-12(fp)
 8003bdc:	e1bffe15 	stw	r6,-8(fp)
 8003be0:	e0bffd17 	ldw	r2,-12(fp)
 8003be4:	10c00017 	ldw	r3,0(r2)
 8003be8:	e0bffe17 	ldw	r2,-8(fp)
 8003bec:	10800017 	ldw	r2,0(r2)
 8003bf0:	100b883a 	mov	r5,r2
 8003bf4:	1809883a 	mov	r4,r3
 8003bf8:	8023d540 	call	8023d54 <__divsi3>
 8003bfc:	1007883a 	mov	r3,r2
 8003c00:	e0bffc17 	ldw	r2,-16(fp)
 8003c04:	10c00015 	stw	r3,0(r2)
 8003c08:	e0bffc17 	ldw	r2,-16(fp)
 8003c0c:	14000104 	addi	r16,r2,4
 8003c10:	e0bffd17 	ldw	r2,-12(fp)
 8003c14:	10800104 	addi	r2,r2,4
 8003c18:	10c00017 	ldw	r3,0(r2)
 8003c1c:	e0bffe17 	ldw	r2,-8(fp)
 8003c20:	10800104 	addi	r2,r2,4
 8003c24:	10800017 	ldw	r2,0(r2)
 8003c28:	100b883a 	mov	r5,r2
 8003c2c:	1809883a 	mov	r4,r3
 8003c30:	8023d540 	call	8023d54 <__divsi3>
 8003c34:	80800015 	stw	r2,0(r16)
 8003c38:	e0bffc17 	ldw	r2,-16(fp)
 8003c3c:	e6ffff04 	addi	sp,fp,-4
 8003c40:	dfc00217 	ldw	ra,8(sp)
 8003c44:	df000117 	ldw	fp,4(sp)
 8003c48:	dc000017 	ldw	r16,0(sp)
 8003c4c:	dec00304 	addi	sp,sp,12
 8003c50:	f800283a 	ret

08003c54 <vec2i_divide_i>:
 8003c54:	defffa04 	addi	sp,sp,-24
 8003c58:	dfc00515 	stw	ra,20(sp)
 8003c5c:	df000415 	stw	fp,16(sp)
 8003c60:	dc000315 	stw	r16,12(sp)
 8003c64:	df000404 	addi	fp,sp,16
 8003c68:	e13ffc15 	stw	r4,-16(fp)
 8003c6c:	e17ffd15 	stw	r5,-12(fp)
 8003c70:	e1bffe15 	stw	r6,-8(fp)
 8003c74:	e0bffd17 	ldw	r2,-12(fp)
 8003c78:	10800017 	ldw	r2,0(r2)
 8003c7c:	e17ffe17 	ldw	r5,-8(fp)
 8003c80:	1009883a 	mov	r4,r2
 8003c84:	8023d540 	call	8023d54 <__divsi3>
 8003c88:	1007883a 	mov	r3,r2
 8003c8c:	e0bffc17 	ldw	r2,-16(fp)
 8003c90:	10c00015 	stw	r3,0(r2)
 8003c94:	e0bffc17 	ldw	r2,-16(fp)
 8003c98:	14000104 	addi	r16,r2,4
 8003c9c:	e0bffd17 	ldw	r2,-12(fp)
 8003ca0:	10800104 	addi	r2,r2,4
 8003ca4:	10800017 	ldw	r2,0(r2)
 8003ca8:	e17ffe17 	ldw	r5,-8(fp)
 8003cac:	1009883a 	mov	r4,r2
 8003cb0:	8023d540 	call	8023d54 <__divsi3>
 8003cb4:	80800015 	stw	r2,0(r16)
 8003cb8:	e0bffc17 	ldw	r2,-16(fp)
 8003cbc:	e6ffff04 	addi	sp,fp,-4
 8003cc0:	dfc00217 	ldw	ra,8(sp)
 8003cc4:	df000117 	ldw	fp,4(sp)
 8003cc8:	dc000017 	ldw	r16,0(sp)
 8003ccc:	dec00304 	addi	sp,sp,12
 8003cd0:	f800283a 	ret

08003cd4 <vec2i_snap>:
 8003cd4:	defffa04 	addi	sp,sp,-24
 8003cd8:	dfc00515 	stw	ra,20(sp)
 8003cdc:	df000415 	stw	fp,16(sp)
 8003ce0:	dc000315 	stw	r16,12(sp)
 8003ce4:	df000404 	addi	fp,sp,16
 8003ce8:	e13ffc15 	stw	r4,-16(fp)
 8003cec:	e17ffd15 	stw	r5,-12(fp)
 8003cf0:	e1bffe15 	stw	r6,-8(fp)
 8003cf4:	e0bffd17 	ldw	r2,-12(fp)
 8003cf8:	10c00017 	ldw	r3,0(r2)
 8003cfc:	e0bffe17 	ldw	r2,-8(fp)
 8003d00:	10800017 	ldw	r2,0(r2)
 8003d04:	100b883a 	mov	r5,r2
 8003d08:	1809883a 	mov	r4,r3
 8003d0c:	8023d540 	call	8023d54 <__divsi3>
 8003d10:	1007883a 	mov	r3,r2
 8003d14:	e0bffe17 	ldw	r2,-8(fp)
 8003d18:	10800017 	ldw	r2,0(r2)
 8003d1c:	1887383a 	mul	r3,r3,r2
 8003d20:	e0bffc17 	ldw	r2,-16(fp)
 8003d24:	10c00015 	stw	r3,0(r2)
 8003d28:	e0bffc17 	ldw	r2,-16(fp)
 8003d2c:	14000104 	addi	r16,r2,4
 8003d30:	e0bffd17 	ldw	r2,-12(fp)
 8003d34:	10800104 	addi	r2,r2,4
 8003d38:	10c00017 	ldw	r3,0(r2)
 8003d3c:	e0bffe17 	ldw	r2,-8(fp)
 8003d40:	10800104 	addi	r2,r2,4
 8003d44:	10800017 	ldw	r2,0(r2)
 8003d48:	100b883a 	mov	r5,r2
 8003d4c:	1809883a 	mov	r4,r3
 8003d50:	8023d540 	call	8023d54 <__divsi3>
 8003d54:	1007883a 	mov	r3,r2
 8003d58:	e0bffe17 	ldw	r2,-8(fp)
 8003d5c:	10800104 	addi	r2,r2,4
 8003d60:	10800017 	ldw	r2,0(r2)
 8003d64:	1885383a 	mul	r2,r3,r2
 8003d68:	80800015 	stw	r2,0(r16)
 8003d6c:	e0bffc17 	ldw	r2,-16(fp)
 8003d70:	e6ffff04 	addi	sp,fp,-4
 8003d74:	dfc00217 	ldw	ra,8(sp)
 8003d78:	df000117 	ldw	fp,4(sp)
 8003d7c:	dc000017 	ldw	r16,0(sp)
 8003d80:	dec00304 	addi	sp,sp,12
 8003d84:	f800283a 	ret

08003d88 <vec2i_snap_i>:
 8003d88:	defffa04 	addi	sp,sp,-24
 8003d8c:	dfc00515 	stw	ra,20(sp)
 8003d90:	df000415 	stw	fp,16(sp)
 8003d94:	dc000315 	stw	r16,12(sp)
 8003d98:	df000404 	addi	fp,sp,16
 8003d9c:	e13ffc15 	stw	r4,-16(fp)
 8003da0:	e17ffd15 	stw	r5,-12(fp)
 8003da4:	e1bffe15 	stw	r6,-8(fp)
 8003da8:	e0bffd17 	ldw	r2,-12(fp)
 8003dac:	10800017 	ldw	r2,0(r2)
 8003db0:	e17ffe17 	ldw	r5,-8(fp)
 8003db4:	1009883a 	mov	r4,r2
 8003db8:	8023d540 	call	8023d54 <__divsi3>
 8003dbc:	1007883a 	mov	r3,r2
 8003dc0:	e0bffe17 	ldw	r2,-8(fp)
 8003dc4:	1887383a 	mul	r3,r3,r2
 8003dc8:	e0bffc17 	ldw	r2,-16(fp)
 8003dcc:	10c00015 	stw	r3,0(r2)
 8003dd0:	e0bffc17 	ldw	r2,-16(fp)
 8003dd4:	14000104 	addi	r16,r2,4
 8003dd8:	e0bffd17 	ldw	r2,-12(fp)
 8003ddc:	10800104 	addi	r2,r2,4
 8003de0:	10800017 	ldw	r2,0(r2)
 8003de4:	e17ffe17 	ldw	r5,-8(fp)
 8003de8:	1009883a 	mov	r4,r2
 8003dec:	8023d540 	call	8023d54 <__divsi3>
 8003df0:	1007883a 	mov	r3,r2
 8003df4:	e0bffe17 	ldw	r2,-8(fp)
 8003df8:	1885383a 	mul	r2,r3,r2
 8003dfc:	80800015 	stw	r2,0(r16)
 8003e00:	e0bffc17 	ldw	r2,-16(fp)
 8003e04:	e6ffff04 	addi	sp,fp,-4
 8003e08:	dfc00217 	ldw	ra,8(sp)
 8003e0c:	df000117 	ldw	fp,4(sp)
 8003e10:	dc000017 	ldw	r16,0(sp)
 8003e14:	dec00304 	addi	sp,sp,12
 8003e18:	f800283a 	ret

08003e1c <vec2i_negative>:
 8003e1c:	defffd04 	addi	sp,sp,-12
 8003e20:	df000215 	stw	fp,8(sp)
 8003e24:	df000204 	addi	fp,sp,8
 8003e28:	e13ffe15 	stw	r4,-8(fp)
 8003e2c:	e17fff15 	stw	r5,-4(fp)
 8003e30:	e0bfff17 	ldw	r2,-4(fp)
 8003e34:	10800017 	ldw	r2,0(r2)
 8003e38:	0087c83a 	sub	r3,zero,r2
 8003e3c:	e0bffe17 	ldw	r2,-8(fp)
 8003e40:	10c00015 	stw	r3,0(r2)
 8003e44:	e0bffe17 	ldw	r2,-8(fp)
 8003e48:	10800104 	addi	r2,r2,4
 8003e4c:	e0ffff17 	ldw	r3,-4(fp)
 8003e50:	18c00104 	addi	r3,r3,4
 8003e54:	18c00017 	ldw	r3,0(r3)
 8003e58:	00c7c83a 	sub	r3,zero,r3
 8003e5c:	10c00015 	stw	r3,0(r2)
 8003e60:	e0bffe17 	ldw	r2,-8(fp)
 8003e64:	e037883a 	mov	sp,fp
 8003e68:	df000017 	ldw	fp,0(sp)
 8003e6c:	dec00104 	addi	sp,sp,4
 8003e70:	f800283a 	ret

08003e74 <vec2i_abs>:
 8003e74:	defffd04 	addi	sp,sp,-12
 8003e78:	df000215 	stw	fp,8(sp)
 8003e7c:	df000204 	addi	fp,sp,8
 8003e80:	e13ffe15 	stw	r4,-8(fp)
 8003e84:	e17fff15 	stw	r5,-4(fp)
 8003e88:	e0bfff17 	ldw	r2,-4(fp)
 8003e8c:	10c00017 	ldw	r3,0(r2)
 8003e90:	e0bffe17 	ldw	r2,-8(fp)
 8003e94:	10c00015 	stw	r3,0(r2)
 8003e98:	e0bffe17 	ldw	r2,-8(fp)
 8003e9c:	10800017 	ldw	r2,0(r2)
 8003ea0:	1000050e 	bge	r2,zero,8003eb8 <vec2i_abs+0x44>
 8003ea4:	e0bffe17 	ldw	r2,-8(fp)
 8003ea8:	10800017 	ldw	r2,0(r2)
 8003eac:	0087c83a 	sub	r3,zero,r2
 8003eb0:	e0bffe17 	ldw	r2,-8(fp)
 8003eb4:	10c00015 	stw	r3,0(r2)
 8003eb8:	e0bffe17 	ldw	r2,-8(fp)
 8003ebc:	10800104 	addi	r2,r2,4
 8003ec0:	e0ffff17 	ldw	r3,-4(fp)
 8003ec4:	18c00117 	ldw	r3,4(r3)
 8003ec8:	10c00015 	stw	r3,0(r2)
 8003ecc:	e0bffe17 	ldw	r2,-8(fp)
 8003ed0:	10800104 	addi	r2,r2,4
 8003ed4:	10800017 	ldw	r2,0(r2)
 8003ed8:	1000070e 	bge	r2,zero,8003ef8 <vec2i_abs+0x84>
 8003edc:	e0bffe17 	ldw	r2,-8(fp)
 8003ee0:	10800104 	addi	r2,r2,4
 8003ee4:	e0fffe17 	ldw	r3,-8(fp)
 8003ee8:	18c00104 	addi	r3,r3,4
 8003eec:	18c00017 	ldw	r3,0(r3)
 8003ef0:	00c7c83a 	sub	r3,zero,r3
 8003ef4:	10c00015 	stw	r3,0(r2)
 8003ef8:	e0bffe17 	ldw	r2,-8(fp)
 8003efc:	e037883a 	mov	sp,fp
 8003f00:	df000017 	ldw	fp,0(sp)
 8003f04:	dec00104 	addi	sp,sp,4
 8003f08:	f800283a 	ret

08003f0c <vec2i_max>:
 8003f0c:	defffc04 	addi	sp,sp,-16
 8003f10:	df000315 	stw	fp,12(sp)
 8003f14:	df000304 	addi	fp,sp,12
 8003f18:	e13ffd15 	stw	r4,-12(fp)
 8003f1c:	e17ffe15 	stw	r5,-8(fp)
 8003f20:	e1bfff15 	stw	r6,-4(fp)
 8003f24:	e0bffe17 	ldw	r2,-8(fp)
 8003f28:	10800017 	ldw	r2,0(r2)
 8003f2c:	e0ffff17 	ldw	r3,-4(fp)
 8003f30:	18c00017 	ldw	r3,0(r3)
 8003f34:	1880050e 	bge	r3,r2,8003f4c <vec2i_max+0x40>
 8003f38:	e0bffe17 	ldw	r2,-8(fp)
 8003f3c:	10c00017 	ldw	r3,0(r2)
 8003f40:	e0bffd17 	ldw	r2,-12(fp)
 8003f44:	10c00015 	stw	r3,0(r2)
 8003f48:	00000406 	br	8003f5c <vec2i_max+0x50>
 8003f4c:	e0bfff17 	ldw	r2,-4(fp)
 8003f50:	10c00017 	ldw	r3,0(r2)
 8003f54:	e0bffd17 	ldw	r2,-12(fp)
 8003f58:	10c00015 	stw	r3,0(r2)
 8003f5c:	e0bffe17 	ldw	r2,-8(fp)
 8003f60:	10800104 	addi	r2,r2,4
 8003f64:	10800017 	ldw	r2,0(r2)
 8003f68:	e0ffff17 	ldw	r3,-4(fp)
 8003f6c:	18c00104 	addi	r3,r3,4
 8003f70:	18c00017 	ldw	r3,0(r3)
 8003f74:	1880060e 	bge	r3,r2,8003f90 <vec2i_max+0x84>
 8003f78:	e0bffd17 	ldw	r2,-12(fp)
 8003f7c:	10800104 	addi	r2,r2,4
 8003f80:	e0fffe17 	ldw	r3,-8(fp)
 8003f84:	18c00117 	ldw	r3,4(r3)
 8003f88:	10c00015 	stw	r3,0(r2)
 8003f8c:	00000506 	br	8003fa4 <vec2i_max+0x98>
 8003f90:	e0bffd17 	ldw	r2,-12(fp)
 8003f94:	10800104 	addi	r2,r2,4
 8003f98:	e0ffff17 	ldw	r3,-4(fp)
 8003f9c:	18c00117 	ldw	r3,4(r3)
 8003fa0:	10c00015 	stw	r3,0(r2)
 8003fa4:	e0bffd17 	ldw	r2,-12(fp)
 8003fa8:	e037883a 	mov	sp,fp
 8003fac:	df000017 	ldw	fp,0(sp)
 8003fb0:	dec00104 	addi	sp,sp,4
 8003fb4:	f800283a 	ret

08003fb8 <vec2i_min>:
 8003fb8:	defffc04 	addi	sp,sp,-16
 8003fbc:	df000315 	stw	fp,12(sp)
 8003fc0:	df000304 	addi	fp,sp,12
 8003fc4:	e13ffd15 	stw	r4,-12(fp)
 8003fc8:	e17ffe15 	stw	r5,-8(fp)
 8003fcc:	e1bfff15 	stw	r6,-4(fp)
 8003fd0:	e0bffe17 	ldw	r2,-8(fp)
 8003fd4:	10c00017 	ldw	r3,0(r2)
 8003fd8:	e0bfff17 	ldw	r2,-4(fp)
 8003fdc:	10800017 	ldw	r2,0(r2)
 8003fe0:	1880050e 	bge	r3,r2,8003ff8 <vec2i_min+0x40>
 8003fe4:	e0bffe17 	ldw	r2,-8(fp)
 8003fe8:	10c00017 	ldw	r3,0(r2)
 8003fec:	e0bffd17 	ldw	r2,-12(fp)
 8003ff0:	10c00015 	stw	r3,0(r2)
 8003ff4:	00000406 	br	8004008 <vec2i_min+0x50>
 8003ff8:	e0bfff17 	ldw	r2,-4(fp)
 8003ffc:	10c00017 	ldw	r3,0(r2)
 8004000:	e0bffd17 	ldw	r2,-12(fp)
 8004004:	10c00015 	stw	r3,0(r2)
 8004008:	e0bffe17 	ldw	r2,-8(fp)
 800400c:	10800104 	addi	r2,r2,4
 8004010:	10c00017 	ldw	r3,0(r2)
 8004014:	e0bfff17 	ldw	r2,-4(fp)
 8004018:	10800104 	addi	r2,r2,4
 800401c:	10800017 	ldw	r2,0(r2)
 8004020:	1880060e 	bge	r3,r2,800403c <vec2i_min+0x84>
 8004024:	e0bffd17 	ldw	r2,-12(fp)
 8004028:	10800104 	addi	r2,r2,4
 800402c:	e0fffe17 	ldw	r3,-8(fp)
 8004030:	18c00117 	ldw	r3,4(r3)
 8004034:	10c00015 	stw	r3,0(r2)
 8004038:	00000506 	br	8004050 <vec2i_min+0x98>
 800403c:	e0bffd17 	ldw	r2,-12(fp)
 8004040:	10800104 	addi	r2,r2,4
 8004044:	e0ffff17 	ldw	r3,-4(fp)
 8004048:	18c00117 	ldw	r3,4(r3)
 800404c:	10c00015 	stw	r3,0(r2)
 8004050:	e0bffd17 	ldw	r2,-12(fp)
 8004054:	e037883a 	mov	sp,fp
 8004058:	df000017 	ldw	fp,0(sp)
 800405c:	dec00104 	addi	sp,sp,4
 8004060:	f800283a 	ret

08004064 <vec2i_clamp>:
 8004064:	defffa04 	addi	sp,sp,-24
 8004068:	dfc00515 	stw	ra,20(sp)
 800406c:	df000415 	stw	fp,16(sp)
 8004070:	df000404 	addi	fp,sp,16
 8004074:	e13ffc15 	stw	r4,-16(fp)
 8004078:	e17ffd15 	stw	r5,-12(fp)
 800407c:	e1bffe15 	stw	r6,-8(fp)
 8004080:	e1ffff15 	stw	r7,-4(fp)
 8004084:	e1bffe17 	ldw	r6,-8(fp)
 8004088:	e17ffd17 	ldw	r5,-12(fp)
 800408c:	e13ffc17 	ldw	r4,-16(fp)
 8004090:	8003fb80 	call	8003fb8 <vec2i_min>
 8004094:	e1bfff17 	ldw	r6,-4(fp)
 8004098:	e17ffd17 	ldw	r5,-12(fp)
 800409c:	e13ffc17 	ldw	r4,-16(fp)
 80040a0:	8003f0c0 	call	8003f0c <vec2i_max>
 80040a4:	e0bffc17 	ldw	r2,-16(fp)
 80040a8:	e037883a 	mov	sp,fp
 80040ac:	dfc00117 	ldw	ra,4(sp)
 80040b0:	df000017 	ldw	fp,0(sp)
 80040b4:	dec00204 	addi	sp,sp,8
 80040b8:	f800283a 	ret

080040bc <vec2i_tangent>:
 80040bc:	defffb04 	addi	sp,sp,-20
 80040c0:	df000415 	stw	fp,16(sp)
 80040c4:	df000404 	addi	fp,sp,16
 80040c8:	e13ffe15 	stw	r4,-8(fp)
 80040cc:	e17fff15 	stw	r5,-4(fp)
 80040d0:	e0bfff17 	ldw	r2,-4(fp)
 80040d4:	10800017 	ldw	r2,0(r2)
 80040d8:	e0bffc15 	stw	r2,-16(fp)
 80040dc:	e0bfff17 	ldw	r2,-4(fp)
 80040e0:	10800117 	ldw	r2,4(r2)
 80040e4:	e0bffd15 	stw	r2,-12(fp)
 80040e8:	e0bffe17 	ldw	r2,-8(fp)
 80040ec:	e0fffd17 	ldw	r3,-12(fp)
 80040f0:	10c00015 	stw	r3,0(r2)
 80040f4:	e0bffe17 	ldw	r2,-8(fp)
 80040f8:	10800104 	addi	r2,r2,4
 80040fc:	e0fffc17 	ldw	r3,-16(fp)
 8004100:	00c7c83a 	sub	r3,zero,r3
 8004104:	10c00015 	stw	r3,0(r2)
 8004108:	e0bffe17 	ldw	r2,-8(fp)
 800410c:	e037883a 	mov	sp,fp
 8004110:	df000017 	ldw	fp,0(sp)
 8004114:	dec00104 	addi	sp,sp,4
 8004118:	f800283a 	ret

0800411c <vec3i_is_zero>:
 800411c:	defffe04 	addi	sp,sp,-8
 8004120:	df000115 	stw	fp,4(sp)
 8004124:	df000104 	addi	fp,sp,4
 8004128:	e13fff15 	stw	r4,-4(fp)
 800412c:	e0bfff17 	ldw	r2,-4(fp)
 8004130:	10800017 	ldw	r2,0(r2)
 8004134:	10000a1e 	bne	r2,zero,8004160 <vec3i_is_zero+0x44>
 8004138:	e0bfff17 	ldw	r2,-4(fp)
 800413c:	10800104 	addi	r2,r2,4
 8004140:	10800017 	ldw	r2,0(r2)
 8004144:	1000061e 	bne	r2,zero,8004160 <vec3i_is_zero+0x44>
 8004148:	e0bfff17 	ldw	r2,-4(fp)
 800414c:	10800204 	addi	r2,r2,8
 8004150:	10800017 	ldw	r2,0(r2)
 8004154:	1000021e 	bne	r2,zero,8004160 <vec3i_is_zero+0x44>
 8004158:	00800044 	movi	r2,1
 800415c:	00000106 	br	8004164 <vec3i_is_zero+0x48>
 8004160:	0005883a 	mov	r2,zero
 8004164:	1080004c 	andi	r2,r2,1
 8004168:	e037883a 	mov	sp,fp
 800416c:	df000017 	ldw	fp,0(sp)
 8004170:	dec00104 	addi	sp,sp,4
 8004174:	f800283a 	ret

08004178 <vec3i_is_equal>:
 8004178:	defffd04 	addi	sp,sp,-12
 800417c:	df000215 	stw	fp,8(sp)
 8004180:	df000204 	addi	fp,sp,8
 8004184:	e13ffe15 	stw	r4,-8(fp)
 8004188:	e17fff15 	stw	r5,-4(fp)
 800418c:	e0bffe17 	ldw	r2,-8(fp)
 8004190:	10c00017 	ldw	r3,0(r2)
 8004194:	e0bfff17 	ldw	r2,-4(fp)
 8004198:	10800017 	ldw	r2,0(r2)
 800419c:	1880101e 	bne	r3,r2,80041e0 <vec3i_is_equal+0x68>
 80041a0:	e0bffe17 	ldw	r2,-8(fp)
 80041a4:	10800104 	addi	r2,r2,4
 80041a8:	10c00017 	ldw	r3,0(r2)
 80041ac:	e0bfff17 	ldw	r2,-4(fp)
 80041b0:	10800104 	addi	r2,r2,4
 80041b4:	10800017 	ldw	r2,0(r2)
 80041b8:	1880091e 	bne	r3,r2,80041e0 <vec3i_is_equal+0x68>
 80041bc:	e0bffe17 	ldw	r2,-8(fp)
 80041c0:	10800204 	addi	r2,r2,8
 80041c4:	10c00017 	ldw	r3,0(r2)
 80041c8:	e0bfff17 	ldw	r2,-4(fp)
 80041cc:	10800204 	addi	r2,r2,8
 80041d0:	10800017 	ldw	r2,0(r2)
 80041d4:	1880021e 	bne	r3,r2,80041e0 <vec3i_is_equal+0x68>
 80041d8:	00800044 	movi	r2,1
 80041dc:	00000106 	br	80041e4 <vec3i_is_equal+0x6c>
 80041e0:	0005883a 	mov	r2,zero
 80041e4:	1080004c 	andi	r2,r2,1
 80041e8:	e037883a 	mov	sp,fp
 80041ec:	df000017 	ldw	fp,0(sp)
 80041f0:	dec00104 	addi	sp,sp,4
 80041f4:	f800283a 	ret

080041f8 <vec3i>:
 80041f8:	defffb04 	addi	sp,sp,-20
 80041fc:	df000415 	stw	fp,16(sp)
 8004200:	df000404 	addi	fp,sp,16
 8004204:	e13ffc15 	stw	r4,-16(fp)
 8004208:	e17ffd15 	stw	r5,-12(fp)
 800420c:	e1bffe15 	stw	r6,-8(fp)
 8004210:	e1ffff15 	stw	r7,-4(fp)
 8004214:	e0bffc17 	ldw	r2,-16(fp)
 8004218:	e0fffd17 	ldw	r3,-12(fp)
 800421c:	10c00015 	stw	r3,0(r2)
 8004220:	e0bffc17 	ldw	r2,-16(fp)
 8004224:	10800104 	addi	r2,r2,4
 8004228:	e0fffe17 	ldw	r3,-8(fp)
 800422c:	10c00015 	stw	r3,0(r2)
 8004230:	e0bffc17 	ldw	r2,-16(fp)
 8004234:	10800204 	addi	r2,r2,8
 8004238:	e0ffff17 	ldw	r3,-4(fp)
 800423c:	10c00015 	stw	r3,0(r2)
 8004240:	e0bffc17 	ldw	r2,-16(fp)
 8004244:	e037883a 	mov	sp,fp
 8004248:	df000017 	ldw	fp,0(sp)
 800424c:	dec00104 	addi	sp,sp,4
 8004250:	f800283a 	ret

08004254 <vec3i_assign>:
 8004254:	defffd04 	addi	sp,sp,-12
 8004258:	df000215 	stw	fp,8(sp)
 800425c:	df000204 	addi	fp,sp,8
 8004260:	e13ffe15 	stw	r4,-8(fp)
 8004264:	e17fff15 	stw	r5,-4(fp)
 8004268:	e0bfff17 	ldw	r2,-4(fp)
 800426c:	10c00017 	ldw	r3,0(r2)
 8004270:	e0bffe17 	ldw	r2,-8(fp)
 8004274:	10c00015 	stw	r3,0(r2)
 8004278:	e0bffe17 	ldw	r2,-8(fp)
 800427c:	10800104 	addi	r2,r2,4
 8004280:	e0ffff17 	ldw	r3,-4(fp)
 8004284:	18c00117 	ldw	r3,4(r3)
 8004288:	10c00015 	stw	r3,0(r2)
 800428c:	e0bffe17 	ldw	r2,-8(fp)
 8004290:	10800204 	addi	r2,r2,8
 8004294:	e0ffff17 	ldw	r3,-4(fp)
 8004298:	18c00217 	ldw	r3,8(r3)
 800429c:	10c00015 	stw	r3,0(r2)
 80042a0:	e0bffe17 	ldw	r2,-8(fp)
 80042a4:	e037883a 	mov	sp,fp
 80042a8:	df000017 	ldw	fp,0(sp)
 80042ac:	dec00104 	addi	sp,sp,4
 80042b0:	f800283a 	ret

080042b4 <vec3i_assign_vec3>:
 80042b4:	defffd04 	addi	sp,sp,-12
 80042b8:	df000215 	stw	fp,8(sp)
 80042bc:	df000204 	addi	fp,sp,8
 80042c0:	e13ffe15 	stw	r4,-8(fp)
 80042c4:	e17fff15 	stw	r5,-4(fp)
 80042c8:	e0ffff17 	ldw	r3,-4(fp)
 80042cc:	18800017 	ldw	r2,0(r3)
 80042d0:	1007fe72 	custom	249,r3,r2,zero
 80042d4:	e0bffe17 	ldw	r2,-8(fp)
 80042d8:	10c00015 	stw	r3,0(r2)
 80042dc:	e0bffe17 	ldw	r2,-8(fp)
 80042e0:	10800104 	addi	r2,r2,4
 80042e4:	e0ffff17 	ldw	r3,-4(fp)
 80042e8:	19000104 	addi	r4,r3,4
 80042ec:	20c00017 	ldw	r3,0(r4)
 80042f0:	1807fe72 	custom	249,r3,r3,zero
 80042f4:	10c00015 	stw	r3,0(r2)
 80042f8:	e0bffe17 	ldw	r2,-8(fp)
 80042fc:	10800204 	addi	r2,r2,8
 8004300:	e0ffff17 	ldw	r3,-4(fp)
 8004304:	19000204 	addi	r4,r3,8
 8004308:	20c00017 	ldw	r3,0(r4)
 800430c:	1807fe72 	custom	249,r3,r3,zero
 8004310:	10c00015 	stw	r3,0(r2)
 8004314:	e0bffe17 	ldw	r2,-8(fp)
 8004318:	e037883a 	mov	sp,fp
 800431c:	df000017 	ldw	fp,0(sp)
 8004320:	dec00104 	addi	sp,sp,4
 8004324:	f800283a 	ret

08004328 <vec3i_zero>:
 8004328:	defffe04 	addi	sp,sp,-8
 800432c:	df000115 	stw	fp,4(sp)
 8004330:	df000104 	addi	fp,sp,4
 8004334:	e13fff15 	stw	r4,-4(fp)
 8004338:	e0bfff17 	ldw	r2,-4(fp)
 800433c:	10000015 	stw	zero,0(r2)
 8004340:	e0bfff17 	ldw	r2,-4(fp)
 8004344:	10800104 	addi	r2,r2,4
 8004348:	10000015 	stw	zero,0(r2)
 800434c:	e0bfff17 	ldw	r2,-4(fp)
 8004350:	10800204 	addi	r2,r2,8
 8004354:	10000015 	stw	zero,0(r2)
 8004358:	e0bfff17 	ldw	r2,-4(fp)
 800435c:	e037883a 	mov	sp,fp
 8004360:	df000017 	ldw	fp,0(sp)
 8004364:	dec00104 	addi	sp,sp,4
 8004368:	f800283a 	ret

0800436c <vec3i_one>:
 800436c:	defffe04 	addi	sp,sp,-8
 8004370:	df000115 	stw	fp,4(sp)
 8004374:	df000104 	addi	fp,sp,4
 8004378:	e13fff15 	stw	r4,-4(fp)
 800437c:	e0bfff17 	ldw	r2,-4(fp)
 8004380:	00c00044 	movi	r3,1
 8004384:	10c00015 	stw	r3,0(r2)
 8004388:	e0bfff17 	ldw	r2,-4(fp)
 800438c:	10800104 	addi	r2,r2,4
 8004390:	00c00044 	movi	r3,1
 8004394:	10c00015 	stw	r3,0(r2)
 8004398:	e0bfff17 	ldw	r2,-4(fp)
 800439c:	10800204 	addi	r2,r2,8
 80043a0:	00c00044 	movi	r3,1
 80043a4:	10c00015 	stw	r3,0(r2)
 80043a8:	e0bfff17 	ldw	r2,-4(fp)
 80043ac:	e037883a 	mov	sp,fp
 80043b0:	df000017 	ldw	fp,0(sp)
 80043b4:	dec00104 	addi	sp,sp,4
 80043b8:	f800283a 	ret

080043bc <vec3i_sign>:
 80043bc:	defffd04 	addi	sp,sp,-12
 80043c0:	df000215 	stw	fp,8(sp)
 80043c4:	df000204 	addi	fp,sp,8
 80043c8:	e13ffe15 	stw	r4,-8(fp)
 80043cc:	e17fff15 	stw	r5,-4(fp)
 80043d0:	e0bfff17 	ldw	r2,-4(fp)
 80043d4:	10800017 	ldw	r2,0(r2)
 80043d8:	0080040e 	bge	zero,r2,80043ec <vec3i_sign+0x30>
 80043dc:	e0bffe17 	ldw	r2,-8(fp)
 80043e0:	00c00044 	movi	r3,1
 80043e4:	10c00015 	stw	r3,0(r2)
 80043e8:	00000906 	br	8004410 <vec3i_sign+0x54>
 80043ec:	e0bfff17 	ldw	r2,-4(fp)
 80043f0:	10800017 	ldw	r2,0(r2)
 80043f4:	1000040e 	bge	r2,zero,8004408 <vec3i_sign+0x4c>
 80043f8:	e0bffe17 	ldw	r2,-8(fp)
 80043fc:	00ffffc4 	movi	r3,-1
 8004400:	10c00015 	stw	r3,0(r2)
 8004404:	00000206 	br	8004410 <vec3i_sign+0x54>
 8004408:	e0bffe17 	ldw	r2,-8(fp)
 800440c:	10000015 	stw	zero,0(r2)
 8004410:	e0bfff17 	ldw	r2,-4(fp)
 8004414:	10800104 	addi	r2,r2,4
 8004418:	10800017 	ldw	r2,0(r2)
 800441c:	0080050e 	bge	zero,r2,8004434 <vec3i_sign+0x78>
 8004420:	e0bffe17 	ldw	r2,-8(fp)
 8004424:	10800104 	addi	r2,r2,4
 8004428:	00c00044 	movi	r3,1
 800442c:	10c00015 	stw	r3,0(r2)
 8004430:	00000c06 	br	8004464 <vec3i_sign+0xa8>
 8004434:	e0bfff17 	ldw	r2,-4(fp)
 8004438:	10800104 	addi	r2,r2,4
 800443c:	10800017 	ldw	r2,0(r2)
 8004440:	1000050e 	bge	r2,zero,8004458 <vec3i_sign+0x9c>
 8004444:	e0bffe17 	ldw	r2,-8(fp)
 8004448:	10800104 	addi	r2,r2,4
 800444c:	00ffffc4 	movi	r3,-1
 8004450:	10c00015 	stw	r3,0(r2)
 8004454:	00000306 	br	8004464 <vec3i_sign+0xa8>
 8004458:	e0bffe17 	ldw	r2,-8(fp)
 800445c:	10800104 	addi	r2,r2,4
 8004460:	10000015 	stw	zero,0(r2)
 8004464:	e0bfff17 	ldw	r2,-4(fp)
 8004468:	10800204 	addi	r2,r2,8
 800446c:	10800017 	ldw	r2,0(r2)
 8004470:	0080050e 	bge	zero,r2,8004488 <vec3i_sign+0xcc>
 8004474:	e0bffe17 	ldw	r2,-8(fp)
 8004478:	10800204 	addi	r2,r2,8
 800447c:	00c00044 	movi	r3,1
 8004480:	10c00015 	stw	r3,0(r2)
 8004484:	00000c06 	br	80044b8 <vec3i_sign+0xfc>
 8004488:	e0bfff17 	ldw	r2,-4(fp)
 800448c:	10800204 	addi	r2,r2,8
 8004490:	10800017 	ldw	r2,0(r2)
 8004494:	1000050e 	bge	r2,zero,80044ac <vec3i_sign+0xf0>
 8004498:	e0bffe17 	ldw	r2,-8(fp)
 800449c:	10800204 	addi	r2,r2,8
 80044a0:	00ffffc4 	movi	r3,-1
 80044a4:	10c00015 	stw	r3,0(r2)
 80044a8:	00000306 	br	80044b8 <vec3i_sign+0xfc>
 80044ac:	e0bffe17 	ldw	r2,-8(fp)
 80044b0:	10800204 	addi	r2,r2,8
 80044b4:	10000015 	stw	zero,0(r2)
 80044b8:	e0bffe17 	ldw	r2,-8(fp)
 80044bc:	e037883a 	mov	sp,fp
 80044c0:	df000017 	ldw	fp,0(sp)
 80044c4:	dec00104 	addi	sp,sp,4
 80044c8:	f800283a 	ret

080044cc <vec3i_add>:
 80044cc:	defffc04 	addi	sp,sp,-16
 80044d0:	df000315 	stw	fp,12(sp)
 80044d4:	df000304 	addi	fp,sp,12
 80044d8:	e13ffd15 	stw	r4,-12(fp)
 80044dc:	e17ffe15 	stw	r5,-8(fp)
 80044e0:	e1bfff15 	stw	r6,-4(fp)
 80044e4:	e0bffe17 	ldw	r2,-8(fp)
 80044e8:	10c00017 	ldw	r3,0(r2)
 80044ec:	e0bfff17 	ldw	r2,-4(fp)
 80044f0:	10800017 	ldw	r2,0(r2)
 80044f4:	1887883a 	add	r3,r3,r2
 80044f8:	e0bffd17 	ldw	r2,-12(fp)
 80044fc:	10c00015 	stw	r3,0(r2)
 8004500:	e0bffd17 	ldw	r2,-12(fp)
 8004504:	10800104 	addi	r2,r2,4
 8004508:	e0fffe17 	ldw	r3,-8(fp)
 800450c:	18c00104 	addi	r3,r3,4
 8004510:	19000017 	ldw	r4,0(r3)
 8004514:	e0ffff17 	ldw	r3,-4(fp)
 8004518:	18c00104 	addi	r3,r3,4
 800451c:	18c00017 	ldw	r3,0(r3)
 8004520:	20c7883a 	add	r3,r4,r3
 8004524:	10c00015 	stw	r3,0(r2)
 8004528:	e0bffd17 	ldw	r2,-12(fp)
 800452c:	10800204 	addi	r2,r2,8
 8004530:	e0fffe17 	ldw	r3,-8(fp)
 8004534:	18c00204 	addi	r3,r3,8
 8004538:	19000017 	ldw	r4,0(r3)
 800453c:	e0ffff17 	ldw	r3,-4(fp)
 8004540:	18c00204 	addi	r3,r3,8
 8004544:	18c00017 	ldw	r3,0(r3)
 8004548:	20c7883a 	add	r3,r4,r3
 800454c:	10c00015 	stw	r3,0(r2)
 8004550:	e0bffd17 	ldw	r2,-12(fp)
 8004554:	e037883a 	mov	sp,fp
 8004558:	df000017 	ldw	fp,0(sp)
 800455c:	dec00104 	addi	sp,sp,4
 8004560:	f800283a 	ret

08004564 <vec3i_add_i>:
 8004564:	defffc04 	addi	sp,sp,-16
 8004568:	df000315 	stw	fp,12(sp)
 800456c:	df000304 	addi	fp,sp,12
 8004570:	e13ffd15 	stw	r4,-12(fp)
 8004574:	e17ffe15 	stw	r5,-8(fp)
 8004578:	e1bfff15 	stw	r6,-4(fp)
 800457c:	e0bffe17 	ldw	r2,-8(fp)
 8004580:	10c00017 	ldw	r3,0(r2)
 8004584:	e0bfff17 	ldw	r2,-4(fp)
 8004588:	1887883a 	add	r3,r3,r2
 800458c:	e0bffd17 	ldw	r2,-12(fp)
 8004590:	10c00015 	stw	r3,0(r2)
 8004594:	e0bffd17 	ldw	r2,-12(fp)
 8004598:	10800104 	addi	r2,r2,4
 800459c:	e0fffe17 	ldw	r3,-8(fp)
 80045a0:	18c00104 	addi	r3,r3,4
 80045a4:	19000017 	ldw	r4,0(r3)
 80045a8:	e0ffff17 	ldw	r3,-4(fp)
 80045ac:	20c7883a 	add	r3,r4,r3
 80045b0:	10c00015 	stw	r3,0(r2)
 80045b4:	e0bffd17 	ldw	r2,-12(fp)
 80045b8:	10800204 	addi	r2,r2,8
 80045bc:	e0fffe17 	ldw	r3,-8(fp)
 80045c0:	18c00204 	addi	r3,r3,8
 80045c4:	19000017 	ldw	r4,0(r3)
 80045c8:	e0ffff17 	ldw	r3,-4(fp)
 80045cc:	20c7883a 	add	r3,r4,r3
 80045d0:	10c00015 	stw	r3,0(r2)
 80045d4:	e0bffd17 	ldw	r2,-12(fp)
 80045d8:	e037883a 	mov	sp,fp
 80045dc:	df000017 	ldw	fp,0(sp)
 80045e0:	dec00104 	addi	sp,sp,4
 80045e4:	f800283a 	ret

080045e8 <vec3i_subtract>:
 80045e8:	defffc04 	addi	sp,sp,-16
 80045ec:	df000315 	stw	fp,12(sp)
 80045f0:	df000304 	addi	fp,sp,12
 80045f4:	e13ffd15 	stw	r4,-12(fp)
 80045f8:	e17ffe15 	stw	r5,-8(fp)
 80045fc:	e1bfff15 	stw	r6,-4(fp)
 8004600:	e0bffe17 	ldw	r2,-8(fp)
 8004604:	10c00017 	ldw	r3,0(r2)
 8004608:	e0bfff17 	ldw	r2,-4(fp)
 800460c:	10800017 	ldw	r2,0(r2)
 8004610:	1887c83a 	sub	r3,r3,r2
 8004614:	e0bffd17 	ldw	r2,-12(fp)
 8004618:	10c00015 	stw	r3,0(r2)
 800461c:	e0bffd17 	ldw	r2,-12(fp)
 8004620:	10800104 	addi	r2,r2,4
 8004624:	e0fffe17 	ldw	r3,-8(fp)
 8004628:	18c00104 	addi	r3,r3,4
 800462c:	19000017 	ldw	r4,0(r3)
 8004630:	e0ffff17 	ldw	r3,-4(fp)
 8004634:	18c00104 	addi	r3,r3,4
 8004638:	18c00017 	ldw	r3,0(r3)
 800463c:	20c7c83a 	sub	r3,r4,r3
 8004640:	10c00015 	stw	r3,0(r2)
 8004644:	e0bffd17 	ldw	r2,-12(fp)
 8004648:	10800204 	addi	r2,r2,8
 800464c:	e0fffe17 	ldw	r3,-8(fp)
 8004650:	18c00204 	addi	r3,r3,8
 8004654:	19000017 	ldw	r4,0(r3)
 8004658:	e0ffff17 	ldw	r3,-4(fp)
 800465c:	18c00204 	addi	r3,r3,8
 8004660:	18c00017 	ldw	r3,0(r3)
 8004664:	20c7c83a 	sub	r3,r4,r3
 8004668:	10c00015 	stw	r3,0(r2)
 800466c:	e0bffd17 	ldw	r2,-12(fp)
 8004670:	e037883a 	mov	sp,fp
 8004674:	df000017 	ldw	fp,0(sp)
 8004678:	dec00104 	addi	sp,sp,4
 800467c:	f800283a 	ret

08004680 <vec3i_subtract_i>:
 8004680:	defffc04 	addi	sp,sp,-16
 8004684:	df000315 	stw	fp,12(sp)
 8004688:	df000304 	addi	fp,sp,12
 800468c:	e13ffd15 	stw	r4,-12(fp)
 8004690:	e17ffe15 	stw	r5,-8(fp)
 8004694:	e1bfff15 	stw	r6,-4(fp)
 8004698:	e0bffe17 	ldw	r2,-8(fp)
 800469c:	10c00017 	ldw	r3,0(r2)
 80046a0:	e0bfff17 	ldw	r2,-4(fp)
 80046a4:	1887c83a 	sub	r3,r3,r2
 80046a8:	e0bffd17 	ldw	r2,-12(fp)
 80046ac:	10c00015 	stw	r3,0(r2)
 80046b0:	e0bffd17 	ldw	r2,-12(fp)
 80046b4:	10800104 	addi	r2,r2,4
 80046b8:	e0fffe17 	ldw	r3,-8(fp)
 80046bc:	18c00104 	addi	r3,r3,4
 80046c0:	19000017 	ldw	r4,0(r3)
 80046c4:	e0ffff17 	ldw	r3,-4(fp)
 80046c8:	20c7c83a 	sub	r3,r4,r3
 80046cc:	10c00015 	stw	r3,0(r2)
 80046d0:	e0bffd17 	ldw	r2,-12(fp)
 80046d4:	10800204 	addi	r2,r2,8
 80046d8:	e0fffe17 	ldw	r3,-8(fp)
 80046dc:	18c00204 	addi	r3,r3,8
 80046e0:	19000017 	ldw	r4,0(r3)
 80046e4:	e0ffff17 	ldw	r3,-4(fp)
 80046e8:	20c7c83a 	sub	r3,r4,r3
 80046ec:	10c00015 	stw	r3,0(r2)
 80046f0:	e0bffd17 	ldw	r2,-12(fp)
 80046f4:	e037883a 	mov	sp,fp
 80046f8:	df000017 	ldw	fp,0(sp)
 80046fc:	dec00104 	addi	sp,sp,4
 8004700:	f800283a 	ret

08004704 <vec3i_multiply>:
 8004704:	defffc04 	addi	sp,sp,-16
 8004708:	df000315 	stw	fp,12(sp)
 800470c:	df000304 	addi	fp,sp,12
 8004710:	e13ffd15 	stw	r4,-12(fp)
 8004714:	e17ffe15 	stw	r5,-8(fp)
 8004718:	e1bfff15 	stw	r6,-4(fp)
 800471c:	e0bffe17 	ldw	r2,-8(fp)
 8004720:	10c00017 	ldw	r3,0(r2)
 8004724:	e0bfff17 	ldw	r2,-4(fp)
 8004728:	10800017 	ldw	r2,0(r2)
 800472c:	1887383a 	mul	r3,r3,r2
 8004730:	e0bffd17 	ldw	r2,-12(fp)
 8004734:	10c00015 	stw	r3,0(r2)
 8004738:	e0bffd17 	ldw	r2,-12(fp)
 800473c:	10800104 	addi	r2,r2,4
 8004740:	e0fffe17 	ldw	r3,-8(fp)
 8004744:	18c00104 	addi	r3,r3,4
 8004748:	19000017 	ldw	r4,0(r3)
 800474c:	e0ffff17 	ldw	r3,-4(fp)
 8004750:	18c00104 	addi	r3,r3,4
 8004754:	18c00017 	ldw	r3,0(r3)
 8004758:	20c7383a 	mul	r3,r4,r3
 800475c:	10c00015 	stw	r3,0(r2)
 8004760:	e0bffd17 	ldw	r2,-12(fp)
 8004764:	10800204 	addi	r2,r2,8
 8004768:	e0fffe17 	ldw	r3,-8(fp)
 800476c:	18c00204 	addi	r3,r3,8
 8004770:	19000017 	ldw	r4,0(r3)
 8004774:	e0ffff17 	ldw	r3,-4(fp)
 8004778:	18c00204 	addi	r3,r3,8
 800477c:	18c00017 	ldw	r3,0(r3)
 8004780:	20c7383a 	mul	r3,r4,r3
 8004784:	10c00015 	stw	r3,0(r2)
 8004788:	e0bffd17 	ldw	r2,-12(fp)
 800478c:	e037883a 	mov	sp,fp
 8004790:	df000017 	ldw	fp,0(sp)
 8004794:	dec00104 	addi	sp,sp,4
 8004798:	f800283a 	ret

0800479c <vec3i_multiply_i>:
 800479c:	defffc04 	addi	sp,sp,-16
 80047a0:	df000315 	stw	fp,12(sp)
 80047a4:	df000304 	addi	fp,sp,12
 80047a8:	e13ffd15 	stw	r4,-12(fp)
 80047ac:	e17ffe15 	stw	r5,-8(fp)
 80047b0:	e1bfff15 	stw	r6,-4(fp)
 80047b4:	e0bffe17 	ldw	r2,-8(fp)
 80047b8:	10c00017 	ldw	r3,0(r2)
 80047bc:	e0bfff17 	ldw	r2,-4(fp)
 80047c0:	1887383a 	mul	r3,r3,r2
 80047c4:	e0bffd17 	ldw	r2,-12(fp)
 80047c8:	10c00015 	stw	r3,0(r2)
 80047cc:	e0bffd17 	ldw	r2,-12(fp)
 80047d0:	10800104 	addi	r2,r2,4
 80047d4:	e0fffe17 	ldw	r3,-8(fp)
 80047d8:	18c00104 	addi	r3,r3,4
 80047dc:	19000017 	ldw	r4,0(r3)
 80047e0:	e0ffff17 	ldw	r3,-4(fp)
 80047e4:	20c7383a 	mul	r3,r4,r3
 80047e8:	10c00015 	stw	r3,0(r2)
 80047ec:	e0bffd17 	ldw	r2,-12(fp)
 80047f0:	10800204 	addi	r2,r2,8
 80047f4:	e0fffe17 	ldw	r3,-8(fp)
 80047f8:	18c00204 	addi	r3,r3,8
 80047fc:	19000017 	ldw	r4,0(r3)
 8004800:	e0ffff17 	ldw	r3,-4(fp)
 8004804:	20c7383a 	mul	r3,r4,r3
 8004808:	10c00015 	stw	r3,0(r2)
 800480c:	e0bffd17 	ldw	r2,-12(fp)
 8004810:	e037883a 	mov	sp,fp
 8004814:	df000017 	ldw	fp,0(sp)
 8004818:	dec00104 	addi	sp,sp,4
 800481c:	f800283a 	ret

08004820 <vec3i_divide>:
 8004820:	defffa04 	addi	sp,sp,-24
 8004824:	dfc00515 	stw	ra,20(sp)
 8004828:	df000415 	stw	fp,16(sp)
 800482c:	dc000315 	stw	r16,12(sp)
 8004830:	df000404 	addi	fp,sp,16
 8004834:	e13ffc15 	stw	r4,-16(fp)
 8004838:	e17ffd15 	stw	r5,-12(fp)
 800483c:	e1bffe15 	stw	r6,-8(fp)
 8004840:	e0bffd17 	ldw	r2,-12(fp)
 8004844:	10c00017 	ldw	r3,0(r2)
 8004848:	e0bffe17 	ldw	r2,-8(fp)
 800484c:	10800017 	ldw	r2,0(r2)
 8004850:	100b883a 	mov	r5,r2
 8004854:	1809883a 	mov	r4,r3
 8004858:	8023d540 	call	8023d54 <__divsi3>
 800485c:	1007883a 	mov	r3,r2
 8004860:	e0bffc17 	ldw	r2,-16(fp)
 8004864:	10c00015 	stw	r3,0(r2)
 8004868:	e0bffc17 	ldw	r2,-16(fp)
 800486c:	14000104 	addi	r16,r2,4
 8004870:	e0bffd17 	ldw	r2,-12(fp)
 8004874:	10800104 	addi	r2,r2,4
 8004878:	10c00017 	ldw	r3,0(r2)
 800487c:	e0bffe17 	ldw	r2,-8(fp)
 8004880:	10800104 	addi	r2,r2,4
 8004884:	10800017 	ldw	r2,0(r2)
 8004888:	100b883a 	mov	r5,r2
 800488c:	1809883a 	mov	r4,r3
 8004890:	8023d540 	call	8023d54 <__divsi3>
 8004894:	80800015 	stw	r2,0(r16)
 8004898:	e0bffc17 	ldw	r2,-16(fp)
 800489c:	14000204 	addi	r16,r2,8
 80048a0:	e0bffd17 	ldw	r2,-12(fp)
 80048a4:	10800204 	addi	r2,r2,8
 80048a8:	10c00017 	ldw	r3,0(r2)
 80048ac:	e0bffe17 	ldw	r2,-8(fp)
 80048b0:	10800204 	addi	r2,r2,8
 80048b4:	10800017 	ldw	r2,0(r2)
 80048b8:	100b883a 	mov	r5,r2
 80048bc:	1809883a 	mov	r4,r3
 80048c0:	8023d540 	call	8023d54 <__divsi3>
 80048c4:	80800015 	stw	r2,0(r16)
 80048c8:	e0bffc17 	ldw	r2,-16(fp)
 80048cc:	e6ffff04 	addi	sp,fp,-4
 80048d0:	dfc00217 	ldw	ra,8(sp)
 80048d4:	df000117 	ldw	fp,4(sp)
 80048d8:	dc000017 	ldw	r16,0(sp)
 80048dc:	dec00304 	addi	sp,sp,12
 80048e0:	f800283a 	ret

080048e4 <vec3i_divide_i>:
 80048e4:	defffa04 	addi	sp,sp,-24
 80048e8:	dfc00515 	stw	ra,20(sp)
 80048ec:	df000415 	stw	fp,16(sp)
 80048f0:	dc000315 	stw	r16,12(sp)
 80048f4:	df000404 	addi	fp,sp,16
 80048f8:	e13ffc15 	stw	r4,-16(fp)
 80048fc:	e17ffd15 	stw	r5,-12(fp)
 8004900:	e1bffe15 	stw	r6,-8(fp)
 8004904:	e0bffd17 	ldw	r2,-12(fp)
 8004908:	10800017 	ldw	r2,0(r2)
 800490c:	e17ffe17 	ldw	r5,-8(fp)
 8004910:	1009883a 	mov	r4,r2
 8004914:	8023d540 	call	8023d54 <__divsi3>
 8004918:	1007883a 	mov	r3,r2
 800491c:	e0bffc17 	ldw	r2,-16(fp)
 8004920:	10c00015 	stw	r3,0(r2)
 8004924:	e0bffc17 	ldw	r2,-16(fp)
 8004928:	14000104 	addi	r16,r2,4
 800492c:	e0bffd17 	ldw	r2,-12(fp)
 8004930:	10800104 	addi	r2,r2,4
 8004934:	10800017 	ldw	r2,0(r2)
 8004938:	e17ffe17 	ldw	r5,-8(fp)
 800493c:	1009883a 	mov	r4,r2
 8004940:	8023d540 	call	8023d54 <__divsi3>
 8004944:	80800015 	stw	r2,0(r16)
 8004948:	e0bffc17 	ldw	r2,-16(fp)
 800494c:	14000204 	addi	r16,r2,8
 8004950:	e0bffd17 	ldw	r2,-12(fp)
 8004954:	10800204 	addi	r2,r2,8
 8004958:	10800017 	ldw	r2,0(r2)
 800495c:	e17ffe17 	ldw	r5,-8(fp)
 8004960:	1009883a 	mov	r4,r2
 8004964:	8023d540 	call	8023d54 <__divsi3>
 8004968:	80800015 	stw	r2,0(r16)
 800496c:	e0bffc17 	ldw	r2,-16(fp)
 8004970:	e6ffff04 	addi	sp,fp,-4
 8004974:	dfc00217 	ldw	ra,8(sp)
 8004978:	df000117 	ldw	fp,4(sp)
 800497c:	dc000017 	ldw	r16,0(sp)
 8004980:	dec00304 	addi	sp,sp,12
 8004984:	f800283a 	ret

08004988 <vec3i_snap>:
 8004988:	defffa04 	addi	sp,sp,-24
 800498c:	dfc00515 	stw	ra,20(sp)
 8004990:	df000415 	stw	fp,16(sp)
 8004994:	dc000315 	stw	r16,12(sp)
 8004998:	df000404 	addi	fp,sp,16
 800499c:	e13ffc15 	stw	r4,-16(fp)
 80049a0:	e17ffd15 	stw	r5,-12(fp)
 80049a4:	e1bffe15 	stw	r6,-8(fp)
 80049a8:	e0bffd17 	ldw	r2,-12(fp)
 80049ac:	10c00017 	ldw	r3,0(r2)
 80049b0:	e0bffe17 	ldw	r2,-8(fp)
 80049b4:	10800017 	ldw	r2,0(r2)
 80049b8:	100b883a 	mov	r5,r2
 80049bc:	1809883a 	mov	r4,r3
 80049c0:	8023d540 	call	8023d54 <__divsi3>
 80049c4:	1007883a 	mov	r3,r2
 80049c8:	e0bffe17 	ldw	r2,-8(fp)
 80049cc:	10800017 	ldw	r2,0(r2)
 80049d0:	1887383a 	mul	r3,r3,r2
 80049d4:	e0bffc17 	ldw	r2,-16(fp)
 80049d8:	10c00015 	stw	r3,0(r2)
 80049dc:	e0bffc17 	ldw	r2,-16(fp)
 80049e0:	14000104 	addi	r16,r2,4
 80049e4:	e0bffd17 	ldw	r2,-12(fp)
 80049e8:	10800104 	addi	r2,r2,4
 80049ec:	10c00017 	ldw	r3,0(r2)
 80049f0:	e0bffe17 	ldw	r2,-8(fp)
 80049f4:	10800104 	addi	r2,r2,4
 80049f8:	10800017 	ldw	r2,0(r2)
 80049fc:	100b883a 	mov	r5,r2
 8004a00:	1809883a 	mov	r4,r3
 8004a04:	8023d540 	call	8023d54 <__divsi3>
 8004a08:	1007883a 	mov	r3,r2
 8004a0c:	e0bffe17 	ldw	r2,-8(fp)
 8004a10:	10800104 	addi	r2,r2,4
 8004a14:	10800017 	ldw	r2,0(r2)
 8004a18:	1885383a 	mul	r2,r3,r2
 8004a1c:	80800015 	stw	r2,0(r16)
 8004a20:	e0bffc17 	ldw	r2,-16(fp)
 8004a24:	14000204 	addi	r16,r2,8
 8004a28:	e0bffd17 	ldw	r2,-12(fp)
 8004a2c:	10800204 	addi	r2,r2,8
 8004a30:	10c00017 	ldw	r3,0(r2)
 8004a34:	e0bffe17 	ldw	r2,-8(fp)
 8004a38:	10800204 	addi	r2,r2,8
 8004a3c:	10800017 	ldw	r2,0(r2)
 8004a40:	100b883a 	mov	r5,r2
 8004a44:	1809883a 	mov	r4,r3
 8004a48:	8023d540 	call	8023d54 <__divsi3>
 8004a4c:	1007883a 	mov	r3,r2
 8004a50:	e0bffe17 	ldw	r2,-8(fp)
 8004a54:	10800204 	addi	r2,r2,8
 8004a58:	10800017 	ldw	r2,0(r2)
 8004a5c:	1885383a 	mul	r2,r3,r2
 8004a60:	80800015 	stw	r2,0(r16)
 8004a64:	e0bffc17 	ldw	r2,-16(fp)
 8004a68:	e6ffff04 	addi	sp,fp,-4
 8004a6c:	dfc00217 	ldw	ra,8(sp)
 8004a70:	df000117 	ldw	fp,4(sp)
 8004a74:	dc000017 	ldw	r16,0(sp)
 8004a78:	dec00304 	addi	sp,sp,12
 8004a7c:	f800283a 	ret

08004a80 <vec3i_snap_i>:
 8004a80:	defffa04 	addi	sp,sp,-24
 8004a84:	dfc00515 	stw	ra,20(sp)
 8004a88:	df000415 	stw	fp,16(sp)
 8004a8c:	dc000315 	stw	r16,12(sp)
 8004a90:	df000404 	addi	fp,sp,16
 8004a94:	e13ffc15 	stw	r4,-16(fp)
 8004a98:	e17ffd15 	stw	r5,-12(fp)
 8004a9c:	e1bffe15 	stw	r6,-8(fp)
 8004aa0:	e0bffd17 	ldw	r2,-12(fp)
 8004aa4:	10800017 	ldw	r2,0(r2)
 8004aa8:	e17ffe17 	ldw	r5,-8(fp)
 8004aac:	1009883a 	mov	r4,r2
 8004ab0:	8023d540 	call	8023d54 <__divsi3>
 8004ab4:	1007883a 	mov	r3,r2
 8004ab8:	e0bffe17 	ldw	r2,-8(fp)
 8004abc:	1887383a 	mul	r3,r3,r2
 8004ac0:	e0bffc17 	ldw	r2,-16(fp)
 8004ac4:	10c00015 	stw	r3,0(r2)
 8004ac8:	e0bffc17 	ldw	r2,-16(fp)
 8004acc:	14000104 	addi	r16,r2,4
 8004ad0:	e0bffd17 	ldw	r2,-12(fp)
 8004ad4:	10800104 	addi	r2,r2,4
 8004ad8:	10800017 	ldw	r2,0(r2)
 8004adc:	e17ffe17 	ldw	r5,-8(fp)
 8004ae0:	1009883a 	mov	r4,r2
 8004ae4:	8023d540 	call	8023d54 <__divsi3>
 8004ae8:	1007883a 	mov	r3,r2
 8004aec:	e0bffe17 	ldw	r2,-8(fp)
 8004af0:	1885383a 	mul	r2,r3,r2
 8004af4:	80800015 	stw	r2,0(r16)
 8004af8:	e0bffc17 	ldw	r2,-16(fp)
 8004afc:	14000204 	addi	r16,r2,8
 8004b00:	e0bffd17 	ldw	r2,-12(fp)
 8004b04:	10800204 	addi	r2,r2,8
 8004b08:	10800017 	ldw	r2,0(r2)
 8004b0c:	e17ffe17 	ldw	r5,-8(fp)
 8004b10:	1009883a 	mov	r4,r2
 8004b14:	8023d540 	call	8023d54 <__divsi3>
 8004b18:	1007883a 	mov	r3,r2
 8004b1c:	e0bffe17 	ldw	r2,-8(fp)
 8004b20:	1885383a 	mul	r2,r3,r2
 8004b24:	80800015 	stw	r2,0(r16)
 8004b28:	e0bffc17 	ldw	r2,-16(fp)
 8004b2c:	e6ffff04 	addi	sp,fp,-4
 8004b30:	dfc00217 	ldw	ra,8(sp)
 8004b34:	df000117 	ldw	fp,4(sp)
 8004b38:	dc000017 	ldw	r16,0(sp)
 8004b3c:	dec00304 	addi	sp,sp,12
 8004b40:	f800283a 	ret

08004b44 <vec3i_cross>:
 8004b44:	defff904 	addi	sp,sp,-28
 8004b48:	df000615 	stw	fp,24(sp)
 8004b4c:	df000604 	addi	fp,sp,24
 8004b50:	e13ffd15 	stw	r4,-12(fp)
 8004b54:	e17ffe15 	stw	r5,-8(fp)
 8004b58:	e1bfff15 	stw	r6,-4(fp)
 8004b5c:	e0bffe17 	ldw	r2,-8(fp)
 8004b60:	10800104 	addi	r2,r2,4
 8004b64:	10c00017 	ldw	r3,0(r2)
 8004b68:	e0bfff17 	ldw	r2,-4(fp)
 8004b6c:	10800204 	addi	r2,r2,8
 8004b70:	10800017 	ldw	r2,0(r2)
 8004b74:	1887383a 	mul	r3,r3,r2
 8004b78:	e0bffe17 	ldw	r2,-8(fp)
 8004b7c:	10800204 	addi	r2,r2,8
 8004b80:	11000017 	ldw	r4,0(r2)
 8004b84:	e0bfff17 	ldw	r2,-4(fp)
 8004b88:	10800104 	addi	r2,r2,4
 8004b8c:	10800017 	ldw	r2,0(r2)
 8004b90:	2085383a 	mul	r2,r4,r2
 8004b94:	1885c83a 	sub	r2,r3,r2
 8004b98:	e0bffa15 	stw	r2,-24(fp)
 8004b9c:	e0bffe17 	ldw	r2,-8(fp)
 8004ba0:	10800204 	addi	r2,r2,8
 8004ba4:	10c00017 	ldw	r3,0(r2)
 8004ba8:	e0bfff17 	ldw	r2,-4(fp)
 8004bac:	10800017 	ldw	r2,0(r2)
 8004bb0:	1887383a 	mul	r3,r3,r2
 8004bb4:	e0bffe17 	ldw	r2,-8(fp)
 8004bb8:	11000017 	ldw	r4,0(r2)
 8004bbc:	e0bfff17 	ldw	r2,-4(fp)
 8004bc0:	10800204 	addi	r2,r2,8
 8004bc4:	10800017 	ldw	r2,0(r2)
 8004bc8:	2085383a 	mul	r2,r4,r2
 8004bcc:	1885c83a 	sub	r2,r3,r2
 8004bd0:	e0bffb15 	stw	r2,-20(fp)
 8004bd4:	e0bffe17 	ldw	r2,-8(fp)
 8004bd8:	10c00017 	ldw	r3,0(r2)
 8004bdc:	e0bfff17 	ldw	r2,-4(fp)
 8004be0:	10800104 	addi	r2,r2,4
 8004be4:	10800017 	ldw	r2,0(r2)
 8004be8:	1887383a 	mul	r3,r3,r2
 8004bec:	e0bffe17 	ldw	r2,-8(fp)
 8004bf0:	10800104 	addi	r2,r2,4
 8004bf4:	11000017 	ldw	r4,0(r2)
 8004bf8:	e0bfff17 	ldw	r2,-4(fp)
 8004bfc:	10800017 	ldw	r2,0(r2)
 8004c00:	2085383a 	mul	r2,r4,r2
 8004c04:	1885c83a 	sub	r2,r3,r2
 8004c08:	e0bffc15 	stw	r2,-16(fp)
 8004c0c:	e0fffa17 	ldw	r3,-24(fp)
 8004c10:	e0bffd17 	ldw	r2,-12(fp)
 8004c14:	10c00015 	stw	r3,0(r2)
 8004c18:	e0bffd17 	ldw	r2,-12(fp)
 8004c1c:	10800104 	addi	r2,r2,4
 8004c20:	e0fffb17 	ldw	r3,-20(fp)
 8004c24:	10c00015 	stw	r3,0(r2)
 8004c28:	e0bffd17 	ldw	r2,-12(fp)
 8004c2c:	10800204 	addi	r2,r2,8
 8004c30:	e0fffc17 	ldw	r3,-16(fp)
 8004c34:	10c00015 	stw	r3,0(r2)
 8004c38:	e0bffd17 	ldw	r2,-12(fp)
 8004c3c:	e037883a 	mov	sp,fp
 8004c40:	df000017 	ldw	fp,0(sp)
 8004c44:	dec00104 	addi	sp,sp,4
 8004c48:	f800283a 	ret

08004c4c <vec3i_negative>:
 8004c4c:	defffd04 	addi	sp,sp,-12
 8004c50:	df000215 	stw	fp,8(sp)
 8004c54:	df000204 	addi	fp,sp,8
 8004c58:	e13ffe15 	stw	r4,-8(fp)
 8004c5c:	e17fff15 	stw	r5,-4(fp)
 8004c60:	e0bfff17 	ldw	r2,-4(fp)
 8004c64:	10800017 	ldw	r2,0(r2)
 8004c68:	0087c83a 	sub	r3,zero,r2
 8004c6c:	e0bffe17 	ldw	r2,-8(fp)
 8004c70:	10c00015 	stw	r3,0(r2)
 8004c74:	e0bffe17 	ldw	r2,-8(fp)
 8004c78:	10800104 	addi	r2,r2,4
 8004c7c:	e0ffff17 	ldw	r3,-4(fp)
 8004c80:	18c00104 	addi	r3,r3,4
 8004c84:	18c00017 	ldw	r3,0(r3)
 8004c88:	00c7c83a 	sub	r3,zero,r3
 8004c8c:	10c00015 	stw	r3,0(r2)
 8004c90:	e0bffe17 	ldw	r2,-8(fp)
 8004c94:	10800204 	addi	r2,r2,8
 8004c98:	e0ffff17 	ldw	r3,-4(fp)
 8004c9c:	18c00204 	addi	r3,r3,8
 8004ca0:	18c00017 	ldw	r3,0(r3)
 8004ca4:	00c7c83a 	sub	r3,zero,r3
 8004ca8:	10c00015 	stw	r3,0(r2)
 8004cac:	e0bffe17 	ldw	r2,-8(fp)
 8004cb0:	e037883a 	mov	sp,fp
 8004cb4:	df000017 	ldw	fp,0(sp)
 8004cb8:	dec00104 	addi	sp,sp,4
 8004cbc:	f800283a 	ret

08004cc0 <vec3i_abs>:
 8004cc0:	defffd04 	addi	sp,sp,-12
 8004cc4:	df000215 	stw	fp,8(sp)
 8004cc8:	df000204 	addi	fp,sp,8
 8004ccc:	e13ffe15 	stw	r4,-8(fp)
 8004cd0:	e17fff15 	stw	r5,-4(fp)
 8004cd4:	e0bfff17 	ldw	r2,-4(fp)
 8004cd8:	10c00017 	ldw	r3,0(r2)
 8004cdc:	e0bffe17 	ldw	r2,-8(fp)
 8004ce0:	10c00015 	stw	r3,0(r2)
 8004ce4:	e0bffe17 	ldw	r2,-8(fp)
 8004ce8:	10800017 	ldw	r2,0(r2)
 8004cec:	1000050e 	bge	r2,zero,8004d04 <vec3i_abs+0x44>
 8004cf0:	e0bffe17 	ldw	r2,-8(fp)
 8004cf4:	10800017 	ldw	r2,0(r2)
 8004cf8:	0087c83a 	sub	r3,zero,r2
 8004cfc:	e0bffe17 	ldw	r2,-8(fp)
 8004d00:	10c00015 	stw	r3,0(r2)
 8004d04:	e0bffe17 	ldw	r2,-8(fp)
 8004d08:	10800104 	addi	r2,r2,4
 8004d0c:	e0ffff17 	ldw	r3,-4(fp)
 8004d10:	18c00117 	ldw	r3,4(r3)
 8004d14:	10c00015 	stw	r3,0(r2)
 8004d18:	e0bffe17 	ldw	r2,-8(fp)
 8004d1c:	10800104 	addi	r2,r2,4
 8004d20:	10800017 	ldw	r2,0(r2)
 8004d24:	1000070e 	bge	r2,zero,8004d44 <vec3i_abs+0x84>
 8004d28:	e0bffe17 	ldw	r2,-8(fp)
 8004d2c:	10800104 	addi	r2,r2,4
 8004d30:	e0fffe17 	ldw	r3,-8(fp)
 8004d34:	18c00104 	addi	r3,r3,4
 8004d38:	18c00017 	ldw	r3,0(r3)
 8004d3c:	00c7c83a 	sub	r3,zero,r3
 8004d40:	10c00015 	stw	r3,0(r2)
 8004d44:	e0bffe17 	ldw	r2,-8(fp)
 8004d48:	10800204 	addi	r2,r2,8
 8004d4c:	e0ffff17 	ldw	r3,-4(fp)
 8004d50:	18c00217 	ldw	r3,8(r3)
 8004d54:	10c00015 	stw	r3,0(r2)
 8004d58:	e0bffe17 	ldw	r2,-8(fp)
 8004d5c:	10800204 	addi	r2,r2,8
 8004d60:	10800017 	ldw	r2,0(r2)
 8004d64:	1000070e 	bge	r2,zero,8004d84 <vec3i_abs+0xc4>
 8004d68:	e0bffe17 	ldw	r2,-8(fp)
 8004d6c:	10800204 	addi	r2,r2,8
 8004d70:	e0fffe17 	ldw	r3,-8(fp)
 8004d74:	18c00204 	addi	r3,r3,8
 8004d78:	18c00017 	ldw	r3,0(r3)
 8004d7c:	00c7c83a 	sub	r3,zero,r3
 8004d80:	10c00015 	stw	r3,0(r2)
 8004d84:	e0bffe17 	ldw	r2,-8(fp)
 8004d88:	e037883a 	mov	sp,fp
 8004d8c:	df000017 	ldw	fp,0(sp)
 8004d90:	dec00104 	addi	sp,sp,4
 8004d94:	f800283a 	ret

08004d98 <vec3i_max>:
 8004d98:	defffc04 	addi	sp,sp,-16
 8004d9c:	df000315 	stw	fp,12(sp)
 8004da0:	df000304 	addi	fp,sp,12
 8004da4:	e13ffd15 	stw	r4,-12(fp)
 8004da8:	e17ffe15 	stw	r5,-8(fp)
 8004dac:	e1bfff15 	stw	r6,-4(fp)
 8004db0:	e0bffe17 	ldw	r2,-8(fp)
 8004db4:	10800017 	ldw	r2,0(r2)
 8004db8:	e0ffff17 	ldw	r3,-4(fp)
 8004dbc:	18c00017 	ldw	r3,0(r3)
 8004dc0:	1880050e 	bge	r3,r2,8004dd8 <vec3i_max+0x40>
 8004dc4:	e0bffe17 	ldw	r2,-8(fp)
 8004dc8:	10c00017 	ldw	r3,0(r2)
 8004dcc:	e0bffd17 	ldw	r2,-12(fp)
 8004dd0:	10c00015 	stw	r3,0(r2)
 8004dd4:	00000406 	br	8004de8 <vec3i_max+0x50>
 8004dd8:	e0bfff17 	ldw	r2,-4(fp)
 8004ddc:	10c00017 	ldw	r3,0(r2)
 8004de0:	e0bffd17 	ldw	r2,-12(fp)
 8004de4:	10c00015 	stw	r3,0(r2)
 8004de8:	e0bffe17 	ldw	r2,-8(fp)
 8004dec:	10800104 	addi	r2,r2,4
 8004df0:	10800017 	ldw	r2,0(r2)
 8004df4:	e0ffff17 	ldw	r3,-4(fp)
 8004df8:	18c00104 	addi	r3,r3,4
 8004dfc:	18c00017 	ldw	r3,0(r3)
 8004e00:	1880060e 	bge	r3,r2,8004e1c <vec3i_max+0x84>
 8004e04:	e0bffd17 	ldw	r2,-12(fp)
 8004e08:	10800104 	addi	r2,r2,4
 8004e0c:	e0fffe17 	ldw	r3,-8(fp)
 8004e10:	18c00117 	ldw	r3,4(r3)
 8004e14:	10c00015 	stw	r3,0(r2)
 8004e18:	00000506 	br	8004e30 <vec3i_max+0x98>
 8004e1c:	e0bffd17 	ldw	r2,-12(fp)
 8004e20:	10800104 	addi	r2,r2,4
 8004e24:	e0ffff17 	ldw	r3,-4(fp)
 8004e28:	18c00117 	ldw	r3,4(r3)
 8004e2c:	10c00015 	stw	r3,0(r2)
 8004e30:	e0bffe17 	ldw	r2,-8(fp)
 8004e34:	10800204 	addi	r2,r2,8
 8004e38:	10800017 	ldw	r2,0(r2)
 8004e3c:	e0ffff17 	ldw	r3,-4(fp)
 8004e40:	18c00204 	addi	r3,r3,8
 8004e44:	18c00017 	ldw	r3,0(r3)
 8004e48:	1880060e 	bge	r3,r2,8004e64 <vec3i_max+0xcc>
 8004e4c:	e0bffd17 	ldw	r2,-12(fp)
 8004e50:	10800204 	addi	r2,r2,8
 8004e54:	e0fffe17 	ldw	r3,-8(fp)
 8004e58:	18c00217 	ldw	r3,8(r3)
 8004e5c:	10c00015 	stw	r3,0(r2)
 8004e60:	00000506 	br	8004e78 <vec3i_max+0xe0>
 8004e64:	e0bffd17 	ldw	r2,-12(fp)
 8004e68:	10800204 	addi	r2,r2,8
 8004e6c:	e0ffff17 	ldw	r3,-4(fp)
 8004e70:	18c00217 	ldw	r3,8(r3)
 8004e74:	10c00015 	stw	r3,0(r2)
 8004e78:	e0bffd17 	ldw	r2,-12(fp)
 8004e7c:	e037883a 	mov	sp,fp
 8004e80:	df000017 	ldw	fp,0(sp)
 8004e84:	dec00104 	addi	sp,sp,4
 8004e88:	f800283a 	ret

08004e8c <vec3i_min>:
 8004e8c:	defffc04 	addi	sp,sp,-16
 8004e90:	df000315 	stw	fp,12(sp)
 8004e94:	df000304 	addi	fp,sp,12
 8004e98:	e13ffd15 	stw	r4,-12(fp)
 8004e9c:	e17ffe15 	stw	r5,-8(fp)
