Archive member included to satisfy reference by file (symbol)

../Hello_bsp//newlib/nios2-elf/lib\libm.a(lib_a-sf_ceil.o)
                              obj/default/src/mathc.o (ceilf)
../Hello_bsp//newlib/nios2-elf/lib\libm.a(lib_a-sf_cos.o)
                              obj/default/src/mathc.o (cosf)
../Hello_bsp//newlib/nios2-elf/lib\libm.a(lib_a-sf_floor.o)
                              obj/default/src/mathc.o (floorf)
../Hello_bsp//newlib/nios2-elf/lib\libm.a(lib_a-sf_fmax.o)
                              obj/default/src/mathc.o (fmaxf)
../Hello_bsp//newlib/nios2-elf/lib\libm.a(lib_a-sf_fmin.o)
                              obj/default/src/mathc.o (fminf)
../Hello_bsp//newlib/nios2-elf/lib\libm.a(lib_a-sf_fpclassify.o)
                              ../Hello_bsp//newlib/nios2-elf/lib\libm.a(lib_a-sf_fmax.o) (__fpclassifyf)
../Hello_bsp//newlib/nios2-elf/lib\libm.a(lib_a-sf_round.o)
                              obj/default/src/mathc.o (roundf)
../Hello_bsp//newlib/nios2-elf/lib\libm.a(lib_a-sf_sin.o)
                              obj/default/src/mathc.o (sinf)
../Hello_bsp//newlib/nios2-elf/lib\libm.a(lib_a-sf_tan.o)
                              obj/default/src/mathc.o (tanf)
../Hello_bsp//newlib/nios2-elf/lib\libm.a(lib_a-wf_acos.o)
                              obj/default/src/mathc.o (acosf)
../Hello_bsp//newlib/nios2-elf/lib\libm.a(lib_a-wf_atan2.o)
                              obj/default/src/mathc.o (atan2f)
../Hello_bsp//newlib/nios2-elf/lib\libm.a(lib_a-wf_pow.o)
                              obj/default/src/mathc.o (powf)
../Hello_bsp//newlib/nios2-elf/lib\libm.a(lib_a-wf_sqrt.o)
                              obj/default/src/mathc.o (sqrtf)
../Hello_bsp//newlib/nios2-elf/lib\libm.a(lib_a-ef_acos.o)
                              ../Hello_bsp//newlib/nios2-elf/lib\libm.a(lib_a-wf_acos.o) (__ieee754_acosf)
../Hello_bsp//newlib/nios2-elf/lib\libm.a(lib_a-ef_atan2.o)
                              ../Hello_bsp//newlib/nios2-elf/lib\libm.a(lib_a-wf_atan2.o) (__ieee754_atan2f)
../Hello_bsp//newlib/nios2-elf/lib\libm.a(lib_a-ef_pow.o)
                              ../Hello_bsp//newlib/nios2-elf/lib\libm.a(lib_a-wf_pow.o) (__ieee754_powf)
../Hello_bsp//newlib/nios2-elf/lib\libm.a(lib_a-ef_rem_pio2.o)
                              ../Hello_bsp//newlib/nios2-elf/lib\libm.a(lib_a-sf_cos.o) (__ieee754_rem_pio2f)
../Hello_bsp//newlib/nios2-elf/lib\libm.a(lib_a-ef_sqrt.o)
                              ../Hello_bsp//newlib/nios2-elf/lib\libm.a(lib_a-wf_sqrt.o) (__ieee754_sqrtf)
../Hello_bsp//newlib/nios2-elf/lib\libm.a(lib_a-kf_cos.o)
                              ../Hello_bsp//newlib/nios2-elf/lib\libm.a(lib_a-sf_cos.o) (__kernel_cosf)
../Hello_bsp//newlib/nios2-elf/lib\libm.a(lib_a-kf_rem_pio2.o)
                              ../Hello_bsp//newlib/nios2-elf/lib\libm.a(lib_a-ef_rem_pio2.o) (__kernel_rem_pio2f)
../Hello_bsp//newlib/nios2-elf/lib\libm.a(lib_a-kf_sin.o)
                              ../Hello_bsp//newlib/nios2-elf/lib\libm.a(lib_a-sf_cos.o) (__kernel_sinf)
../Hello_bsp//newlib/nios2-elf/lib\libm.a(lib_a-kf_tan.o)
                              ../Hello_bsp//newlib/nios2-elf/lib\libm.a(lib_a-sf_tan.o) (__kernel_tanf)
../Hello_bsp//newlib/nios2-elf/lib\libm.a(lib_a-s_lib_ver.o)
                              ../Hello_bsp//newlib/nios2-elf/lib\libm.a(lib_a-wf_acos.o) (__fdlib_version)
../Hello_bsp//newlib/nios2-elf/lib\libm.a(lib_a-s_matherr.o)
                              ../Hello_bsp//newlib/nios2-elf/lib\libm.a(lib_a-wf_acos.o) (matherr)
../Hello_bsp//newlib/nios2-elf/lib\libm.a(lib_a-s_nan.o)
                              ../Hello_bsp//newlib/nios2-elf/lib\libm.a(lib_a-wf_acos.o) (nan)
../Hello_bsp//newlib/nios2-elf/lib\libm.a(lib_a-s_rint.o)
                              ../Hello_bsp//newlib/nios2-elf/lib\libm.a(lib_a-wf_pow.o) (rint)
../Hello_bsp//newlib/nios2-elf/lib\libm.a(lib_a-sf_atan.o)
                              ../Hello_bsp//newlib/nios2-elf/lib\libm.a(lib_a-ef_atan2.o) (atanf)
../Hello_bsp//newlib/nios2-elf/lib\libm.a(lib_a-sf_fabs.o)
                              ../Hello_bsp//newlib/nios2-elf/lib\libm.a(lib_a-wf_acos.o) (fabsf)
../Hello_bsp//newlib/nios2-elf/lib\libm.a(lib_a-sf_finite.o)
                              ../Hello_bsp//newlib/nios2-elf/lib\libm.a(lib_a-wf_pow.o) (finitef)
../Hello_bsp//newlib/nios2-elf/lib\libm.a(lib_a-sf_nan.o)
                              ../Hello_bsp//newlib/nios2-elf/lib\libm.a(lib_a-ef_pow.o) (nanf)
../Hello_bsp//newlib/nios2-elf/lib\libm.a(lib_a-sf_scalbn.o)
                              ../Hello_bsp//newlib/nios2-elf/lib\libm.a(lib_a-ef_pow.o) (scalbnf)
../Hello_bsp//newlib/nios2-elf/lib\libm.a(lib_a-sf_copysign.o)
                              ../Hello_bsp//newlib/nios2-elf/lib\libm.a(lib_a-sf_scalbn.o) (copysignf)
d:/intelfpga_lite/18.0/nios2eds/bin/gnu/h-x86_64-mingw32/bin/../lib/gcc/nios2-elf/5.3.0\libgcc.a(lib2-divmod.o)
                              obj/default/src/gppcu.o (__divsi3)
d:/intelfpga_lite/18.0/nios2eds/bin/gnu/h-x86_64-mingw32/bin/../lib/gcc/nios2-elf/5.3.0\libgcc.a(adddf3.o)
                              ../Hello_bsp//newlib/nios2-elf/lib\libm.a(lib_a-s_rint.o) (__adddf3)
d:/intelfpga_lite/18.0/nios2eds/bin/gnu/h-x86_64-mingw32/bin/../lib/gcc/nios2-elf/5.3.0\libgcc.a(divdf3.o)
                              ../Hello_bsp//newlib/nios2-elf/lib\libm.a(lib_a-wf_pow.o) (__divdf3)
d:/intelfpga_lite/18.0/nios2eds/bin/gnu/h-x86_64-mingw32/bin/../lib/gcc/nios2-elf/5.3.0\libgcc.a(eqdf2.o)
                              ../Hello_bsp//newlib/nios2-elf/lib\libm.a(lib_a-wf_pow.o) (__eqdf2)
d:/intelfpga_lite/18.0/nios2eds/bin/gnu/h-x86_64-mingw32/bin/../lib/gcc/nios2-elf/5.3.0\libgcc.a(subdf3.o)
                              ../Hello_bsp//newlib/nios2-elf/lib\libm.a(lib_a-s_rint.o) (__subdf3)
d:/intelfpga_lite/18.0/nios2eds/bin/gnu/h-x86_64-mingw32/bin/../lib/gcc/nios2-elf/5.3.0\libgcc.a(extendsfdf2.o)
                              obj/default/src/main.o (__extendsfdf2)
d:/intelfpga_lite/18.0/nios2eds/bin/gnu/h-x86_64-mingw32/bin/../lib/gcc/nios2-elf/5.3.0\libgcc.a(truncdfsf2.o)
                              ../Hello_bsp//newlib/nios2-elf/lib\libm.a(lib_a-wf_acos.o) (__truncdfsf2)
d:/intelfpga_lite/18.0/nios2eds/bin/gnu/h-x86_64-mingw32/bin/../lib/gcc/nios2-elf/5.3.0\libgcc.a(_clzsi2.o)
                              d:/intelfpga_lite/18.0/nios2eds/bin/gnu/h-x86_64-mingw32/bin/../lib/gcc/nios2-elf/5.3.0\libgcc.a(adddf3.o) (__clzsi2)
d:/intelfpga_lite/18.0/nios2eds/bin/gnu/h-x86_64-mingw32/bin/../lib/gcc/nios2-elf/5.3.0\libgcc.a(_clz.o)
                              d:/intelfpga_lite/18.0/nios2eds/bin/gnu/h-x86_64-mingw32/bin/../lib/gcc/nios2-elf/5.3.0\libgcc.a(_clzsi2.o) (__clz_tab)
../Hello_bsp//newlib/nios2-elf/lib\libc.a(lib_a-errno.o)
                              ../Hello_bsp//newlib/nios2-elf/lib\libm.a(lib_a-wf_acos.o) (__errno)
../Hello_bsp//newlib/nios2-elf/lib\libc.a(lib_a-impure.o)
                              ../Hello_bsp//newlib/nios2-elf/lib\libc.a(lib_a-errno.o) (_impure_ptr)
../Hello_bsp//newlib/nios2-elf/lib\libc.a(lib_a-malloc.o)
                              obj/default/src/gppcu.o (malloc)
../Hello_bsp//newlib/nios2-elf/lib\libc.a(lib_a-mallocr.o)
                              ../Hello_bsp//newlib/nios2-elf/lib\libc.a(lib_a-malloc.o) (_malloc_r)
../Hello_bsp//newlib/nios2-elf/lib\libc.a(lib_a-memcpy.o)
                              obj/default/src/mathc.o (memcpy)
../Hello_bsp//newlib/nios2-elf/lib\libc.a(lib_a-memset.o)
                              obj/default/src/gppcu.o (memset)
../Hello_bsp//newlib/nios2-elf/lib\libc.a(lib_a-printf.o)
                              obj/default/src/app.o (printf)
../Hello_bsp//newlib/nios2-elf/lib\libc.a(lib_a-putchar.o)
                              obj/default/src/main.o (putchar)
../Hello_bsp//newlib/nios2-elf/lib\libc.a(lib_a-puts.o)
                              obj/default/src/main.o (puts)
../Hello_bsp//newlib/nios2-elf/lib\libc.a(lib_a-rand.o)
                              obj/default/src/main.o (rand)
../Hello_bsp//newlib/nios2-elf/lib\libc.a(lib_a-sbrkr.o)
                              ../Hello_bsp//newlib/nios2-elf/lib\libc.a(lib_a-mallocr.o) (_sbrk_r)
../Hello_bsp//newlib/nios2-elf/lib\libc.a(lib_a-strlen.o)
                              ../Hello_bsp//newlib/nios2-elf/lib\libc.a(lib_a-puts.o) (strlen)
../Hello_bsp//newlib/nios2-elf/lib\libc.a(lib_a-vfprintf.o)
                              ../Hello_bsp//newlib/nios2-elf/lib\libc.a(lib_a-printf.o) (___vfprintf_internal_r)
../Hello_bsp//newlib/nios2-elf/lib\libc.a(lib_a-wsetup.o)
                              ../Hello_bsp//newlib/nios2-elf/lib\libc.a(lib_a-vfprintf.o) (__swsetup_r)
../Hello_bsp//newlib/nios2-elf/lib\libc.a(lib_a-dtoa.o)
                              ../Hello_bsp//newlib/nios2-elf/lib\libc.a(lib_a-vfprintf.o) (_dtoa_r)
../Hello_bsp//newlib/nios2-elf/lib\libc.a(lib_a-fflush.o)
                              ../Hello_bsp//newlib/nios2-elf/lib\libc.a(lib_a-vfprintf.o) (_fflush_r)
../Hello_bsp//newlib/nios2-elf/lib\libc.a(lib_a-findfp.o)
                              ../Hello_bsp//newlib/nios2-elf/lib\libc.a(lib_a-puts.o) (__sinit)
../Hello_bsp//newlib/nios2-elf/lib\libc.a(lib_a-freer.o)
                              ../Hello_bsp//newlib/nios2-elf/lib\libc.a(lib_a-malloc.o) (_free_r)
../Hello_bsp//newlib/nios2-elf/lib\libc.a(lib_a-fvwrite.o)
                              ../Hello_bsp//newlib/nios2-elf/lib\libc.a(lib_a-puts.o) (__sfvwrite_r)
../Hello_bsp//newlib/nios2-elf/lib\libc.a(lib_a-fwalk.o)
                              ../Hello_bsp//newlib/nios2-elf/lib\libc.a(lib_a-findfp.o) (_fwalk)
../Hello_bsp//newlib/nios2-elf/lib\libc.a(lib_a-int_errno.o)
                              ../Hello_bsp//newlib/nios2-elf/lib\libc.a(lib_a-sbrkr.o) (errno)
../Hello_bsp//newlib/nios2-elf/lib\libc.a(lib_a-locale.o)
                              ../Hello_bsp//newlib/nios2-elf/lib\libc.a(lib_a-vfprintf.o) (_localeconv_r)
../Hello_bsp//newlib/nios2-elf/lib\libc.a(lib_a-makebuf.o)
                              ../Hello_bsp//newlib/nios2-elf/lib\libc.a(lib_a-wsetup.o) (__smakebuf_r)
../Hello_bsp//newlib/nios2-elf/lib\libc.a(lib_a-memchr.o)
                              ../Hello_bsp//newlib/nios2-elf/lib\libc.a(lib_a-vfprintf.o) (memchr)
../Hello_bsp//newlib/nios2-elf/lib\libc.a(lib_a-memmove.o)
                              ../Hello_bsp//newlib/nios2-elf/lib\libc.a(lib_a-fvwrite.o) (memmove)
../Hello_bsp//newlib/nios2-elf/lib\libc.a(lib_a-mprec.o)
                              ../Hello_bsp//newlib/nios2-elf/lib\libc.a(lib_a-dtoa.o) (_Balloc)
../Hello_bsp//newlib/nios2-elf/lib\libc.a(lib_a-putc.o)
                              ../Hello_bsp//newlib/nios2-elf/lib\libc.a(lib_a-putchar.o) (_putc_r)
../Hello_bsp//newlib/nios2-elf/lib\libc.a(lib_a-reallocr.o)
                              ../Hello_bsp//newlib/nios2-elf/lib\libc.a(lib_a-fvwrite.o) (_realloc_r)
../Hello_bsp//newlib/nios2-elf/lib\libc.a(lib_a-s_fpclassify.o)
                              ../Hello_bsp//newlib/nios2-elf/lib\libc.a(lib_a-vfprintf.o) (__fpclassifyd)
../Hello_bsp//newlib/nios2-elf/lib\libc.a(lib_a-stdio.o)
                              ../Hello_bsp//newlib/nios2-elf/lib\libc.a(lib_a-findfp.o) (__sread)
../Hello_bsp//newlib/nios2-elf/lib\libc.a(lib_a-strcmp.o)
                              ../Hello_bsp//newlib/nios2-elf/lib\libc.a(lib_a-locale.o) (strcmp)
../Hello_bsp//newlib/nios2-elf/lib\libc.a(lib_a-vfiprintf.o)
                              ../Hello_bsp//newlib/nios2-elf/lib\libc.a(lib_a-vfprintf.o) (__sprint_r)
../Hello_bsp//newlib/nios2-elf/lib\libc.a(lib_a-wbuf.o)
                              ../Hello_bsp//newlib/nios2-elf/lib\libc.a(lib_a-putc.o) (__swbuf_r)
../Hello_bsp//newlib/nios2-elf/lib\libc.a(lib_a-writer.o)
                              ../Hello_bsp//newlib/nios2-elf/lib\libc.a(lib_a-stdio.o) (_write_r)
../Hello_bsp//newlib/nios2-elf/lib\libc.a(closer.o)
                              ../Hello_bsp//newlib/nios2-elf/lib\libc.a(lib_a-stdio.o) (_close_r)
../Hello_bsp//newlib/nios2-elf/lib\libc.a(lib_a-callocr.o)
                              ../Hello_bsp//newlib/nios2-elf/lib\libc.a(lib_a-mprec.o) (_calloc_r)
../Hello_bsp//newlib/nios2-elf/lib\libc.a(lib_a-fclose.o)
                              ../Hello_bsp//newlib/nios2-elf/lib\libc.a(lib_a-findfp.o) (_fclose_r)
../Hello_bsp//newlib/nios2-elf/lib\libc.a(lib_a-fputwc.o)
                              ../Hello_bsp//newlib/nios2-elf/lib\libc.a(lib_a-vfiprintf.o) (_fputwc_r)
../Hello_bsp//newlib/nios2-elf/lib\libc.a(lib_a-fstatr.o)
                              ../Hello_bsp//newlib/nios2-elf/lib\libc.a(lib_a-makebuf.o) (_fstat_r)
../Hello_bsp//newlib/nios2-elf/lib\libc.a(lib_a-isattyr.o)
                              ../Hello_bsp//newlib/nios2-elf/lib\libc.a(lib_a-makebuf.o) (_isatty_r)
../Hello_bsp//newlib/nios2-elf/lib\libc.a(lib_a-lseekr.o)
                              ../Hello_bsp//newlib/nios2-elf/lib\libc.a(lib_a-stdio.o) (_lseek_r)
../Hello_bsp//newlib/nios2-elf/lib\libc.a(lib_a-readr.o)
                              ../Hello_bsp//newlib/nios2-elf/lib\libc.a(lib_a-stdio.o) (_read_r)
../Hello_bsp//newlib/nios2-elf/lib\libc.a(lib_a-wcrtomb.o)
                              ../Hello_bsp//newlib/nios2-elf/lib\libc.a(lib_a-fputwc.o) (_wcrtomb_r)
../Hello_bsp//newlib/nios2-elf/lib\libc.a(lib_a-wctomb_r.o)
                              ../Hello_bsp//newlib/nios2-elf/lib\libc.a(lib_a-wcrtomb.o) (__wctomb)
d:/intelfpga_lite/18.0/nios2eds/bin/gnu/h-x86_64-mingw32/bin/../lib/gcc/nios2-elf/5.3.0\libgcc.a(_muldi3.o)
                              ../Hello_bsp//newlib/nios2-elf/lib\libc.a(lib_a-rand.o) (__muldi3)
d:/intelfpga_lite/18.0/nios2eds/bin/gnu/h-x86_64-mingw32/bin/../lib/gcc/nios2-elf/5.3.0\libgcc.a(_udivdi3.o)
                              ../Hello_bsp//newlib/nios2-elf/lib\libc.a(lib_a-vfprintf.o) (__udivdi3)
d:/intelfpga_lite/18.0/nios2eds/bin/gnu/h-x86_64-mingw32/bin/../lib/gcc/nios2-elf/5.3.0\libgcc.a(_umoddi3.o)
                              ../Hello_bsp//newlib/nios2-elf/lib\libc.a(lib_a-vfprintf.o) (__umoddi3)
d:/intelfpga_lite/18.0/nios2eds/bin/gnu/h-x86_64-mingw32/bin/../lib/gcc/nios2-elf/5.3.0\libgcc.a(gedf2.o)
                              ../Hello_bsp//newlib/nios2-elf/lib\libc.a(lib_a-dtoa.o) (__gtdf2)
d:/intelfpga_lite/18.0/nios2eds/bin/gnu/h-x86_64-mingw32/bin/../lib/gcc/nios2-elf/5.3.0\libgcc.a(ledf2.o)
                              ../Hello_bsp//newlib/nios2-elf/lib\libc.a(lib_a-dtoa.o) (__ledf2)
d:/intelfpga_lite/18.0/nios2eds/bin/gnu/h-x86_64-mingw32/bin/../lib/gcc/nios2-elf/5.3.0\libgcc.a(muldf3.o)
                              ../Hello_bsp//newlib/nios2-elf/lib\libc.a(lib_a-dtoa.o) (__muldf3)
d:/intelfpga_lite/18.0/nios2eds/bin/gnu/h-x86_64-mingw32/bin/../lib/gcc/nios2-elf/5.3.0\libgcc.a(fixdfsi.o)
                              ../Hello_bsp//newlib/nios2-elf/lib\libc.a(lib_a-dtoa.o) (__fixdfsi)
d:/intelfpga_lite/18.0/nios2eds/bin/gnu/h-x86_64-mingw32/bin/../lib/gcc/nios2-elf/5.3.0\libgcc.a(floatsidf.o)
                              ../Hello_bsp//newlib/nios2-elf/lib\libc.a(lib_a-dtoa.o) (__floatsidf)
d:/intelfpga_lite/18.0/nios2eds/bin/gnu/h-x86_64-mingw32/bin/../lib/gcc/nios2-elf/5.3.0\libgcc.a(floatunsidf.o)
                              ../Hello_bsp//newlib/nios2-elf/lib\libc.a(lib_a-dtoa.o) (__floatunsidf)
../Hello_bsp/\libhal_bsp.a(alt_close.o)
                              ../Hello_bsp//newlib/nios2-elf/lib\libc.a(closer.o) (close)
../Hello_bsp/\libhal_bsp.a(alt_dev.o)
                              ../Hello_bsp/\libhal_bsp.a(alt_close.o) (alt_fd_list)
../Hello_bsp/\libhal_bsp.a(alt_errno.o)
                              ../Hello_bsp/\libhal_bsp.a(alt_close.o) (alt_errno)
../Hello_bsp/\libhal_bsp.a(alt_fstat.o)
                              ../Hello_bsp//newlib/nios2-elf/lib\libc.a(lib_a-fstatr.o) (fstat)
../Hello_bsp/\libhal_bsp.a(alt_isatty.o)
                              ../Hello_bsp//newlib/nios2-elf/lib\libc.a(lib_a-isattyr.o) (isatty)
../Hello_bsp/\libhal_bsp.a(alt_load.o)
                              ../Hello_bsp//obj/HAL/src/crt0.o (alt_load)
../Hello_bsp/\libhal_bsp.a(alt_lseek.o)
                              ../Hello_bsp//newlib/nios2-elf/lib\libc.a(lib_a-lseekr.o) (lseek)
../Hello_bsp/\libhal_bsp.a(alt_main.o)
                              ../Hello_bsp//obj/HAL/src/crt0.o (alt_main)
../Hello_bsp/\libhal_bsp.a(alt_malloc_lock.o)
                              ../Hello_bsp//newlib/nios2-elf/lib\libc.a(lib_a-mallocr.o) (__malloc_lock)
../Hello_bsp/\libhal_bsp.a(alt_read.o)
                              ../Hello_bsp//newlib/nios2-elf/lib\libc.a(lib_a-readr.o) (read)
../Hello_bsp/\libhal_bsp.a(alt_release_fd.o)
                              ../Hello_bsp/\libhal_bsp.a(alt_close.o) (alt_release_fd)
../Hello_bsp/\libhal_bsp.a(alt_sbrk.o)
                              ../Hello_bsp//newlib/nios2-elf/lib\libc.a(lib_a-sbrkr.o) (sbrk)
../Hello_bsp/\libhal_bsp.a(alt_write.o)
                              ../Hello_bsp//newlib/nios2-elf/lib\libc.a(lib_a-writer.o) (write)
../Hello_bsp/\libhal_bsp.a(alt_sys_init.o)
                              ../Hello_bsp/\libhal_bsp.a(alt_main.o) (alt_irq_init)
../Hello_bsp/\libhal_bsp.a(altera_avalon_jtag_uart_fd.o)
                              ../Hello_bsp/\libhal_bsp.a(alt_sys_init.o) (altera_avalon_jtag_uart_read_fd)
../Hello_bsp/\libhal_bsp.a(altera_avalon_jtag_uart_init.o)
                              ../Hello_bsp/\libhal_bsp.a(alt_sys_init.o) (altera_avalon_jtag_uart_init)
../Hello_bsp/\libhal_bsp.a(altera_avalon_jtag_uart_ioctl.o)
                              ../Hello_bsp/\libhal_bsp.a(altera_avalon_jtag_uart_fd.o) (altera_avalon_jtag_uart_ioctl)
../Hello_bsp/\libhal_bsp.a(altera_avalon_jtag_uart_read.o)
                              ../Hello_bsp/\libhal_bsp.a(altera_avalon_jtag_uart_fd.o) (altera_avalon_jtag_uart_read)
../Hello_bsp/\libhal_bsp.a(altera_avalon_jtag_uart_write.o)
                              ../Hello_bsp/\libhal_bsp.a(altera_avalon_jtag_uart_fd.o) (altera_avalon_jtag_uart_write)
../Hello_bsp/\libhal_bsp.a(altera_avalon_timer_sc.o)
                              ../Hello_bsp/\libhal_bsp.a(alt_sys_init.o) (alt_avalon_timer_sc_init)
../Hello_bsp/\libhal_bsp.a(alt_alarm_start.o)
                              ../Hello_bsp/\libhal_bsp.a(altera_avalon_jtag_uart_init.o) (alt_alarm_start)
../Hello_bsp/\libhal_bsp.a(alt_dcache_flush_all.o)
                              ../Hello_bsp/\libhal_bsp.a(alt_load.o) (alt_dcache_flush_all)
../Hello_bsp/\libhal_bsp.a(alt_dev_llist_insert.o)
                              ../Hello_bsp/\libhal_bsp.a(alt_sys_init.o) (alt_dev_llist_insert)
../Hello_bsp/\libhal_bsp.a(alt_icache_flush_all.o)
                              ../Hello_bsp/\libhal_bsp.a(alt_load.o) (alt_icache_flush_all)
../Hello_bsp/\libhal_bsp.a(alt_iic.o)
                              ../Hello_bsp/\libhal_bsp.a(altera_avalon_jtag_uart_init.o) (alt_ic_isr_register)
../Hello_bsp/\libhal_bsp.a(alt_iic_isr_register.o)
                              ../Hello_bsp/\libhal_bsp.a(alt_iic.o) (alt_iic_isr_register)
../Hello_bsp/\libhal_bsp.a(alt_io_redirect.o)
                              ../Hello_bsp/\libhal_bsp.a(alt_main.o) (alt_io_redirect)
../Hello_bsp/\libhal_bsp.a(alt_irq_entry.o)
                              ../Hello_bsp/\libhal_bsp.a(alt_iic_isr_register.o) (alt_irq_entry)
../Hello_bsp/\libhal_bsp.a(alt_irq_handler.o)
                              ../Hello_bsp/\libhal_bsp.a(alt_iic_isr_register.o) (alt_irq)
../Hello_bsp/\libhal_bsp.a(alt_irq_vars.o)
                              ../Hello_bsp/\libhal_bsp.a(alt_iic.o) (alt_irq_active)
../Hello_bsp/\libhal_bsp.a(alt_open.o)
                              ../Hello_bsp/\libhal_bsp.a(alt_io_redirect.o) (open)
../Hello_bsp/\libhal_bsp.a(alt_tick.o)
                              ../Hello_bsp/\libhal_bsp.a(altera_avalon_jtag_uart_init.o) (_alt_tick_rate)
../Hello_bsp/\libhal_bsp.a(altera_nios2_gen2_irq.o)
                              ../Hello_bsp/\libhal_bsp.a(alt_sys_init.o) (altera_nios2_gen2_irq_init)
../Hello_bsp/\libhal_bsp.a(alt_exception_entry.o)
                              ../Hello_bsp/\libhal_bsp.a(alt_irq_entry.o) (alt_exception)
../Hello_bsp/\libhal_bsp.a(alt_find_dev.o)
                              ../Hello_bsp/\libhal_bsp.a(alt_open.o) (alt_find_dev)
../Hello_bsp/\libhal_bsp.a(alt_find_file.o)
                              ../Hello_bsp/\libhal_bsp.a(alt_open.o) (alt_find_file)
../Hello_bsp/\libhal_bsp.a(alt_get_fd.o)
                              ../Hello_bsp/\libhal_bsp.a(alt_open.o) (alt_get_fd)
../Hello_bsp/\libhal_bsp.a(alt_icache_flush.o)
                              ../Hello_bsp/\libhal_bsp.a(alt_icache_flush_all.o) (alt_icache_flush)
../Hello_bsp/\libhal_bsp.a(alt_instruction_exception_entry.o)
                              ../Hello_bsp/\libhal_bsp.a(alt_exception_entry.o) (alt_instruction_exception_entry)
../Hello_bsp//newlib/nios2-elf/lib\libc.a(lib_a-exit.o)
                              ../Hello_bsp/\libhal_bsp.a(alt_main.o) (exit)
../Hello_bsp//newlib/nios2-elf/lib\libc.a(lib_a-memcmp.o)
                              ../Hello_bsp/\libhal_bsp.a(alt_find_dev.o) (memcmp)
../Hello_bsp//newlib/nios2-elf/lib\libc.a(lib_a-__call_atexit.o)
                              ../Hello_bsp//newlib/nios2-elf/lib\libc.a(lib_a-exit.o) (__call_exitprocs)
../Hello_bsp/\libhal_bsp.a(alt_exit.o)
                              ../Hello_bsp//newlib/nios2-elf/lib\libc.a(lib_a-exit.o) (_exit)

Allocating common symbols
Common symbol       size              file

alt_irq             0x100             ../Hello_bsp/\libhal_bsp.a(alt_irq_handler.o)
errno               0x4               ../Hello_bsp//newlib/nios2-elf/lib\libc.a(lib_a-int_errno.o)

Memory Configuration

Name             Origin             Length             Attributes
reset            0x0000000008000000 0x0000000000000020
sdram            0x0000000008000020 0x0000000007ffffe0
bufferram_out    0x0000000010000000 0x000000000002ee00
*default*        0x0000000000000000 0xffffffffffffffff

Linker script and memory map

LOAD ../Hello_bsp//obj/HAL/src/crt0.o
LOAD obj/default/src/app.o
LOAD obj/default/src/gppcu.o
LOAD obj/default/src/main.o
LOAD obj/default/src/mathc.o
LOAD obj/default/src/utils.o
LOAD d:/intelfpga_lite/18.0/nios2eds/bin/gnu/h-x86_64-mingw32/bin/../lib/gcc/nios2-elf/5.3.0/../../../../../H-x86_64-mingw32/nios2-elf/lib\libstdc++.a
LOAD ../Hello_bsp//newlib/nios2-elf/lib\libm.a
LOAD d:/intelfpga_lite/18.0/nios2eds/bin/gnu/h-x86_64-mingw32/bin/../lib/gcc/nios2-elf/5.3.0\libgcc.a
START GROUP
LOAD ../Hello_bsp//newlib/nios2-elf/lib\libc.a
LOAD d:/intelfpga_lite/18.0/nios2eds/bin/gnu/h-x86_64-mingw32/bin/../lib/gcc/nios2-elf/5.3.0\libgcc.a
LOAD ../Hello_bsp/\libhal_bsp.a
LOAD ../Hello_bsp//newlib/nios2-elf/lib\libm.a
END GROUP
LOAD d:/intelfpga_lite/18.0/nios2eds/bin/gnu/h-x86_64-mingw32/bin/../lib/gcc/nios2-elf/5.3.0\libgcc.a
                0x0000000008000000                __alt_mem_sdram = 0x8000000
                0x0000000010000000                __alt_mem_bufferram_out = 0x10000000

.entry          0x0000000008000000       0x20
 *(.entry)
 .entry         0x0000000008000000       0x20 ../Hello_bsp//obj/HAL/src/crt0.o
                0x0000000008000000                __reset

.exceptions     0x0000000008000020      0x224
                0x0000000008000020                PROVIDE (__ram_exceptions_start, ABSOLUTE (.))
                0x0000000008000020                . = ALIGN (0x20)
 *(.irq)
 *(.exceptions.entry.label)
 .exceptions.entry.label
                0x0000000008000020        0x0 ../Hello_bsp/\libhal_bsp.a(alt_irq_entry.o)
                0x0000000008000020                alt_irq_entry
 .exceptions.entry.label
                0x0000000008000020        0x0 ../Hello_bsp/\libhal_bsp.a(alt_exception_entry.o)
                0x0000000008000020                alt_exception
 *(.exceptions.entry.user)
 *(.exceptions.entry.ecc_fatal)
 *(.exceptions.entry)
 .exceptions.entry
                0x0000000008000020       0x54 ../Hello_bsp/\libhal_bsp.a(alt_exception_entry.o)
 *(.exceptions.irqtest.user)
 *(.exceptions.irqtest)
 .exceptions.irqtest
                0x0000000008000074       0x10 ../Hello_bsp/\libhal_bsp.a(alt_irq_entry.o)
 *(.exceptions.irqhandler.user)
 *(.exceptions.irqhandler)
 .exceptions.irqhandler
                0x0000000008000084        0x4 ../Hello_bsp/\libhal_bsp.a(alt_irq_entry.o)
 *(.exceptions.irqreturn.user)
 *(.exceptions.irqreturn)
 .exceptions.irqreturn
                0x0000000008000088        0x4 ../Hello_bsp/\libhal_bsp.a(alt_irq_entry.o)
 *(.exceptions.notirq.label)
 .exceptions.notirq.label
                0x000000000800008c        0x0 ../Hello_bsp/\libhal_bsp.a(alt_irq_entry.o)
 *(.exceptions.notirq.user)
 *(.exceptions.notirq)
 .exceptions.notirq
                0x000000000800008c        0x8 ../Hello_bsp/\libhal_bsp.a(alt_exception_entry.o)
 *(.exceptions.soft.user)
 *(.exceptions.soft)
 *(.exceptions.unknown.user)
 *(.exceptions.unknown)
 .exceptions.unknown
                0x0000000008000094       0x14 ../Hello_bsp/\libhal_bsp.a(alt_exception_entry.o)
 *(.exceptions.exit.label)
 .exceptions.exit.label
                0x00000000080000a8        0x0 ../Hello_bsp/\libhal_bsp.a(alt_irq_entry.o)
 .exceptions.exit.label
                0x00000000080000a8        0x0 ../Hello_bsp/\libhal_bsp.a(alt_exception_entry.o)
 *(.exceptions.exit.user)
 *(.exceptions.exit)
 .exceptions.exit
                0x00000000080000a8       0x54 ../Hello_bsp/\libhal_bsp.a(alt_exception_entry.o)
 *(.exceptions)
 .exceptions    0x00000000080000fc       0xd4 ../Hello_bsp/\libhal_bsp.a(alt_irq_handler.o)
                0x00000000080000fc                alt_irq_handler
 .exceptions    0x00000000080001d0       0x74 ../Hello_bsp/\libhal_bsp.a(alt_instruction_exception_entry.o)
                0x00000000080001d0                alt_instruction_exception_entry
                0x0000000008000244                PROVIDE (__ram_exceptions_end, ABSOLUTE (.))
                0x0000000008000020                PROVIDE (__flash_exceptions_start, LOADADDR (.exceptions))

.text           0x0000000008000244    0x364d0
                [!provide]                        PROVIDE (stext, ABSOLUTE (.))
 *(.interp)
 *(.hash)
 *(.dynsym)
 *(.dynstr)
 *(.gnu.version)
 *(.gnu.version_d)
 *(.gnu.version_r)
 *(.rel.init)
 *(.rela.init)
 *(.rel.text .rel.text.* .rel.gnu.linkonce.t.*)
 *(.rela.text .rela.text.* .rela.gnu.linkonce.t.*)
 *(.rel.fini)
 *(.rela.fini)
 *(.rel.rodata .rel.rodata.* .rel.gnu.linkonce.r.*)
 *(.rela.rodata .rela.rodata.* .rela.gnu.linkonce.r.*)
 *(.rel.data .rel.data.* .rel.gnu.linkonce.d.*)
 *(.rela.data .rela.data.* .rela.gnu.linkonce.d.*)
 *(.rel.tdata .rel.tdata.* .rel.gnu.linkonce.td.*)
 *(.rela.tdata .rela.tdata.* .rela.gnu.linkonce.td.*)
 *(.rel.tbss .rel.tbss.* .rel.gnu.linkonce.tb.*)
 *(.rela.tbss .rela.tbss.* .rela.gnu.linkonce.tb.*)
 *(.rel.ctors)
 *(.rela.ctors)
 *(.rel.dtors)
 *(.rela.dtors)
 *(.rel.got)
 *(.rela.got)
 *(.rel.sdata .rel.sdata.* .rel.gnu.linkonce.s.*)
 *(.rela.sdata .rela.sdata.* .rela.gnu.linkonce.s.*)
 *(.rel.sbss .rel.sbss.* .rel.gnu.linkonce.sb.*)
 *(.rela.sbss .rela.sbss.* .rela.gnu.linkonce.sb.*)
 *(.rel.sdata2 .rel.sdata2.* .rel.gnu.linkonce.s2.*)
 *(.rela.sdata2 .rela.sdata2.* .rela.gnu.linkonce.s2.*)
 *(.rel.sbss2 .rel.sbss2.* .rel.gnu.linkonce.sb2.*)
 *(.rela.sbss2 .rela.sbss2.* .rela.gnu.linkonce.sb2.*)
 *(.rel.bss .rel.bss.* .rel.gnu.linkonce.b.*)
 *(.rela.bss .rela.bss.* .rela.gnu.linkonce.b.*)
 *(.rel.plt)
 *(.rela.plt)
 *(.rel.dyn)
 *(.init)
 *(.plt)
 *(.text .stub .text.* .gnu.linkonce.t.*)
 .text          0x0000000008000244       0x4c ../Hello_bsp//obj/HAL/src/crt0.o
                0x0000000008000244                _start
 .text          0x0000000008000290      0xb78 obj/default/src/app.o
                0x0000000008000600                mat4_rotate_zyx
                0x00000000080006e8                app_calc_object_constant
                0x00000000080008c0                app_upload_program
                0x0000000008000c30                app_upload_vertices
                0x0000000008000c98                app_upload_object_constant
                0x0000000008000cc0                rgb16_drawline
 .text          0x0000000008000e08     0x1698 obj/default/src/gppcu.o
                0x0000000008000fec                gppcu_device_command
                0x000000000800106c                gppcu_stat
                0x000000000800115c                gppcu_is_done
                0x00000000080011ec                DEPRECATED__gppcu_init
                0x00000000080012c0                gppcu_init
                0x00000000080013b8                gppcu_init_task
                0x000000000800149c                gppcu_destroy
                0x0000000008001940                DEPRECATED__gppcu_program_autofeed_device
                0x0000000008001a7c                instr_to_string
                0x0000000008001ba0                gppcu_program_autofeed_device_parallel
                0x0000000008001fb4                gppcu_run_autofeed_device
                0x000000000800202c                gppcu_clear_instr
                0x0000000008002058                gppcu_write
                0x00000000080021b4                gppcu_read
                0x0000000008002354                gppcu_write_const
                0x0000000008002400                gppcu_data_wr_slow
                0x0000000008002458                gppcu_data_rd_slow
 .text          0x00000000080024a0     0x1024 obj/default/src/main.o
                0x00000000080028c4                wait
                0x0000000008002908                display_stat_is_done
                0x00000000080029c4                mem_clr
                0x0000000008002a44                monitor
                0x0000000008002b48                main
                0x0000000008002d9c                main(double)
                0x0000000008002fe0                main__2
                0x00000000080032a8                main__1
 .text          0x00000000080034c4    0x1b470 obj/default/src/mathc.o
                0x00000000080034c4                clampi
                0x000000000800351c                nearly_equal
                0x000000000800358c                to_radians
                0x00000000080035cc                to_degrees
                0x000000000800360c                clampf
                0x0000000008003674                vec2i_is_zero
                0x00000000080036c0                vec2i_is_equal
                0x0000000008003724                vec2i
                0x000000000800376c                vec2i_assign
                0x00000000080037b8                vec2i_assign_vec2
                0x0000000008003810                vec2i_zero
                0x0000000008003848                vec2i_one
                0x0000000008003888                vec2i_sign
                0x0000000008003944                vec2i_add
                0x00000000080039b4                vec2i_add_i
                0x0000000008003a18                vec2i_subtract
                0x0000000008003a88                vec2i_subtract_i
                0x0000000008003aec                vec2i_multiply
                0x0000000008003b5c                vec2i_multiply_i
                0x0000000008003bc0                vec2i_divide
                0x0000000008003c54                vec2i_divide_i
                0x0000000008003cd4                vec2i_snap
                0x0000000008003d88                vec2i_snap_i
                0x0000000008003e1c                vec2i_negative
                0x0000000008003e74                vec2i_abs
                0x0000000008003f0c                vec2i_max
                0x0000000008003fb8                vec2i_min
                0x0000000008004064                vec2i_clamp
                0x00000000080040bc                vec2i_tangent
                0x000000000800411c                vec3i_is_zero
                0x0000000008004178                vec3i_is_equal
                0x00000000080041f8                vec3i
                0x0000000008004254                vec3i_assign
                0x00000000080042b4                vec3i_assign_vec3
                0x0000000008004328                vec3i_zero
                0x000000000800436c                vec3i_one
                0x00000000080043bc                vec3i_sign
                0x00000000080044cc                vec3i_add
                0x0000000008004564                vec3i_add_i
                0x00000000080045e8                vec3i_subtract
                0x0000000008004680                vec3i_subtract_i
                0x0000000008004704                vec3i_multiply
                0x000000000800479c                vec3i_multiply_i
                0x0000000008004820                vec3i_divide
                0x00000000080048e4                vec3i_divide_i
                0x0000000008004988                vec3i_snap
                0x0000000008004a80                vec3i_snap_i
                0x0000000008004b44                vec3i_cross
                0x0000000008004c4c                vec3i_negative
                0x0000000008004cc0                vec3i_abs
                0x0000000008004d98                vec3i_max
                0x0000000008004e8c                vec3i_min
                0x0000000008004f80                vec3i_clamp
                0x0000000008004fd8                vec4i_is_zero
                0x0000000008005044                vec4i_is_equal
                0x00000000080050e0                vec4i
                0x000000000800514c                vec4i_assign
                0x00000000080051c0                vec4i_assign_vec4
                0x0000000008005250                vec4i_zero
                0x00000000080052a0                vec4i_one
                0x0000000008005300                vec4i_sign
                0x0000000008005464                vec4i_add
                0x0000000008005524                vec4i_add_i
                0x00000000080055c8                vec4i_subtract
                0x0000000008005688                vec4i_subtract_i
                0x000000000800572c                vec4i_multiply
                0x00000000080057ec                vec4i_multiply_i
                0x0000000008005890                vec4i_divide
                0x0000000008005984                vec4i_divide_i
                0x0000000008005a4c                vec4i_snap
                0x0000000008005b88                vec4i_snap_i
                0x0000000008005c7c                vec4i_negative
                0x0000000008005d0c                vec4i_abs
                0x0000000008005e24                vec4i_max
                0x0000000008005f60                vec4i_min
                0x000000000800609c                vec4i_clamp
                0x00000000080060f4                vec2_is_zero
                0x0000000008006158                vec2_is_equal
                0x00000000080061dc                vec2
                0x0000000008006224                vec2_assign
                0x0000000008006270                vec2_assign_vec2i
                0x00000000080062c8                vec2_zero
                0x0000000008006300                vec2_one
                0x0000000008006340                vec2_sign
                0x000000000800641c                vec2_add
                0x000000000800648c                vec2_add_f
                0x00000000080064f0                vec2_subtract
                0x0000000008006560                vec2_subtract_f
                0x00000000080065c4                vec2_multiply
                0x0000000008006634                vec2_multiply_f
                0x0000000008006698                vec2_multiply_mat2
                0x0000000008006744                vec2_divide
                0x00000000080067b4                vec2_divide_f
                0x0000000008006818                vec2_snap
                0x00000000080068cc                vec2_snap_f
                0x0000000008006968                vec2_negative
                0x00000000080069c0                vec2_abs
                0x0000000008006a18                vec2_floor
                0x0000000008006a90                vec2_ceil
                0x0000000008006b08                vec2_round
                0x0000000008006b80                vec2_max
                0x0000000008006c18                vec2_min
                0x0000000008006cb0                vec2_clamp
                0x0000000008006d08                vec2_normalize
                0x0000000008006db0                vec2_dot
                0x0000000008006e10                vec2_project
                0x0000000008006ea8                vec2_slide
                0x0000000008006f40                vec2_reflect
                0x0000000008006fe0                vec2_tangent
                0x0000000008007040                vec2_rotate
                0x00000000080070f0                vec2_lerp
                0x0000000008007190                vec2_bezier3
                0x000000000800720c                vec2_bezier4
                0x00000000080072e0                vec2_angle
                0x0000000008007330                vec2_length
                0x000000000800739c                vec2_length_squared
                0x00000000080073f8                vec2_distance
                0x00000000080074a0                vec2_distance_squared
                0x0000000008007538                vec2_linear_independent
                0x0000000008007598                vec2_orthonormalization
                0x0000000008007734                vec3_is_zero
                0x00000000080077b4                vec3_is_equal
                0x0000000008007864                vec3
                0x00000000080078c0                vec3_assign
                0x0000000008007920                vec3_assign_vec3i
                0x0000000008007994                vec3_zero
                0x00000000080079d8                vec3_one
                0x0000000008007a28                vec3_sign
                0x0000000008007b68                vec3_add
                0x0000000008007c00                vec3_add_f
                0x0000000008007c84                vec3_subtract
                0x0000000008007d1c                vec3_subtract_f
                0x0000000008007da0                vec3_multiply
                0x0000000008007e38                vec3_multiply_f
                0x0000000008007ebc                vec3_multiply_mat3
                0x0000000008007ff4                vec3_divide
                0x000000000800808c                vec3_divide_f
                0x0000000008008110                vec3_snap
                0x0000000008008208                vec3_snap_f
                0x00000000080082d8                vec3_negative
                0x000000000800834c                vec3_abs
                0x00000000080083c0                vec3_floor
                0x000000000800845c                vec3_ceil
                0x00000000080084f8                vec3_round
                0x0000000008008594                vec3_max
                0x0000000008008660                vec3_min
                0x000000000800872c                vec3_clamp
                0x0000000008008784                vec3_cross
                0x000000000800888c                vec3_normalize
                0x0000000008008974                vec3_dot
                0x00000000080089f4                vec3_project
                0x0000000008008aac                vec3_slide
                0x0000000008008b74                vec3_reflect
                0x0000000008008c44                vec3_rotate
                0x0000000008008edc                vec3_lerp
                0x0000000008008fbc                vec3_bezier3
                0x0000000008009038                vec3_bezier4
                0x000000000800910c                vec3_length
                0x0000000008009198                vec3_length_squared
                0x0000000008009214                vec3_distance
                0x00000000080092fc                vec3_distance_squared
                0x00000000080093d4                vec3_linear_independent
                0x0000000008009508                vec3_orthonormalization
                0x000000000800976c                vec4_is_zero
                0x0000000008009808                vec4_is_equal
                0x00000000080098e4                vec4
                0x0000000008009950                vec4_assign
                0x00000000080099c4                vec4_assign_vec4i
                0x0000000008009a54                vec4_zero
                0x0000000008009aa4                vec4_one
                0x0000000008009b04                vec4_sign
                0x0000000008009ca8                vec4_add
                0x0000000008009d68                vec4_add_f
                0x0000000008009e0c                vec4_subtract
                0x0000000008009ecc                vec4_subtract_f
                0x0000000008009f70                vec4_multiply
                0x000000000800a030                vec4_multiply_f
                0x000000000800a0d4                vec4_multiply_mat4
                0x000000000800a2c8                vec4_divide
                0x000000000800a388                vec4_divide_f
                0x000000000800a42c                vec4_snap
                0x000000000800a568                vec4_snap_f
                0x000000000800a66c                vec4_negative
                0x000000000800a6fc                vec4_abs
                0x000000000800a78c                vec4_floor
                0x000000000800a84c                vec4_ceil
                0x000000000800a90c                vec4_round
                0x000000000800a9cc                vec4_max
                0x000000000800aacc                vec4_min
                0x000000000800abcc                vec4_clamp
                0x000000000800ac24                vec4_normalize
                0x000000000800ad4c                vec4_lerp
                0x000000000800ae6c                quat_is_zero
                0x000000000800af08                quat_is_equal
                0x000000000800afe4                quat
                0x000000000800b050                quat_assign
                0x000000000800b0c4                quat_zero
                0x000000000800b114                quat_null
                0x000000000800b168                quat_multiply
                0x000000000800b390                quat_multiply_f
                0x000000000800b434                quat_divide
                0x000000000800b68c                quat_divide_f
                0x000000000800b730                quat_negative
                0x000000000800b7c0                quat_conjugate
                0x000000000800b848                quat_inverse
                0x000000000800b974                quat_normalize
                0x000000000800baa8                quat_dot
                0x000000000800bb48                quat_power
                0x000000000800bcac                quat_from_axis_angle
                0x000000000800bd74                quat_from_vec3
                0x000000000800be4c                quat_from_mat4
                0x000000000800c2b8                quat_lerp
                0x000000000800c3d8                quat_slerp
                0x000000000800c5b0                quat_length
                0x000000000800c65c                quat_length_squared
                0x000000000800c6f8                quat_angle
                0x000000000800c78c                mat2
                0x000000000800c7f8                mat2_zero
                0x000000000800c848                mat2_identity
                0x000000000800c8a0                mat2_determinant
                0x000000000800c900                mat2_assign
                0x000000000800c974                mat2_negative
                0x000000000800ca04                mat2_transpose
                0x000000000800ca98                mat2_cofactor
                0x000000000800cb3c                mat2_adjugate
                0x000000000800cbe0                mat2_multiply
                0x000000000800cd38                mat2_multiply_f
                0x000000000800cddc                mat2_inverse
                0x000000000800ce88                mat2_scaling
                0x000000000800ced4                mat2_scale
                0x000000000800cf44                mat2_rotation_z
                0x000000000800cfcc                mat2_lerp
                0x000000000800d0ec                mat3
                0x000000000800d1a8                mat3_zero
                0x000000000800d234                mat3_identity
                0x000000000800d2cc                mat3_determinant
                0x000000000800d3f4                mat3_assign
                0x000000000800d4cc                mat3_negative
                0x000000000800d5e8                mat3_transpose
                0x000000000800d708                mat3_cofactor
                0x000000000800da38                mat3_multiply
                0x000000000800de38                mat3_multiply_f
                0x000000000800df7c                mat3_inverse
                0x000000000800dfac                mat3_scaling
                0x000000000800e00c                mat3_scale
                0x000000000800e0a4                mat3_rotation_x
                0x000000000800e130                mat3_rotation_y
                0x000000000800e1b8                mat3_rotation_z
                0x000000000800e240                mat3_rotation_axis
                0x000000000800e548                mat3_rotation_quat
                0x000000000800e78c                mat3_lerp
                0x000000000800e9ec                mat4
                0x000000000800eb18                mat4_zero
                0x000000000800ebf8                mat4_identity
                0x000000000800ece8                mat4_determinant
                0x000000000800f0d4                mat4_assign
                0x000000000800f238                mat4_negative
                0x000000000800f418                mat4_transpose
                0x000000000800f5fc                mat4_cofactor
                0x000000000800ff48                mat4_rotation_x
                0x000000000800ffd4                mat4_rotation_y
                0x000000000801005c                mat4_rotation_z
                0x00000000080100e4                mat4_rotation_axis
                0x0000000008010444                mat4_rotation_quat
                0x00000000080106e0                mat4_translation
                0x0000000008010848                mat4_translate
                0x00000000080109e8                mat4_scaling
                0x0000000008010b50                mat4_scale
                0x0000000008010cec                mat4_multiply
                0x00000000080115f4                mat4_multiply_f
                0x0000000008011818                mat4_inverse
                0x00000000080123e4                mat4_lerp
                0x0000000008012804                mat4_look_at
                0x00000000080129d0                mat4_ortho
                0x0000000008012b5c                mat4_perspective
                0x0000000008012ccc                mat4_perspective_fov
                0x0000000008012e58                mat4_perspective_infinite
                0x0000000008012fec                svec2i_is_zero
                0x0000000008013020                svec2i_is_equal
                0x0000000008013064                svec2i
                0x00000000080130b8                svec2i_assign
                0x000000000801310c                svec2i_assign_vec2
                0x0000000008013160                svec2i_zero
                0x00000000080131a4                svec2i_one
                0x00000000080131e8                svec2i_sign
                0x000000000801323c                svec2i_add
                0x00000000080132a0                svec2i_add_i
                0x00000000080132fc                svec2i_subtract
                0x0000000008013360                svec2i_subtract_i
                0x00000000080133bc                svec2i_multiply
                0x0000000008013420                svec2i_multiply_i
                0x000000000801347c                svec2i_divide
                0x00000000080134e0                svec2i_divide_i
                0x000000000801353c                svec2i_snap
                0x00000000080135a0                svec2i_snap_i
                0x00000000080135fc                svec2i_negative
                0x0000000008013650                svec2i_abs
                0x00000000080136a4                svec2i_max
                0x0000000008013708                svec2i_min
                0x000000000801376c                svec2i_clamp
                0x00000000080137d4                svec2i_tangent
                0x0000000008013828                svec3i_is_zero
                0x0000000008013860                svec3i_is_equal
                0x00000000080138a0                svec3i
                0x0000000008013908                svec3i_assign
                0x000000000801396c                svec3i_assign_vec3
                0x00000000080139d0                svec3i_zero
                0x0000000008013a20                svec3i_one
                0x0000000008013a70                svec3i_sign
                0x0000000008013ad4                svec3i_add
                0x0000000008013b3c                svec3i_add_i
                0x0000000008013ba4                svec3i_subtract
                0x0000000008013c0c                svec3i_subtract_i
                0x0000000008013c74                svec3i_multiply
                0x0000000008013cdc                svec3i_multiply_i
                0x0000000008013d44                svec3i_divide
                0x0000000008013dac                svec3i_divide_i
                0x0000000008013e14                svec3i_snap
                0x0000000008013e7c                svec3i_snap_i
                0x0000000008013ee4                svec3i_cross
                0x0000000008013f4c                svec3i_negative
                0x0000000008013fb0                svec3i_abs
                0x0000000008014014                svec3i_max
                0x000000000801407c                svec3i_min
                0x00000000080140e4                svec3i_clamp
                0x0000000008014154                svec4i_is_zero
                0x0000000008014190                svec4i_is_equal
                0x00000000080141d0                svec4i
                0x0000000008014248                svec4i_assign
                0x00000000080142b0                svec4i_assign_vec4
                0x0000000008014318                svec4i_zero
                0x0000000008014370                svec4i_one
                0x00000000080143c8                svec4i_sign
                0x0000000008014430                svec4i_add
                0x00000000080144a0                svec4i_add_i
                0x000000000801450c                svec4i_subtract
                0x000000000801457c                svec4i_subtract_i
                0x00000000080145e8                svec4i_multiply
                0x0000000008014658                svec4i_multiply_i
                0x00000000080146c4                svec4i_divide
                0x0000000008014734                svec4i_divide_i
                0x00000000080147a0                svec4i_snap
                0x0000000008014810                svec4i_snap_i
                0x000000000801487c                svec4i_negative
                0x00000000080148e4                svec4i_abs
                0x000000000801494c                svec4i_max
                0x00000000080149bc                svec4i_min
                0x0000000008014a2c                svec4i_clamp
                0x0000000008014aa4                svec2_is_zero
                0x0000000008014ad8                svec2_is_equal
                0x0000000008014b1c                svec2
                0x0000000008014b70                svec2_assign
                0x0000000008014bc4                svec2_assign_vec2i
                0x0000000008014c18                svec2_zero
                0x0000000008014c5c                svec2_one
                0x0000000008014ca0                svec2_sign
                0x0000000008014cf4                svec2_add
                0x0000000008014d58                svec2_add_f
                0x0000000008014db4                svec2_subtract
                0x0000000008014e18                svec2_subtract_f
                0x0000000008014e74                svec2_multiply
                0x0000000008014ed8                svec2_multiply_f
                0x0000000008014f34                svec2_multiply_mat2
                0x0000000008014f94                svec2_divide
                0x0000000008014ff8                svec2_divide_f
                0x0000000008015054                svec2_snap
                0x00000000080150b8                svec2_snap_f
                0x0000000008015114                svec2_negative
                0x0000000008015168                svec2_abs
                0x00000000080151bc                svec2_floor
                0x0000000008015210                svec2_ceil
                0x0000000008015264                svec2_round
                0x00000000080152b8                svec2_max
                0x000000000801531c                svec2_min
                0x0000000008015380                svec2_clamp
                0x00000000080153e8                svec2_normalize
                0x000000000801543c                svec2_dot
                0x0000000008015488                svec2_project
                0x00000000080154ec                svec2_slide
                0x0000000008015550                svec2_reflect
                0x00000000080155b4                svec2_tangent
                0x0000000008015608                svec2_rotate
                0x0000000008015664                svec2_lerp
                0x00000000080156cc                svec2_bezier3
                0x000000000801573c                svec2_bezier4
                0x00000000080157b4                svec2_angle
                0x00000000080157f0                svec2_length
                0x000000000801582c                svec2_length_squared
                0x0000000008015868                svec2_distance
                0x00000000080158b4                svec2_distance_squared
                0x0000000008015900                svec3_is_zero
                0x0000000008015938                svec3_is_equal
                0x0000000008015978                svec3
                0x00000000080159e0                svec3_assign
                0x0000000008015a44                svec3_assign_vec3i
                0x0000000008015aa8                svec3_zero
                0x0000000008015af8                svec3_one
                0x0000000008015b48                svec3_sign
                0x0000000008015bac                svec3_add
                0x0000000008015c14                svec3_add_f
                0x0000000008015c7c                svec3_subtract
                0x0000000008015ce4                svec3_subtract_f
                0x0000000008015d4c                svec3_multiply
                0x0000000008015db4                svec3_multiply_f
                0x0000000008015e1c                svec3_multiply_mat3
                0x0000000008015e84                svec3_divide
                0x0000000008015eec                svec3_divide_f
                0x0000000008015f54                svec3_snap
                0x0000000008015fbc                svec3_snap_f
                0x0000000008016024                svec3_negative
                0x0000000008016088                svec3_abs
                0x00000000080160ec                svec3_floor
                0x0000000008016150                svec3_ceil
                0x00000000080161b4                svec3_round
                0x0000000008016218                svec3_max
                0x0000000008016280                svec3_min
                0x00000000080162e8                svec3_clamp
                0x0000000008016358                svec3_cross
                0x00000000080163c0                svec3_normalize
                0x0000000008016424                svec3_dot
                0x000000000801646c                svec3_project
                0x00000000080164d4                svec3_slide
                0x000000000801653c                svec3_reflect
                0x00000000080165a4                svec3_rotate
                0x0000000008016610                svec3_lerp
                0x000000000801667c                svec3_bezier3
                0x00000000080166f4                svec3_bezier4
                0x0000000008016774                svec3_length
                0x00000000080167b4                svec3_length_squared
                0x00000000080167f4                svec3_distance
                0x000000000801683c                svec3_distance_squared
                0x0000000008016884                svec4_is_zero
                0x00000000080168c0                svec4_is_equal
                0x0000000008016900                svec4
                0x0000000008016978                svec4_assign
                0x00000000080169e0                svec4_assign_vec4i
                0x0000000008016a48                svec4_zero
                0x0000000008016aa0                svec4_one
                0x0000000008016af8                svec4_sign
                0x0000000008016b60                svec4_add
                0x0000000008016bd0                svec4_add_f
                0x0000000008016c3c                svec4_subtract
                0x0000000008016cac                svec4_subtract_f
                0x0000000008016d18                svec4_multiply
                0x0000000008016d88                svec4_multiply_f
                0x0000000008016df4                svec4_multiply_mat4
                0x0000000008016e64                svec4_divide
                0x0000000008016ed4                svec4_divide_f
                0x0000000008016f40                svec4_snap
                0x0000000008016fb0                svec4_snap_f
                0x000000000801701c                svec4_negative
                0x0000000008017084                svec4_abs
                0x00000000080170ec                svec4_floor
                0x0000000008017154                svec4_ceil
                0x00000000080171bc                svec4_round
                0x0000000008017224                svec4_max
                0x0000000008017294                svec4_min
                0x0000000008017304                svec4_clamp
                0x000000000801737c                svec4_normalize
                0x00000000080173e4                svec4_lerp
                0x0000000008017458                squat_is_zero
                0x0000000008017494                squat_is_equal
                0x00000000080174d4                squat
                0x000000000801754c                squat_assign
                0x00000000080175b4                squat_zero
                0x000000000801760c                squat_null
                0x0000000008017664                squat_multiply
                0x00000000080176d4                squat_multiply_f
                0x0000000008017740                squat_divide
                0x00000000080177b0                squat_divide_f
                0x000000000801781c                squat_negative
                0x0000000008017884                squat_conjugate
                0x00000000080178ec                squat_inverse
                0x0000000008017954                squat_normalize
                0x00000000080179bc                squat_dot
                0x0000000008017a04                squat_power
                0x0000000008017a70                squat_from_axis_angle
                0x0000000008017ae0                squat_from_vec3
                0x0000000008017b50                squat_from_mat4
                0x0000000008017bb8                squat_lerp
                0x0000000008017c2c                squat_slerp
                0x0000000008017ca0                squat_length
                0x0000000008017ce4                squat_length_squared
                0x0000000008017d28                squat_angle
                0x0000000008017d70                smat2
                0x0000000008017de8                smat2_zero
                0x0000000008017e40                smat2_identity
                0x0000000008017e98                smat2_determinant
                0x0000000008017edc                smat2_assign
                0x0000000008017f44                smat2_negative
                0x0000000008017fac                smat2_transpose
                0x0000000008018014                smat2_cofactor
                0x000000000801807c                smat2_adjugate
                0x00000000080180e4                smat2_multiply
                0x0000000008018154                smat2_multiply_f
                0x00000000080181c0                smat2_inverse
                0x0000000008018228                smat2_scaling
                0x0000000008018290                smat2_scale
                0x0000000008018300                smat2_rotation_z
                0x0000000008018360                smat2_lerp
                0x00000000080183d4                smat3
                0x000000000801849c                smat3_zero
                0x000000000801851c                smat3_identity
                0x000000000801859c                smat3_determinant
                0x00000000080185e0                smat3_assign
                0x0000000008018670                smat3_negative
                0x0000000008018700                smat3_transpose
                0x0000000008018790                smat3_cofactor
                0x0000000008018820                smat3_multiply
                0x00000000080188b8                smat3_multiply_f
                0x000000000801894c                smat3_inverse
                0x00000000080189dc                smat3_scaling
                0x0000000008018a70                smat3_scale
                0x0000000008018b08                smat3_rotation_x
                0x0000000008018b90                smat3_rotation_y
                0x0000000008018c18                smat3_rotation_z
                0x0000000008018ca0                smat3_rotation_axis
                0x0000000008018d38                smat3_rotation_quat
                0x0000000008018dc8                smat3_lerp
                0x0000000008018e64                smat4
                0x0000000008018f38                smat4_zero
                0x0000000008018f8c                smat4_identity
                0x0000000008018fe0                smat4_determinant
                0x0000000008019024                smat4_assign
                0x0000000008019088                smat4_negative
                0x00000000080190ec                smat4_transpose
                0x0000000008019150                smat4_cofactor
                0x00000000080191b4                smat4_rotation_x
                0x0000000008019210                smat4_rotation_y
                0x000000000801926c                smat4_rotation_z
                0x00000000080192c8                smat4_rotation_axis
                0x0000000008019334                smat4_rotation_quat
                0x0000000008019398                smat4_translation
                0x0000000008019404                smat4_translate
                0x0000000008019470                smat4_scaling
                0x00000000080194dc                smat4_scale
                0x0000000008019548                smat4_multiply
                0x00000000080195b4                smat4_multiply_f
                0x000000000801961c                smat4_inverse
                0x0000000008019680                smat4_lerp
                0x00000000080196f0                smat4_look_at
                0x0000000008019764                smat4_ortho
                0x00000000080197e8                smat4_perspective
                0x000000000801985c                smat4_perspective_fov
                0x00000000080198d8                smat4_perspective_infinite
                0x0000000008019944                psvec2i_is_zero
                0x0000000008019974                psvec2i_is_equal
                0x00000000080199ac                psvec2i
                0x00000000080199ec                psvec2i_assign
                0x0000000008019a24                psvec2i_assign_vec2
                0x0000000008019a5c                psvec2i_zero
                0x0000000008019a8c                psvec2i_one
                0x0000000008019abc                psvec2i_sign
                0x0000000008019af4                psvec2i_add
                0x0000000008019b34                psvec2i_add_i
                0x0000000008019b74                psvec2i_subtract
                0x0000000008019bb4                psvec2i_subtract_i
                0x0000000008019bf4                psvec2i_multiply
                0x0000000008019c34                psvec2i_multiply_i
                0x0000000008019c74                psvec2i_divide
                0x0000000008019cb4                psvec2i_divide_i
                0x0000000008019cf4                psvec2i_snap
                0x0000000008019d34                psvec2i_snap_i
                0x0000000008019d74                psvec2i_negative
                0x0000000008019dac                psvec2i_abs
                0x0000000008019de4                psvec2i_max
                0x0000000008019e24                psvec2i_min
                0x0000000008019e64                psvec2i_clamp
                0x0000000008019eac                psvec2i_tangent
                0x0000000008019ee4                psvec3i_is_zero
                0x0000000008019f14                psvec3i_is_equal
                0x0000000008019f4c                psvec3i
                0x0000000008019f94                psvec3i_assign
                0x0000000008019fcc                psvec3i_assign_vec3
                0x000000000801a004                psvec3i_zero
                0x000000000801a034                psvec3i_one
                0x000000000801a064                psvec3i_sign
                0x000000000801a09c                psvec3i_add
                0x000000000801a0dc                psvec3i_add_i
                0x000000000801a11c                psvec3i_subtract
                0x000000000801a15c                psvec3i_subtract_i
                0x000000000801a19c                psvec3i_multiply
                0x000000000801a1dc                psvec3i_multiply_i
                0x000000000801a21c                psvec3i_divide
                0x000000000801a25c                psvec3i_divide_i
                0x000000000801a29c                psvec3i_snap
                0x000000000801a2dc                psvec3i_snap_i
                0x000000000801a31c                psvec3i_cross
                0x000000000801a35c                psvec3i_negative
                0x000000000801a394                psvec3i_abs
                0x000000000801a3cc                psvec3i_max
                0x000000000801a40c                psvec3i_min
                0x000000000801a44c                psvec3i_clamp
                0x000000000801a494                psvec4i_is_zero
                0x000000000801a4c4                psvec4i_is_equal
                0x000000000801a4fc                psvec4i
                0x000000000801a54c                psvec4i_assign
                0x000000000801a584                psvec4i_assign_vec4
                0x000000000801a5bc                psvec4i_zero
                0x000000000801a5ec                psvec4i_one
                0x000000000801a61c                psvec4i_sign
                0x000000000801a654                psvec4i_add
                0x000000000801a694                psvec4i_add_i
                0x000000000801a6d4                psvec4i_subtract
                0x000000000801a714                psvec4i_subtract_i
                0x000000000801a754                psvec4i_multiply
                0x000000000801a794                psvec4i_multiply_i
                0x000000000801a7d4                psvec4i_divide
                0x000000000801a814                psvec4i_divide_i
                0x000000000801a854                psvec4i_snap
                0x000000000801a894                psvec4i_snap_i
                0x000000000801a8d4                psvec4i_negative
                0x000000000801a90c                psvec4i_abs
                0x000000000801a944                psvec4i_max
                0x000000000801a984                psvec4i_min
                0x000000000801a9c4                psvec4i_clamp
                0x000000000801aa0c                psvec2_is_zero
                0x000000000801aa3c                psvec2_is_equal
                0x000000000801aa74                psvec2
                0x000000000801aab4                psvec2_assign
                0x000000000801aaec                psvec2_assign_vec2i
                0x000000000801ab24                psvec2_zero
                0x000000000801ab54                psvec2_one
                0x000000000801ab84                psvec2_sign
                0x000000000801abbc                psvec2_add
                0x000000000801abfc                psvec2_add_f
                0x000000000801ac3c                psvec2_subtract
                0x000000000801ac7c                psvec2_subtract_f
                0x000000000801acbc                psvec2_multiply
                0x000000000801acfc                psvec2_multiply_f
                0x000000000801ad3c                psvec2_multiply_mat2
                0x000000000801ad7c                psvec2_divide
                0x000000000801adbc                psvec2_divide_f
                0x000000000801adfc                psvec2_snap
                0x000000000801ae3c                psvec2_snap_f
                0x000000000801ae7c                psvec2_negative
                0x000000000801aeb4                psvec2_abs
                0x000000000801aeec                psvec2_floor
                0x000000000801af24                psvec2_ceil
                0x000000000801af5c                psvec2_round
                0x000000000801af94                psvec2_max
                0x000000000801afd4                psvec2_min
                0x000000000801b014                psvec2_clamp
                0x000000000801b05c                psvec2_normalize
                0x000000000801b094                psvec2_dot
                0x000000000801b0d4                psvec2_project
                0x000000000801b114                psvec2_slide
                0x000000000801b154                psvec2_reflect
                0x000000000801b194                psvec2_tangent
                0x000000000801b1cc                psvec2_rotate
                0x000000000801b20c                psvec2_lerp
                0x000000000801b254                psvec2_bezier3
                0x000000000801b2a4                psvec2_bezier4
                0x000000000801b2fc                psvec2_angle
                0x000000000801b334                psvec2_length
                0x000000000801b36c                psvec2_length_squared
                0x000000000801b3a4                psvec2_distance
                0x000000000801b3e4                psvec2_distance_squared
                0x000000000801b424                psvec3_is_zero
                0x000000000801b454                psvec3_is_equal
                0x000000000801b48c                psvec3
                0x000000000801b4d4                psvec3_assign
                0x000000000801b50c                psvec3_assign_vec3i
                0x000000000801b544                psvec3_zero
                0x000000000801b574                psvec3_one
                0x000000000801b5a4                psvec3_sign
                0x000000000801b5dc                psvec3_add
                0x000000000801b61c                psvec3_add_f
                0x000000000801b65c                psvec3_subtract
                0x000000000801b69c                psvec3_subtract_f
                0x000000000801b6dc                psvec3_multiply
                0x000000000801b71c                psvec3_multiply_f
                0x000000000801b75c                psvec3_multiply_mat3
                0x000000000801b79c                psvec3_divide
                0x000000000801b7dc                psvec3_divide_f
                0x000000000801b81c                psvec3_snap
                0x000000000801b85c                psvec3_snap_f
                0x000000000801b89c                psvec3_negative
                0x000000000801b8d4                psvec3_abs
                0x000000000801b90c                psvec3_floor
                0x000000000801b944                psvec3_ceil
                0x000000000801b97c                psvec3_round
                0x000000000801b9b4                psvec3_max
                0x000000000801b9f4                psvec3_min
                0x000000000801ba34                psvec3_clamp
                0x000000000801ba7c                psvec3_cross
                0x000000000801babc                psvec3_normalize
                0x000000000801baf4                psvec3_dot
                0x000000000801bb34                psvec3_project
                0x000000000801bb74                psvec3_slide
                0x000000000801bbb4                psvec3_reflect
                0x000000000801bbf4                psvec3_rotate
                0x000000000801bc3c                psvec3_lerp
                0x000000000801bc84                psvec3_bezier3
                0x000000000801bcd4                psvec3_bezier4
                0x000000000801bd2c                psvec3_length
                0x000000000801bd64                psvec3_length_squared
                0x000000000801bd9c                psvec3_distance
                0x000000000801bddc                psvec3_distance_squared
                0x000000000801be1c                psvec4_is_zero
                0x000000000801be4c                psvec4_is_equal
                0x000000000801be84                psvec4
                0x000000000801bed4                psvec4_assign
                0x000000000801bf0c                psvec4_assign_vec4i
                0x000000000801bf44                psvec4_zero
                0x000000000801bf74                psvec4_one
                0x000000000801bfa4                psvec4_sign
                0x000000000801bfdc                psvec4_add
                0x000000000801c01c                psvec4_add_f
                0x000000000801c05c                psvec4_subtract
                0x000000000801c09c                psvec4_subtract_f
                0x000000000801c0dc                psvec4_multiply
                0x000000000801c11c                psvec4_multiply_f
                0x000000000801c15c                psvec4_multiply_mat4
                0x000000000801c19c                psvec4_divide
                0x000000000801c1dc                psvec4_divide_f
                0x000000000801c21c                psvec4_snap
                0x000000000801c25c                psvec4_snap_f
                0x000000000801c29c                psvec4_negative
                0x000000000801c2d4                psvec4_abs
                0x000000000801c30c                psvec4_floor
                0x000000000801c344                psvec4_ceil
                0x000000000801c37c                psvec4_round
                0x000000000801c3b4                psvec4_max
                0x000000000801c3f4                psvec4_min
                0x000000000801c434                psvec4_clamp
                0x000000000801c47c                psvec4_normalize
                0x000000000801c4b4                psvec4_lerp
                0x000000000801c4fc                psquat_is_zero
                0x000000000801c52c                psquat_is_equal
                0x000000000801c564                psquat
                0x000000000801c5b4                psquat_assign
                0x000000000801c5ec                psquat_zero
                0x000000000801c61c                psquat_null
                0x000000000801c64c                psquat_multiply
                0x000000000801c68c                psquat_multiply_f
                0x000000000801c6cc                psquat_divide
                0x000000000801c70c                psquat_divide_f
                0x000000000801c74c                psquat_negative
                0x000000000801c784                psquat_conjugate
                0x000000000801c7bc                psquat_inverse
                0x000000000801c7f4                psquat_normalize
                0x000000000801c82c                psquat_dot
                0x000000000801c86c                psquat_power
                0x000000000801c8ac                psquat_from_axis_angle
                0x000000000801c8ec                psquat_from_vec3
                0x000000000801c92c                psquat_from_mat4
                0x000000000801c964                psquat_lerp
                0x000000000801c9ac                psquat_slerp
                0x000000000801c9f4                psquat_length
                0x000000000801ca2c                psquat_length_squared
                0x000000000801ca64                psquat_angle
                0x000000000801caa4                psmat2
                0x000000000801caf4                psmat2_zero
                0x000000000801cb24                psmat2_identity
                0x000000000801cb54                psmat2_determinant
                0x000000000801cb8c                psmat2_assign
                0x000000000801cbc4                psmat2_negative
                0x000000000801cbfc                psmat2_transpose
                0x000000000801cc34                psmat2_cofactor
                0x000000000801cc6c                psmat2_adjugate
                0x000000000801cca4                psmat2_multiply
                0x000000000801cce4                psmat2_multiply_f
                0x000000000801cd24                psmat2_inverse
                0x000000000801cd5c                psmat2_scaling
                0x000000000801cd94                psmat2_scale
                0x000000000801cdd4                psmat2_rotation_z
                0x000000000801ce0c                psmat2_lerp
                0x000000000801ce54                psmat3
                0x000000000801cecc                psmat3_zero
                0x000000000801cefc                psmat3_identity
                0x000000000801cf2c                psmat3_determinant
                0x000000000801cf64                psmat3_assign
                0x000000000801cf9c                psmat3_negative
                0x000000000801cfd4                psmat3_transpose
                0x000000000801d00c                psmat3_cofactor
                0x000000000801d044                psmat3_multiply
                0x000000000801d084                psmat3_multiply_f
                0x000000000801d0c4                psmat3_inverse
                0x000000000801d0fc                psmat3_scaling
                0x000000000801d134                psmat3_scale
                0x000000000801d174                psmat3_rotation_x
                0x000000000801d1ac                psmat3_rotation_y
                0x000000000801d1e4                psmat3_rotation_z
                0x000000000801d21c                psmat3_rotation_axis
                0x000000000801d25c                psmat3_rotation_quat
                0x000000000801d294                psmat3_lerp
                0x000000000801d2dc                psmat4
                0x000000000801d38c                psmat4_zero
                0x000000000801d3bc                psmat4_identity
                0x000000000801d3ec                psmat4_determinant
                0x000000000801d424                psmat4_assign
                0x000000000801d45c                psmat4_negative
                0x000000000801d494                psmat4_transpose
                0x000000000801d4cc                psmat4_cofactor
                0x000000000801d504                psmat4_rotation_x
                0x000000000801d53c                psmat4_rotation_y
                0x000000000801d574                psmat4_rotation_z
                0x000000000801d5ac                psmat4_rotation_axis
                0x000000000801d5ec                psmat4_rotation_quat
                0x000000000801d624                psmat4_translation
                0x000000000801d664                psmat4_translate
                0x000000000801d6a4                psmat4_scaling
                0x000000000801d6e4                psmat4_scale
                0x000000000801d724                psmat4_multiply
                0x000000000801d764                psmat4_multiply_f
                0x000000000801d7a4                psmat4_inverse
                0x000000000801d7dc                psmat4_lerp
                0x000000000801d824                psmat4_look_at
                0x000000000801d86c                psmat4_ortho
                0x000000000801d8cc                psmat4_perspective
                0x000000000801d91c                psmat4_perspective_fov
                0x000000000801d974                psmat4_perspective_infinite
                0x000000000801d9bc                quadratic_ease_out
                0x000000000801d9fc                quadratic_ease_in
                0x000000000801da30                quadratic_ease_in_out
                0x000000000801dab8                cubic_ease_out
                0x000000000801db0c                cubic_ease_in
                0x000000000801db48                cubic_ease_in_out
                0x000000000801dbe8                quartic_ease_out
                0x000000000801dc4c                quartic_ease_in
                0x000000000801dc90                quartic_ease_in_out
                0x000000000801dd3c                quintic_ease_out
                0x000000000801dda0                quintic_ease_in
                0x000000000801ddec                quintic_ease_in_out
                0x000000000801deac                sine_ease_out
                0x000000000801def4                sine_ease_in
                0x000000000801df50                sine_ease_in_out
                0x000000000801dfac                circular_ease_out
                0x000000000801dff8                circular_ease_in
                0x000000000801e050                circular_ease_in_out
                0x000000000801e120                exponential_ease_out
                0x000000000801e198                exponential_ease_in
                0x000000000801e20c                exponential_ease_in_out
                0x000000000801e2c4                elastic_ease_out
                0x000000000801e348                elastic_ease_in
                0x000000000801e3c4                elastic_ease_in_out
                0x000000000801e4e0                back_ease_out
                0x000000000801e56c                back_ease_in
                0x000000000801e5e0                back_ease_in_out
                0x000000000801e6fc                bounce_ease_out
                0x000000000801e848                bounce_ease_in
                0x000000000801e898                bounce_ease_in_out
 .text          0x000000000801e934        0x0 obj/default/src/utils.o
 .text          0x000000000801e934        0x0 ../Hello_bsp//newlib/nios2-elf/lib\libm.a(lib_a-sf_ceil.o)
 .text.ceilf    0x000000000801e934      0x168 ../Hello_bsp//newlib/nios2-elf/lib\libm.a(lib_a-sf_ceil.o)
                0x000000000801e934                ceilf
 .text          0x000000000801ea9c        0x0 ../Hello_bsp//newlib/nios2-elf/lib\libm.a(lib_a-sf_cos.o)
 .text.cosf     0x000000000801ea9c      0x140 ../Hello_bsp//newlib/nios2-elf/lib\libm.a(lib_a-sf_cos.o)
                0x000000000801ea9c                cosf
 .text          0x000000000801ebdc        0x0 ../Hello_bsp//newlib/nios2-elf/lib\libm.a(lib_a-sf_floor.o)
 .text.floorf   0x000000000801ebdc      0x164 ../Hello_bsp//newlib/nios2-elf/lib\libm.a(lib_a-sf_floor.o)
                0x000000000801ebdc                floorf
 .text          0x000000000801ed40        0x0 ../Hello_bsp//newlib/nios2-elf/lib\libm.a(lib_a-sf_fmax.o)
 .text.fmaxf    0x000000000801ed40       0x7c ../Hello_bsp//newlib/nios2-elf/lib\libm.a(lib_a-sf_fmax.o)
                0x000000000801ed40                fmaxf
 .text          0x000000000801edbc        0x0 ../Hello_bsp//newlib/nios2-elf/lib\libm.a(lib_a-sf_fmin.o)
 .text.fminf    0x000000000801edbc       0x7c ../Hello_bsp//newlib/nios2-elf/lib\libm.a(lib_a-sf_fmin.o)
                0x000000000801edbc                fminf
 .text          0x000000000801ee38        0x0 ../Hello_bsp//newlib/nios2-elf/lib\libm.a(lib_a-sf_fpclassify.o)
 .text.__fpclassifyf
                0x000000000801ee38       0xdc ../Hello_bsp//newlib/nios2-elf/lib\libm.a(lib_a-sf_fpclassify.o)
                0x000000000801ee38                __fpclassifyf
 .text          0x000000000801ef14        0x0 ../Hello_bsp//newlib/nios2-elf/lib\libm.a(lib_a-sf_round.o)
 .text.roundf   0x000000000801ef14      0x11c ../Hello_bsp//newlib/nios2-elf/lib\libm.a(lib_a-sf_round.o)
                0x000000000801ef14                roundf
 .text          0x000000000801f030        0x0 ../Hello_bsp//newlib/nios2-elf/lib\libm.a(lib_a-sf_sin.o)
 .text.sinf     0x000000000801f030      0x144 ../Hello_bsp//newlib/nios2-elf/lib\libm.a(lib_a-sf_sin.o)
                0x000000000801f030                sinf
 .text          0x000000000801f174        0x0 ../Hello_bsp//newlib/nios2-elf/lib\libm.a(lib_a-sf_tan.o)
 .text.tanf     0x000000000801f174       0xe0 ../Hello_bsp//newlib/nios2-elf/lib\libm.a(lib_a-sf_tan.o)
                0x000000000801f174                tanf
 .text          0x000000000801f254        0x0 ../Hello_bsp//newlib/nios2-elf/lib\libm.a(lib_a-wf_acos.o)
 .text.acosf    0x000000000801f254      0x144 ../Hello_bsp//newlib/nios2-elf/lib\libm.a(lib_a-wf_acos.o)
                0x000000000801f254                acosf
 .text          0x000000000801f398        0x0 ../Hello_bsp//newlib/nios2-elf/lib\libm.a(lib_a-wf_atan2.o)
 .text.atan2f   0x000000000801f398       0x40 ../Hello_bsp//newlib/nios2-elf/lib\libm.a(lib_a-wf_atan2.o)
                0x000000000801f398                atan2f
 .text          0x000000000801f3d8        0x0 ../Hello_bsp//newlib/nios2-elf/lib\libm.a(lib_a-wf_pow.o)
 .text.powf     0x000000000801f3d8      0x73c ../Hello_bsp//newlib/nios2-elf/lib\libm.a(lib_a-wf_pow.o)
                0x000000000801f3d8                powf
 .text          0x000000000801fb14        0x0 ../Hello_bsp//newlib/nios2-elf/lib\libm.a(lib_a-wf_sqrt.o)
 .text.sqrtf    0x000000000801fb14      0x160 ../Hello_bsp//newlib/nios2-elf/lib\libm.a(lib_a-wf_sqrt.o)
                0x000000000801fb14                sqrtf
 .text          0x000000000801fc74        0x0 ../Hello_bsp//newlib/nios2-elf/lib\libm.a(lib_a-ef_acos.o)
 .text.__ieee754_acosf
                0x000000000801fc74      0x4d4 ../Hello_bsp//newlib/nios2-elf/lib\libm.a(lib_a-ef_acos.o)
                0x000000000801fc74                __ieee754_acosf
 .text          0x0000000008020148        0x0 ../Hello_bsp//newlib/nios2-elf/lib\libm.a(lib_a-ef_atan2.o)
 .text.__ieee754_atan2f
                0x0000000008020148      0x414 ../Hello_bsp//newlib/nios2-elf/lib\libm.a(lib_a-ef_atan2.o)
                0x0000000008020148                __ieee754_atan2f
 .text          0x000000000802055c        0x0 ../Hello_bsp//newlib/nios2-elf/lib\libm.a(lib_a-ef_pow.o)
 .text.__ieee754_powf
                0x000000000802055c      0xd64 ../Hello_bsp//newlib/nios2-elf/lib\libm.a(lib_a-ef_pow.o)
                0x000000000802055c                __ieee754_powf
 .text          0x00000000080212c0        0x0 ../Hello_bsp//newlib/nios2-elf/lib\libm.a(lib_a-ef_rem_pio2.o)
 .text.__ieee754_rem_pio2f
                0x00000000080212c0      0x674 ../Hello_bsp//newlib/nios2-elf/lib\libm.a(lib_a-ef_rem_pio2.o)
                0x00000000080212c0                __ieee754_rem_pio2f
 .text          0x0000000008021934        0x0 ../Hello_bsp//newlib/nios2-elf/lib\libm.a(lib_a-ef_sqrt.o)
 .text.__ieee754_sqrtf
                0x0000000008021934      0x294 ../Hello_bsp//newlib/nios2-elf/lib\libm.a(lib_a-ef_sqrt.o)
                0x0000000008021934                __ieee754_sqrtf
 .text          0x0000000008021bc8        0x0 ../Hello_bsp//newlib/nios2-elf/lib\libm.a(lib_a-kf_cos.o)
 .text.__kernel_cosf
                0x0000000008021bc8      0x1c4 ../Hello_bsp//newlib/nios2-elf/lib\libm.a(lib_a-kf_cos.o)
                0x0000000008021bc8                __kernel_cosf
 .text          0x0000000008021d8c        0x0 ../Hello_bsp//newlib/nios2-elf/lib\libm.a(lib_a-kf_rem_pio2.o)
 .text.__kernel_rem_pio2f
                0x0000000008021d8c      0xea0 ../Hello_bsp//newlib/nios2-elf/lib\libm.a(lib_a-kf_rem_pio2.o)
                0x0000000008021d8c                __kernel_rem_pio2f
 .text          0x0000000008022c2c        0x0 ../Hello_bsp//newlib/nios2-elf/lib\libm.a(lib_a-kf_sin.o)
 .text.__kernel_sinf
                0x0000000008022c2c      0x16c ../Hello_bsp//newlib/nios2-elf/lib\libm.a(lib_a-kf_sin.o)
                0x0000000008022c2c                __kernel_sinf
 .text          0x0000000008022d98        0x0 ../Hello_bsp//newlib/nios2-elf/lib\libm.a(lib_a-kf_tan.o)
 .text.__kernel_tanf
                0x0000000008022d98      0x3fc ../Hello_bsp//newlib/nios2-elf/lib\libm.a(lib_a-kf_tan.o)
                0x0000000008022d98                __kernel_tanf
 .text          0x0000000008023194        0x0 ../Hello_bsp//newlib/nios2-elf/lib\libm.a(lib_a-s_lib_ver.o)
 .text          0x0000000008023194        0x0 ../Hello_bsp//newlib/nios2-elf/lib\libm.a(lib_a-s_matherr.o)
 .text.matherr  0x0000000008023194       0x68 ../Hello_bsp//newlib/nios2-elf/lib\libm.a(lib_a-s_matherr.o)
                0x0000000008023194                matherr
 .text          0x00000000080231fc        0x0 ../Hello_bsp//newlib/nios2-elf/lib\libm.a(lib_a-s_nan.o)
 .text.nan      0x00000000080231fc       0x44 ../Hello_bsp//newlib/nios2-elf/lib\libm.a(lib_a-s_nan.o)
                0x00000000080231fc                nan
 .text          0x0000000008023240        0x0 ../Hello_bsp//newlib/nios2-elf/lib\libm.a(lib_a-s_rint.o)
 .text.rint     0x0000000008023240      0x438 ../Hello_bsp//newlib/nios2-elf/lib\libm.a(lib_a-s_rint.o)
                0x0000000008023240                rint
 .text          0x0000000008023678        0x0 ../Hello_bsp//newlib/nios2-elf/lib\libm.a(lib_a-sf_atan.o)
 .text.atanf    0x0000000008023678      0x370 ../Hello_bsp//newlib/nios2-elf/lib\libm.a(lib_a-sf_atan.o)
                0x0000000008023678                atanf
 .text          0x00000000080239e8        0x0 ../Hello_bsp//newlib/nios2-elf/lib\libm.a(lib_a-sf_fabs.o)
 .text.fabsf    0x00000000080239e8       0x58 ../Hello_bsp//newlib/nios2-elf/lib\libm.a(lib_a-sf_fabs.o)
                0x00000000080239e8                fabsf
 .text          0x0000000008023a40        0x0 ../Hello_bsp//newlib/nios2-elf/lib\libm.a(lib_a-sf_finite.o)
 .text.finitef  0x0000000008023a40       0x54 ../Hello_bsp//newlib/nios2-elf/lib\libm.a(lib_a-sf_finite.o)
                0x0000000008023a40                finitef
 .text          0x0000000008023a94        0x0 ../Hello_bsp//newlib/nios2-elf/lib\libm.a(lib_a-sf_nan.o)
 .text.nanf     0x0000000008023a94       0x34 ../Hello_bsp//newlib/nios2-elf/lib\libm.a(lib_a-sf_nan.o)
                0x0000000008023a94                nanf
 .text          0x0000000008023ac8        0x0 ../Hello_bsp//newlib/nios2-elf/lib\libm.a(lib_a-sf_scalbn.o)
 .text.scalbnf  0x0000000008023ac8      0x214 ../Hello_bsp//newlib/nios2-elf/lib\libm.a(lib_a-sf_scalbn.o)
                0x0000000008023ac8                scalbnf
 .text          0x0000000008023cdc        0x0 ../Hello_bsp//newlib/nios2-elf/lib\libm.a(lib_a-sf_copysign.o)
 .text.copysignf
                0x0000000008023cdc       0x78 ../Hello_bsp//newlib/nios2-elf/lib\libm.a(lib_a-sf_copysign.o)
                0x0000000008023cdc                copysignf
 .text          0x0000000008023d54      0x1b4 d:/intelfpga_lite/18.0/nios2eds/bin/gnu/h-x86_64-mingw32/bin/../lib/gcc/nios2-elf/5.3.0\libgcc.a(lib2-divmod.o)
                0x0000000008023d54                __divsi3
                0x0000000008023dd8                __modsi3
                0x0000000008023e4c                __udivsi3
                0x0000000008023eb0                __umodsi3
 .text          0x0000000008023f08      0x8ac d:/intelfpga_lite/18.0/nios2eds/bin/gnu/h-x86_64-mingw32/bin/../lib/gcc/nios2-elf/5.3.0\libgcc.a(adddf3.o)
                0x0000000008023f08                __adddf3
 .text          0x00000000080247b4      0x8e8 d:/intelfpga_lite/18.0/nios2eds/bin/gnu/h-x86_64-mingw32/bin/../lib/gcc/nios2-elf/5.3.0\libgcc.a(divdf3.o)
                0x00000000080247b4                __divdf3
 .text          0x000000000802509c       0x88 d:/intelfpga_lite/18.0/nios2eds/bin/gnu/h-x86_64-mingw32/bin/../lib/gcc/nios2-elf/5.3.0\libgcc.a(eqdf2.o)
                0x000000000802509c                __nedf2
                0x000000000802509c                __eqdf2
 .text          0x0000000008025124      0x8fc d:/intelfpga_lite/18.0/nios2eds/bin/gnu/h-x86_64-mingw32/bin/../lib/gcc/nios2-elf/5.3.0\libgcc.a(subdf3.o)
                0x0000000008025124                __subdf3
 .text          0x0000000008025a20      0x110 d:/intelfpga_lite/18.0/nios2eds/bin/gnu/h-x86_64-mingw32/bin/../lib/gcc/nios2-elf/5.3.0\libgcc.a(extendsfdf2.o)
                0x0000000008025a20                __extendsfdf2
 .text          0x0000000008025b30      0x1a8 d:/intelfpga_lite/18.0/nios2eds/bin/gnu/h-x86_64-mingw32/bin/../lib/gcc/nios2-elf/5.3.0\libgcc.a(truncdfsf2.o)
                0x0000000008025b30                __truncdfsf2
 .text          0x0000000008025cd8       0x64 d:/intelfpga_lite/18.0/nios2eds/bin/gnu/h-x86_64-mingw32/bin/../lib/gcc/nios2-elf/5.3.0\libgcc.a(_clzsi2.o)
                0x0000000008025cd8                __clzsi2
 .text          0x0000000008025d3c        0x0 d:/intelfpga_lite/18.0/nios2eds/bin/gnu/h-x86_64-mingw32/bin/../lib/gcc/nios2-elf/5.3.0\libgcc.a(_clz.o)
 .text          0x0000000008025d3c        0x0 ../Hello_bsp//newlib/nios2-elf/lib\libc.a(lib_a-errno.o)
 .text.__errno  0x0000000008025d3c       0x20 ../Hello_bsp//newlib/nios2-elf/lib\libc.a(lib_a-errno.o)
                0x0000000008025d3c                __errno
 .text          0x0000000008025d5c        0x0 ../Hello_bsp//newlib/nios2-elf/lib\libc.a(lib_a-impure.o)
 .text          0x0000000008025d5c        0x0 ../Hello_bsp//newlib/nios2-elf/lib\libc.a(lib_a-malloc.o)
 .text.malloc   0x0000000008025d5c       0x38 ../Hello_bsp//newlib/nios2-elf/lib\libc.a(lib_a-malloc.o)
                0x0000000008025d5c                malloc
 .text.free     0x0000000008025d94       0x3c ../Hello_bsp//newlib/nios2-elf/lib\libc.a(lib_a-malloc.o)
                0x0000000008025d94                free
 .text          0x0000000008025dd0        0x0 ../Hello_bsp//newlib/nios2-elf/lib\libc.a(lib_a-mallocr.o)
 .text.malloc_extend_top
                0x0000000008025dd0      0x3b4 ../Hello_bsp//newlib/nios2-elf/lib\libc.a(lib_a-mallocr.o)
 .text._malloc_r
                0x0000000008026184      0xb7c ../Hello_bsp//newlib/nios2-elf/lib\libc.a(lib_a-mallocr.o)
                0x0000000008026184                _malloc_r
 .text          0x0000000008026d00        0x0 ../Hello_bsp//newlib/nios2-elf/lib\libc.a(lib_a-memcpy.o)
 .text.memcpy   0x0000000008026d00      0x188 ../Hello_bsp//newlib/nios2-elf/lib\libc.a(lib_a-memcpy.o)
                0x0000000008026d00                memcpy
 .text          0x0000000008026e88        0x0 ../Hello_bsp//newlib/nios2-elf/lib\libc.a(lib_a-memset.o)
 .text.memset   0x0000000008026e88      0x1c4 ../Hello_bsp//newlib/nios2-elf/lib\libc.a(lib_a-memset.o)
                0x0000000008026e88                memset
 .text          0x000000000802704c        0x0 ../Hello_bsp//newlib/nios2-elf/lib\libc.a(lib_a-printf.o)
 .text._printf_r
                0x000000000802704c       0x64 ../Hello_bsp//newlib/nios2-elf/lib\libc.a(lib_a-printf.o)
                0x000000000802704c                _printf_r
 .text.printf   0x00000000080270b0       0x68 ../Hello_bsp//newlib/nios2-elf/lib\libc.a(lib_a-printf.o)
                0x00000000080270b0                printf
 .text          0x0000000008027118        0x0 ../Hello_bsp//newlib/nios2-elf/lib\libc.a(lib_a-putchar.o)
 .text._putchar_r
                0x0000000008027118       0x44 ../Hello_bsp//newlib/nios2-elf/lib\libc.a(lib_a-putchar.o)
                0x0000000008027118                _putchar_r
 .text.putchar  0x000000000802715c       0x48 ../Hello_bsp//newlib/nios2-elf/lib\libc.a(lib_a-putchar.o)
                0x000000000802715c                putchar
 .text          0x00000000080271a4        0x0 ../Hello_bsp//newlib/nios2-elf/lib\libc.a(lib_a-puts.o)
 .text._puts_r  0x00000000080271a4      0x118 ../Hello_bsp//newlib/nios2-elf/lib\libc.a(lib_a-puts.o)
                0x00000000080271a4                _puts_r
 .text.puts     0x00000000080272bc       0x38 ../Hello_bsp//newlib/nios2-elf/lib\libc.a(lib_a-puts.o)
                0x00000000080272bc                puts
 .text          0x00000000080272f4        0x0 ../Hello_bsp//newlib/nios2-elf/lib\libc.a(lib_a-rand.o)
 .text.srand    0x00000000080272f4       0x44 ../Hello_bsp//newlib/nios2-elf/lib\libc.a(lib_a-rand.o)
                0x00000000080272f4                srand
 .text.rand     0x0000000008027338       0xc8 ../Hello_bsp//newlib/nios2-elf/lib\libc.a(lib_a-rand.o)
                0x0000000008027338                rand
 .text          0x0000000008027400        0x0 ../Hello_bsp//newlib/nios2-elf/lib\libc.a(lib_a-sbrkr.o)
 .text._sbrk_r  0x0000000008027400       0x60 ../Hello_bsp//newlib/nios2-elf/lib\libc.a(lib_a-sbrkr.o)
                0x0000000008027400                _sbrk_r
 .text          0x0000000008027460        0x0 ../Hello_bsp//newlib/nios2-elf/lib\libc.a(lib_a-strlen.o)
 .text.strlen   0x0000000008027460       0xf4 ../Hello_bsp//newlib/nios2-elf/lib\libc.a(lib_a-strlen.o)
                0x0000000008027460                strlen
 .text          0x0000000008027554        0x0 ../Hello_bsp//newlib/nios2-elf/lib\libc.a(lib_a-vfprintf.o)
 .text.__sbprintf
                0x0000000008027554       0xf0 ../Hello_bsp//newlib/nios2-elf/lib\libc.a(lib_a-vfprintf.o)
 .text.__vfprintf_internal
                0x0000000008027644       0x50 ../Hello_bsp//newlib/nios2-elf/lib\libc.a(lib_a-vfprintf.o)
                0x0000000008027644                __vfprintf_internal
 .text.___vfprintf_internal_r
                0x0000000008027694     0x20d0 ../Hello_bsp//newlib/nios2-elf/lib\libc.a(lib_a-vfprintf.o)
                0x0000000008027694                ___vfprintf_internal_r
 .text.cvt      0x0000000008029764      0x20c ../Hello_bsp//newlib/nios2-elf/lib\libc.a(lib_a-vfprintf.o)
 .text.exponent
                0x0000000008029970      0x140 ../Hello_bsp//newlib/nios2-elf/lib\libc.a(lib_a-vfprintf.o)
 .text          0x0000000008029ab0        0x0 ../Hello_bsp//newlib/nios2-elf/lib\libc.a(lib_a-wsetup.o)
 .text.__swsetup_r
                0x0000000008029ab0      0x1a0 ../Hello_bsp//newlib/nios2-elf/lib\libc.a(lib_a-wsetup.o)
                0x0000000008029ab0                __swsetup_r
 .text          0x0000000008029c50        0x0 ../Hello_bsp//newlib/nios2-elf/lib\libc.a(lib_a-dtoa.o)
 .text.quorem   0x0000000008029c50      0x3b4 ../Hello_bsp//newlib/nios2-elf/lib\libc.a(lib_a-dtoa.o)
 .text._dtoa_r  0x000000000802a004     0x1b78 ../Hello_bsp//newlib/nios2-elf/lib\libc.a(lib_a-dtoa.o)
                0x000000000802a004                _dtoa_r
 .text          0x000000000802bb7c        0x0 ../Hello_bsp//newlib/nios2-elf/lib\libc.a(lib_a-fflush.o)
 .text.__sflush_r
                0x000000000802bb7c      0x304 ../Hello_bsp//newlib/nios2-elf/lib\libc.a(lib_a-fflush.o)
                0x000000000802bb7c                __sflush_r
 .text._fflush_r
                0x000000000802be80       0x88 ../Hello_bsp//newlib/nios2-elf/lib\libc.a(lib_a-fflush.o)
                0x000000000802be80                _fflush_r
 .text.fflush   0x000000000802bf08       0x54 ../Hello_bsp//newlib/nios2-elf/lib\libc.a(lib_a-fflush.o)
                0x000000000802bf08                fflush
 .text          0x000000000802bf5c        0x0 ../Hello_bsp//newlib/nios2-elf/lib\libc.a(lib_a-findfp.o)
 .text.std      0x000000000802bf5c       0xf4 ../Hello_bsp//newlib/nios2-elf/lib\libc.a(lib_a-findfp.o)
 .text.__sfmoreglue
                0x000000000802c050       0xa4 ../Hello_bsp//newlib/nios2-elf/lib\libc.a(lib_a-findfp.o)
                0x000000000802c050                __sfmoreglue
 .text.__sfp    0x000000000802c0f4      0x194 ../Hello_bsp//newlib/nios2-elf/lib\libc.a(lib_a-findfp.o)
                0x000000000802c0f4                __sfp
 .text._cleanup_r
                0x000000000802c288       0x44 ../Hello_bsp//newlib/nios2-elf/lib\libc.a(lib_a-findfp.o)
                0x000000000802c288                _cleanup_r
 .text._cleanup
                0x000000000802c2cc       0x34 ../Hello_bsp//newlib/nios2-elf/lib\libc.a(lib_a-findfp.o)
                0x000000000802c2cc                _cleanup
 .text.__sinit  0x000000000802c300       0xd8 ../Hello_bsp//newlib/nios2-elf/lib\libc.a(lib_a-findfp.o)
                0x000000000802c300                __sinit
 .text.__sfp_lock_acquire
                0x000000000802c3d8       0x20 ../Hello_bsp//newlib/nios2-elf/lib\libc.a(lib_a-findfp.o)
                0x000000000802c3d8                __sfp_lock_acquire
 .text.__sfp_lock_release
                0x000000000802c3f8       0x20 ../Hello_bsp//newlib/nios2-elf/lib\libc.a(lib_a-findfp.o)
                0x000000000802c3f8                __sfp_lock_release
 .text.__sinit_lock_acquire
                0x000000000802c418       0x20 ../Hello_bsp//newlib/nios2-elf/lib\libc.a(lib_a-findfp.o)
                0x000000000802c418                __sinit_lock_acquire
 .text.__sinit_lock_release
                0x000000000802c438       0x20 ../Hello_bsp//newlib/nios2-elf/lib\libc.a(lib_a-findfp.o)
                0x000000000802c438                __sinit_lock_release
 .text.__fp_lock
                0x000000000802c458       0x24 ../Hello_bsp//newlib/nios2-elf/lib\libc.a(lib_a-findfp.o)
 .text.__fp_unlock
                0x000000000802c47c       0x24 ../Hello_bsp//newlib/nios2-elf/lib\libc.a(lib_a-findfp.o)
 .text.__fp_lock_all
                0x000000000802c4a0       0x40 ../Hello_bsp//newlib/nios2-elf/lib\libc.a(lib_a-findfp.o)
                0x000000000802c4a0                __fp_lock_all
 .text.__fp_unlock_all
                0x000000000802c4e0       0x40 ../Hello_bsp//newlib/nios2-elf/lib\libc.a(lib_a-findfp.o)
                0x000000000802c4e0                __fp_unlock_all
 .text          0x000000000802c520        0x0 ../Hello_bsp//newlib/nios2-elf/lib\libc.a(lib_a-freer.o)
 .text._free_r  0x000000000802c520      0x560 ../Hello_bsp//newlib/nios2-elf/lib\libc.a(lib_a-freer.o)
                0x000000000802c520                _free_r
 .text._malloc_trim_r
                0x000000000802ca80      0x1cc ../Hello_bsp//newlib/nios2-elf/lib\libc.a(lib_a-freer.o)
                0x000000000802ca80                _malloc_trim_r
 .text          0x000000000802cc4c        0x0 ../Hello_bsp//newlib/nios2-elf/lib\libc.a(lib_a-fvwrite.o)
 .text.__sfvwrite_r
                0x000000000802cc4c      0x5dc ../Hello_bsp//newlib/nios2-elf/lib\libc.a(lib_a-fvwrite.o)
                0x000000000802cc4c                __sfvwrite_r
 .text          0x000000000802d228        0x0 ../Hello_bsp//newlib/nios2-elf/lib\libc.a(lib_a-fwalk.o)
 .text._fwalk   0x000000000802d228       0xd8 ../Hello_bsp//newlib/nios2-elf/lib\libc.a(lib_a-fwalk.o)
                0x000000000802d228                _fwalk
 .text._fwalk_reent
                0x000000000802d300       0xdc ../Hello_bsp//newlib/nios2-elf/lib\libc.a(lib_a-fwalk.o)
                0x000000000802d300                _fwalk_reent
 .text          0x000000000802d3dc        0x0 ../Hello_bsp//newlib/nios2-elf/lib\libc.a(lib_a-int_errno.o)
 .text          0x000000000802d3dc        0x0 ../Hello_bsp//newlib/nios2-elf/lib\libc.a(lib_a-locale.o)
 .text._setlocale_r
                0x000000000802d3dc       0x84 ../Hello_bsp//newlib/nios2-elf/lib\libc.a(lib_a-locale.o)
                0x000000000802d3dc                _setlocale_r
 .text.__locale_charset
                0x000000000802d460       0x24 ../Hello_bsp//newlib/nios2-elf/lib\libc.a(lib_a-locale.o)
                0x000000000802d460                __locale_charset
 .text.__locale_mb_cur_max
                0x000000000802d484       0x20 ../Hello_bsp//newlib/nios2-elf/lib\libc.a(lib_a-locale.o)
                0x000000000802d484                __locale_mb_cur_max
 .text.__locale_msgcharset
                0x000000000802d4a4       0x24 ../Hello_bsp//newlib/nios2-elf/lib\libc.a(lib_a-locale.o)
                0x000000000802d4a4                __locale_msgcharset
 .text.__locale_cjk_lang
                0x000000000802d4c8       0x20 ../Hello_bsp//newlib/nios2-elf/lib\libc.a(lib_a-locale.o)
                0x000000000802d4c8                __locale_cjk_lang
 .text._localeconv_r
                0x000000000802d4e8       0x28 ../Hello_bsp//newlib/nios2-elf/lib\libc.a(lib_a-locale.o)
                0x000000000802d4e8                _localeconv_r
 .text.setlocale
                0x000000000802d510       0x40 ../Hello_bsp//newlib/nios2-elf/lib\libc.a(lib_a-locale.o)
                0x000000000802d510                setlocale
 .text.localeconv
                0x000000000802d550       0x30 ../Hello_bsp//newlib/nios2-elf/lib\libc.a(lib_a-locale.o)
                0x000000000802d550                localeconv
 .text          0x000000000802d580        0x0 ../Hello_bsp//newlib/nios2-elf/lib\libc.a(lib_a-makebuf.o)
 .text.__smakebuf_r
                0x000000000802d580      0x22c ../Hello_bsp//newlib/nios2-elf/lib\libc.a(lib_a-makebuf.o)
                0x000000000802d580                __smakebuf_r
 .text          0x000000000802d7ac        0x0 ../Hello_bsp//newlib/nios2-elf/lib\libc.a(lib_a-memchr.o)
 .text.memchr   0x000000000802d7ac      0x1bc ../Hello_bsp//newlib/nios2-elf/lib\libc.a(lib_a-memchr.o)
                0x000000000802d7ac                memchr
 .text          0x000000000802d968        0x0 ../Hello_bsp//newlib/nios2-elf/lib\libc.a(lib_a-memmove.o)
 .text.memmove  0x000000000802d968      0x208 ../Hello_bsp//newlib/nios2-elf/lib\libc.a(lib_a-memmove.o)
                0x000000000802d968                memmove
 .text          0x000000000802db70        0x0 ../Hello_bsp//newlib/nios2-elf/lib\libc.a(lib_a-mprec.o)
 .text._Balloc  0x000000000802db70      0x130 ../Hello_bsp//newlib/nios2-elf/lib\libc.a(lib_a-mprec.o)
                0x000000000802db70                _Balloc
 .text._Bfree   0x000000000802dca0       0x7c ../Hello_bsp//newlib/nios2-elf/lib\libc.a(lib_a-mprec.o)
                0x000000000802dca0                _Bfree
 .text.__multadd
                0x000000000802dd1c      0x194 ../Hello_bsp//newlib/nios2-elf/lib\libc.a(lib_a-mprec.o)
                0x000000000802dd1c                __multadd
 .text.__s2b    0x000000000802deb0      0x18c ../Hello_bsp//newlib/nios2-elf/lib\libc.a(lib_a-mprec.o)
                0x000000000802deb0                __s2b
 .text.__hi0bits
                0x000000000802e03c       0x90 ../Hello_bsp//newlib/nios2-elf/lib\libc.a(lib_a-mprec.o)
                0x000000000802e03c                __hi0bits
 .text.__lo0bits
                0x000000000802e0cc       0xec ../Hello_bsp//newlib/nios2-elf/lib\libc.a(lib_a-mprec.o)
                0x000000000802e0cc                __lo0bits
 .text.__i2b    0x000000000802e1b8       0x58 ../Hello_bsp//newlib/nios2-elf/lib\libc.a(lib_a-mprec.o)
                0x000000000802e1b8                __i2b
 .text.__multiply
                0x000000000802e210      0x3d0 ../Hello_bsp//newlib/nios2-elf/lib\libc.a(lib_a-mprec.o)
                0x000000000802e210                __multiply
 .text.__pow5mult
                0x000000000802e5e0      0x178 ../Hello_bsp//newlib/nios2-elf/lib\libc.a(lib_a-mprec.o)
                0x000000000802e5e0                __pow5mult
 .text.__lshift
                0x000000000802e758      0x1f8 ../Hello_bsp//newlib/nios2-elf/lib\libc.a(lib_a-mprec.o)
                0x000000000802e758                __lshift
 .text.__mcmp   0x000000000802e950      0x114 ../Hello_bsp//newlib/nios2-elf/lib\libc.a(lib_a-mprec.o)
                0x000000000802e950                __mcmp
 .text.__mdiff  0x000000000802ea64      0x2a4 ../Hello_bsp//newlib/nios2-elf/lib\libc.a(lib_a-mprec.o)
                0x000000000802ea64                __mdiff
 .text.__ulp    0x000000000802ed08       0xcc ../Hello_bsp//newlib/nios2-elf/lib\libc.a(lib_a-mprec.o)
                0x000000000802ed08                __ulp
 .text.__b2d    0x000000000802edd4      0x204 ../Hello_bsp//newlib/nios2-elf/lib\libc.a(lib_a-mprec.o)
                0x000000000802edd4                __b2d
 .text.__d2b    0x000000000802efd8      0x240 ../Hello_bsp//newlib/nios2-elf/lib\libc.a(lib_a-mprec.o)
                0x000000000802efd8                __d2b
 .text.__ratio  0x000000000802f218      0x11c ../Hello_bsp//newlib/nios2-elf/lib\libc.a(lib_a-mprec.o)
                0x000000000802f218                __ratio
 .text._mprec_log10
                0x000000000802f334       0xb0 ../Hello_bsp//newlib/nios2-elf/lib\libc.a(lib_a-mprec.o)
                0x000000000802f334                _mprec_log10
 .text.__copybits
                0x000000000802f3e4       0xd0 ../Hello_bsp//newlib/nios2-elf/lib\libc.a(lib_a-mprec.o)
                0x000000000802f3e4                __copybits
 .text.__any_on
                0x000000000802f4b4      0x134 ../Hello_bsp//newlib/nios2-elf/lib\libc.a(lib_a-mprec.o)
                0x000000000802f4b4                __any_on
 .text          0x000000000802f5e8        0x0 ../Hello_bsp//newlib/nios2-elf/lib\libc.a(lib_a-putc.o)
 .text._putc_r  0x000000000802f5e8      0x104 ../Hello_bsp//newlib/nios2-elf/lib\libc.a(lib_a-putc.o)
                0x000000000802f5e8                _putc_r
 .text.putc     0x000000000802f6ec      0x108 ../Hello_bsp//newlib/nios2-elf/lib\libc.a(lib_a-putc.o)
                0x000000000802f6ec                putc
 .text          0x000000000802f7f4        0x0 ../Hello_bsp//newlib/nios2-elf/lib\libc.a(lib_a-reallocr.o)
 .text._realloc_r
                0x000000000802f7f4      0xbf0 ../Hello_bsp//newlib/nios2-elf/lib\libc.a(lib_a-reallocr.o)
                0x000000000802f7f4                _realloc_r
 .text          0x00000000080303e4        0x0 ../Hello_bsp//newlib/nios2-elf/lib\libc.a(lib_a-s_fpclassify.o)
 .text.__fpclassifyd
                0x00000000080303e4      0x104 ../Hello_bsp//newlib/nios2-elf/lib\libc.a(lib_a-s_fpclassify.o)
                0x00000000080303e4                __fpclassifyd
 .text          0x00000000080304e8        0x0 ../Hello_bsp//newlib/nios2-elf/lib\libc.a(lib_a-stdio.o)
 .text.__sread  0x00000000080304e8       0x9c ../Hello_bsp//newlib/nios2-elf/lib\libc.a(lib_a-stdio.o)
                0x00000000080304e8                __sread
 .text.__seofread
                0x0000000008030584       0x30 ../Hello_bsp//newlib/nios2-elf/lib\libc.a(lib_a-stdio.o)
                0x0000000008030584                __seofread
 .text.__swrite
                0x00000000080305b4       0xb4 ../Hello_bsp//newlib/nios2-elf/lib\libc.a(lib_a-stdio.o)
                0x00000000080305b4                __swrite
 .text.__sseek  0x0000000008030668       0xa0 ../Hello_bsp//newlib/nios2-elf/lib\libc.a(lib_a-stdio.o)
                0x0000000008030668                __sseek
 .text.__sclose
                0x0000000008030708       0x54 ../Hello_bsp//newlib/nios2-elf/lib\libc.a(lib_a-stdio.o)
                0x0000000008030708                __sclose
 .text          0x000000000803075c        0x0 ../Hello_bsp//newlib/nios2-elf/lib\libc.a(lib_a-strcmp.o)
 .text.strcmp   0x000000000803075c      0x140 ../Hello_bsp//newlib/nios2-elf/lib\libc.a(lib_a-strcmp.o)
                0x000000000803075c                strcmp
 .text          0x000000000803089c        0x0 ../Hello_bsp//newlib/nios2-elf/lib\libc.a(lib_a-vfiprintf.o)
 .text.__sprint_r
                0x000000000803089c      0x13c ../Hello_bsp//newlib/nios2-elf/lib\libc.a(lib_a-vfiprintf.o)
                0x000000000803089c                __sprint_r
 .text.__sbprintf
                0x00000000080309d8       0xf0 ../Hello_bsp//newlib/nios2-elf/lib\libc.a(lib_a-vfiprintf.o)
 .text.__vfiprintf_internal
                0x0000000008030ac8       0x50 ../Hello_bsp//newlib/nios2-elf/lib\libc.a(lib_a-vfiprintf.o)
                0x0000000008030ac8                __vfiprintf_internal
 .text.___vfiprintf_internal_r
                0x0000000008030b18     0x12c4 ../Hello_bsp//newlib/nios2-elf/lib\libc.a(lib_a-vfiprintf.o)
                0x0000000008030b18                ___vfiprintf_internal_r
 .text          0x0000000008031ddc        0x0 ../Hello_bsp//newlib/nios2-elf/lib\libc.a(lib_a-wbuf.o)
 .text.__swbuf_r
                0x0000000008031ddc      0x168 ../Hello_bsp//newlib/nios2-elf/lib\libc.a(lib_a-wbuf.o)
                0x0000000008031ddc                __swbuf_r
 .text.__swbuf  0x0000000008031f44       0x40 ../Hello_bsp//newlib/nios2-elf/lib\libc.a(lib_a-wbuf.o)
                0x0000000008031f44                __swbuf
 .text          0x0000000008031f84        0x0 ../Hello_bsp//newlib/nios2-elf/lib\libc.a(lib_a-writer.o)
 .text._write_r
                0x0000000008031f84       0x70 ../Hello_bsp//newlib/nios2-elf/lib\libc.a(lib_a-writer.o)
                0x0000000008031f84                _write_r
 .text          0x0000000008031ff4        0x0 ../Hello_bsp//newlib/nios2-elf/lib\libc.a(closer.o)
 .text._close_r
                0x0000000008031ff4       0x60 ../Hello_bsp//newlib/nios2-elf/lib\libc.a(closer.o)
                0x0000000008031ff4                _close_r
 .text          0x0000000008032054        0x0 ../Hello_bsp//newlib/nios2-elf/lib\libc.a(lib_a-callocr.o)
 .text._calloc_r
                0x0000000008032054      0x164 ../Hello_bsp//newlib/nios2-elf/lib\libc.a(lib_a-callocr.o)
                0x0000000008032054                _calloc_r
 .text          0x00000000080321b8        0x0 ../Hello_bsp//newlib/nios2-elf/lib\libc.a(lib_a-fclose.o)
 .text._fclose_r
                0x00000000080321b8      0x12c ../Hello_bsp//newlib/nios2-elf/lib\libc.a(lib_a-fclose.o)
                0x00000000080321b8                _fclose_r
 .text.fclose   0x00000000080322e4       0x38 ../Hello_bsp//newlib/nios2-elf/lib\libc.a(lib_a-fclose.o)
                0x00000000080322e4                fclose
 .text          0x000000000803231c        0x0 ../Hello_bsp//newlib/nios2-elf/lib\libc.a(lib_a-fputwc.o)
 .text.__fputwc
                0x000000000803231c      0x1f4 ../Hello_bsp//newlib/nios2-elf/lib\libc.a(lib_a-fputwc.o)
                0x000000000803231c                __fputwc
 .text._fputwc_r
                0x0000000008032510       0x88 ../Hello_bsp//newlib/nios2-elf/lib\libc.a(lib_a-fputwc.o)
                0x0000000008032510                _fputwc_r
 .text.fputwc   0x0000000008032598       0x68 ../Hello_bsp//newlib/nios2-elf/lib\libc.a(lib_a-fputwc.o)
                0x0000000008032598                fputwc
 .text          0x0000000008032600        0x0 ../Hello_bsp//newlib/nios2-elf/lib\libc.a(lib_a-fstatr.o)
 .text._fstat_r
                0x0000000008032600       0x68 ../Hello_bsp//newlib/nios2-elf/lib\libc.a(lib_a-fstatr.o)
                0x0000000008032600                _fstat_r
 .text          0x0000000008032668        0x0 ../Hello_bsp//newlib/nios2-elf/lib\libc.a(lib_a-isattyr.o)
 .text._isatty_r
                0x0000000008032668       0x60 ../Hello_bsp//newlib/nios2-elf/lib\libc.a(lib_a-isattyr.o)
                0x0000000008032668                _isatty_r
 .text          0x00000000080326c8        0x0 ../Hello_bsp//newlib/nios2-elf/lib\libc.a(lib_a-lseekr.o)
 .text._lseek_r
                0x00000000080326c8       0x70 ../Hello_bsp//newlib/nios2-elf/lib\libc.a(lib_a-lseekr.o)
                0x00000000080326c8                _lseek_r
 .text          0x0000000008032738        0x0 ../Hello_bsp//newlib/nios2-elf/lib\libc.a(lib_a-readr.o)
 .text._read_r  0x0000000008032738       0x70 ../Hello_bsp//newlib/nios2-elf/lib\libc.a(lib_a-readr.o)
                0x0000000008032738                _read_r
 .text          0x00000000080327a8        0x0 ../Hello_bsp//newlib/nios2-elf/lib\libc.a(lib_a-wcrtomb.o)
 .text._wcrtomb_r
                0x00000000080327a8       0xd4 ../Hello_bsp//newlib/nios2-elf/lib\libc.a(lib_a-wcrtomb.o)
                0x00000000080327a8                _wcrtomb_r
 .text.wcrtomb  0x000000000803287c       0xd8 ../Hello_bsp//newlib/nios2-elf/lib\libc.a(lib_a-wcrtomb.o)
                0x000000000803287c                wcrtomb
 .text          0x0000000008032954        0x0 ../Hello_bsp//newlib/nios2-elf/lib\libc.a(lib_a-wctomb_r.o)
 .text._wctomb_r
                0x0000000008032954       0x64 ../Hello_bsp//newlib/nios2-elf/lib\libc.a(lib_a-wctomb_r.o)
                0x0000000008032954                _wctomb_r
 .text.__ascii_wctomb
                0x00000000080329b8       0x78 ../Hello_bsp//newlib/nios2-elf/lib\libc.a(lib_a-wctomb_r.o)
                0x00000000080329b8                __ascii_wctomb
 .text          0x0000000008032a30       0x60 d:/intelfpga_lite/18.0/nios2eds/bin/gnu/h-x86_64-mingw32/bin/../lib/gcc/nios2-elf/5.3.0\libgcc.a(_muldi3.o)
                0x0000000008032a30                __muldi3
 .text          0x0000000008032a90      0x578 d:/intelfpga_lite/18.0/nios2eds/bin/gnu/h-x86_64-mingw32/bin/../lib/gcc/nios2-elf/5.3.0\libgcc.a(_udivdi3.o)
                0x0000000008032a90                __udivdi3
 .text          0x0000000008033008      0x538 d:/intelfpga_lite/18.0/nios2eds/bin/gnu/h-x86_64-mingw32/bin/../lib/gcc/nios2-elf/5.3.0\libgcc.a(_umoddi3.o)
                0x0000000008033008                __umoddi3
 .text          0x0000000008033540       0xdc d:/intelfpga_lite/18.0/nios2eds/bin/gnu/h-x86_64-mingw32/bin/../lib/gcc/nios2-elf/5.3.0\libgcc.a(gedf2.o)
                0x0000000008033540                __gedf2
                0x0000000008033540                __gtdf2
 .text          0x000000000803361c       0xf4 d:/intelfpga_lite/18.0/nios2eds/bin/gnu/h-x86_64-mingw32/bin/../lib/gcc/nios2-elf/5.3.0\libgcc.a(ledf2.o)
                0x000000000803361c                __ledf2
                0x000000000803361c                __ltdf2
 .text          0x0000000008033710      0x718 d:/intelfpga_lite/18.0/nios2eds/bin/gnu/h-x86_64-mingw32/bin/../lib/gcc/nios2-elf/5.3.0\libgcc.a(muldf3.o)
                0x0000000008033710                __muldf3
 .text          0x0000000008033e28       0x80 d:/intelfpga_lite/18.0/nios2eds/bin/gnu/h-x86_64-mingw32/bin/../lib/gcc/nios2-elf/5.3.0\libgcc.a(fixdfsi.o)
                0x0000000008033e28                __fixdfsi
 .text          0x0000000008033ea8       0xdc d:/intelfpga_lite/18.0/nios2eds/bin/gnu/h-x86_64-mingw32/bin/../lib/gcc/nios2-elf/5.3.0\libgcc.a(floatsidf.o)
                0x0000000008033ea8                __floatsidf
 .text          0x0000000008033f84       0xa8 d:/intelfpga_lite/18.0/nios2eds/bin/gnu/h-x86_64-mingw32/bin/../lib/gcc/nios2-elf/5.3.0\libgcc.a(floatunsidf.o)
                0x0000000008033f84                __floatunsidf
 .text          0x000000000803402c      0x10c ../Hello_bsp/\libhal_bsp.a(alt_close.o)
                0x0000000008034068                close
 .text          0x0000000008034138       0x2c ../Hello_bsp/\libhal_bsp.a(alt_dev.o)
 .text          0x0000000008034164        0x0 ../Hello_bsp/\libhal_bsp.a(alt_errno.o)
 .text          0x0000000008034164       0xec ../Hello_bsp/\libhal_bsp.a(alt_fstat.o)
                0x00000000080341a0                fstat
 .text          0x0000000008034250       0xe0 ../Hello_bsp/\libhal_bsp.a(alt_isatty.o)
                0x000000000803428c                isatty
 .text          0x0000000008034330       0xec ../Hello_bsp/\libhal_bsp.a(alt_load.o)
                0x0000000008034398                alt_load
 .text          0x000000000803441c      0x110 ../Hello_bsp/\libhal_bsp.a(alt_lseek.o)
                0x0000000008034458                lseek
 .text          0x000000000803452c       0x6c ../Hello_bsp/\libhal_bsp.a(alt_main.o)
                0x000000000803452c                alt_main
 .text          0x0000000008034598       0x48 ../Hello_bsp/\libhal_bsp.a(alt_malloc_lock.o)
                0x0000000008034598                __malloc_lock
                0x00000000080345bc                __malloc_unlock
 .text          0x00000000080345e0      0x138 ../Hello_bsp/\libhal_bsp.a(alt_read.o)
                0x000000000803461c                read
 .text          0x0000000008034718       0x64 ../Hello_bsp/\libhal_bsp.a(alt_release_fd.o)
                0x0000000008034718                alt_release_fd
 .text          0x000000000803477c       0xb0 ../Hello_bsp/\libhal_bsp.a(alt_sbrk.o)
                0x000000000803477c                sbrk
 .text          0x000000000803482c      0x134 ../Hello_bsp/\libhal_bsp.a(alt_write.o)
                0x0000000008034868                write
 .text          0x0000000008034960       0xd0 ../Hello_bsp/\libhal_bsp.a(alt_sys_init.o)
                0x0000000008034994                alt_irq_init
                0x00000000080349cc                alt_sys_init
 .text          0x0000000008034a30      0x164 ../Hello_bsp/\libhal_bsp.a(altera_avalon_jtag_uart_fd.o)
                0x0000000008034a30                altera_avalon_jtag_uart_read_fd
                0x0000000008034a90                altera_avalon_jtag_uart_write_fd
                0x0000000008034af0                altera_avalon_jtag_uart_close_fd
                0x0000000008034b40                altera_avalon_jtag_uart_ioctl_fd
 .text          0x0000000008034b94      0x3d4 ../Hello_bsp/\libhal_bsp.a(altera_avalon_jtag_uart_init.o)
                0x0000000008034b94                altera_avalon_jtag_uart_init
                0x0000000008034f00                altera_avalon_jtag_uart_close
 .text          0x0000000008034f68       0xf0 ../Hello_bsp/\libhal_bsp.a(altera_avalon_jtag_uart_ioctl.o)
                0x0000000008034f68                altera_avalon_jtag_uart_ioctl
 .text          0x0000000008035058      0x21c ../Hello_bsp/\libhal_bsp.a(altera_avalon_jtag_uart_read.o)
                0x0000000008035058                altera_avalon_jtag_uart_read
 .text          0x0000000008035274      0x224 ../Hello_bsp/\libhal_bsp.a(altera_avalon_jtag_uart_write.o)
                0x0000000008035274                altera_avalon_jtag_uart_write
 .text          0x0000000008035498       0xf4 ../Hello_bsp/\libhal_bsp.a(altera_avalon_timer_sc.o)
                0x0000000008035510                alt_avalon_timer_sc_init
 .text          0x000000000803558c      0x12c ../Hello_bsp/\libhal_bsp.a(alt_alarm_start.o)
                0x000000000803558c                alt_alarm_start
 .text          0x00000000080356b8       0x48 ../Hello_bsp/\libhal_bsp.a(alt_dcache_flush_all.o)
                0x00000000080356b8                alt_dcache_flush_all
 .text          0x0000000008035700       0xe0 ../Hello_bsp/\libhal_bsp.a(alt_dev_llist_insert.o)
                0x000000000803573c                alt_dev_llist_insert
 .text          0x00000000080357e0       0x34 ../Hello_bsp/\libhal_bsp.a(alt_icache_flush_all.o)
                0x00000000080357e0                alt_icache_flush_all
 .text          0x0000000008035814      0x1b0 ../Hello_bsp/\libhal_bsp.a(alt_iic.o)
                0x0000000008035814                alt_ic_isr_register
                0x0000000008035864                alt_ic_irq_enable
                0x00000000080358ec                alt_ic_irq_disable
                0x0000000008035978                alt_ic_irq_enabled
 .text          0x00000000080359c4       0xf0 ../Hello_bsp/\libhal_bsp.a(alt_iic_isr_register.o)
                0x00000000080359c4                alt_iic_isr_register
 .text          0x0000000008035ab4      0x140 ../Hello_bsp/\libhal_bsp.a(alt_io_redirect.o)
                0x0000000008035b78                alt_io_redirect
 .text          0x0000000008035bf4        0x0 ../Hello_bsp/\libhal_bsp.a(alt_irq_entry.o)
 .text          0x0000000008035bf4        0x0 ../Hello_bsp/\libhal_bsp.a(alt_irq_handler.o)
 .text          0x0000000008035bf4        0x0 ../Hello_bsp/\libhal_bsp.a(alt_irq_vars.o)
 .text          0x0000000008035bf4      0x254 ../Hello_bsp/\libhal_bsp.a(alt_open.o)
                0x0000000008035cf4                open
 .text          0x0000000008035e48      0x1a4 ../Hello_bsp/\libhal_bsp.a(alt_tick.o)
                0x0000000008035e48                alt_alarm_stop
                0x0000000008035ee4                alt_tick
 .text          0x0000000008035fec       0x24 ../Hello_bsp/\libhal_bsp.a(altera_nios2_gen2_irq.o)
                0x0000000008035fec                altera_nios2_gen2_irq_init
 .text          0x0000000008036010        0x0 ../Hello_bsp/\libhal_bsp.a(alt_exception_entry.o)
 .text          0x0000000008036010       0x90 ../Hello_bsp/\libhal_bsp.a(alt_find_dev.o)
                0x0000000008036010                alt_find_dev
 .text          0x00000000080360a0      0x108 ../Hello_bsp/\libhal_bsp.a(alt_find_file.o)
                0x00000000080360a0                alt_find_file
 .text          0x00000000080361a8       0xa4 ../Hello_bsp/\libhal_bsp.a(alt_get_fd.o)
                0x00000000080361a8                alt_get_fd
 .text          0x000000000803624c       0x90 ../Hello_bsp/\libhal_bsp.a(alt_icache_flush.o)
                0x000000000803624c                alt_icache_flush
 .text          0x00000000080362dc       0x9c ../Hello_bsp/\libhal_bsp.a(alt_instruction_exception_entry.o)
                0x00000000080362dc                alt_exception_cause_generated_bad_addr
 .text          0x0000000008036378        0x0 ../Hello_bsp//newlib/nios2-elf/lib\libc.a(lib_a-exit.o)
 .text.exit     0x0000000008036378       0x48 ../Hello_bsp//newlib/nios2-elf/lib\libc.a(lib_a-exit.o)
                0x0000000008036378                exit
 .text          0x00000000080363c0        0x0 ../Hello_bsp//newlib/nios2-elf/lib\libc.a(lib_a-memcmp.o)
 .text.memcmp   0x00000000080363c0      0x134 ../Hello_bsp//newlib/nios2-elf/lib\libc.a(lib_a-memcmp.o)
                0x00000000080363c0                memcmp
 .text          0x00000000080364f4        0x0 ../Hello_bsp//newlib/nios2-elf/lib\libc.a(lib_a-__call_atexit.o)
 .text.__call_exitprocs
                0x00000000080364f4      0x1ec ../Hello_bsp//newlib/nios2-elf/lib\libc.a(lib_a-__call_atexit.o)
                0x00000000080364f4                __call_exitprocs
 .text          0x00000000080366e0       0x34 ../Hello_bsp/\libhal_bsp.a(alt_exit.o)
                0x00000000080366e0                _exit
 *(.gnu.warning.*)
 *(.fini)
                [!provide]                        PROVIDE (__etext, ABSOLUTE (.))
                [!provide]                        PROVIDE (_etext, ABSOLUTE (.))
                [!provide]                        PROVIDE (etext, ABSOLUTE (.))
 *(.eh_frame_hdr)
                0x0000000008036714                . = ALIGN (0x4)
                [!provide]                        PROVIDE (__preinit_array_start, ABSOLUTE (.))
 *(.preinit_array)
                [!provide]                        PROVIDE (__preinit_array_end, ABSOLUTE (.))
                [!provide]                        PROVIDE (__init_array_start, ABSOLUTE (.))
 *(.init_array)
                [!provide]                        PROVIDE (__init_array_end, ABSOLUTE (.))
                [!provide]                        PROVIDE (__fini_array_start, ABSOLUTE (.))
 *(.fini_array)
                [!provide]                        PROVIDE (__fini_array_end, ABSOLUTE (.))
 *(.eh_frame)
 *(.gcc_except_table .gcc_except_table.*)
 *(.dynamic)
                [!provide]                        PROVIDE (__CTOR_LIST__, ABSOLUTE (.))
 *(.ctors)
 *(SORT(.ctors.*))
                [!provide]                        PROVIDE (__CTOR_END__, ABSOLUTE (.))
                [!provide]                        PROVIDE (__DTOR_LIST__, ABSOLUTE (.))
 *(.dtors)
 *(SORT(.dtors.*))
                [!provide]                        PROVIDE (__DTOR_END__, ABSOLUTE (.))
 *(.jcr)
                0x0000000008036714                . = ALIGN (0x4)

.rodata         0x0000000008036714      0xa94
                0x0000000008036714                PROVIDE (__ram_rodata_start, ABSOLUTE (.))
                0x0000000008036714                . = ALIGN (0x4)
 *(.rodata .rodata.* .gnu.linkonce.r.*)
 .rodata        0x0000000008036714       0x69 obj/default/src/app.o
 *fill*         0x000000000803677d        0x3 
 .rodata        0x0000000008036780       0xf5 obj/default/src/gppcu.o
 *fill*         0x0000000008036875        0x3 
 .rodata        0x0000000008036878      0x13b obj/default/src/main.o
 *fill*         0x00000000080369b3        0x1 
 .rodata        0x00000000080369b4        0x9 ../Hello_bsp//newlib/nios2-elf/lib\libm.a(lib_a-wf_acos.o)
 *fill*         0x00000000080369bd        0x3 
 .rodata        0x00000000080369c0        0x5 ../Hello_bsp//newlib/nios2-elf/lib\libm.a(lib_a-wf_pow.o)
 *fill*         0x00000000080369c5        0x3 
 .rodata        0x00000000080369c8        0x6 ../Hello_bsp//newlib/nios2-elf/lib\libm.a(lib_a-wf_sqrt.o)
 *fill*         0x00000000080369ce        0x2 
 .rodata        0x00000000080369d0        0x1 ../Hello_bsp//newlib/nios2-elf/lib\libm.a(lib_a-ef_pow.o)
 *fill*         0x00000000080369d1        0x3 
 .rodata.two_over_pi
                0x00000000080369d4      0x318 ../Hello_bsp//newlib/nios2-elf/lib\libm.a(lib_a-ef_rem_pio2.o)
 .rodata.npio2_hw
                0x0000000008036cec       0x80 ../Hello_bsp//newlib/nios2-elf/lib\libm.a(lib_a-ef_rem_pio2.o)
 .rodata.init_jk
                0x0000000008036d6c        0xc ../Hello_bsp//newlib/nios2-elf/lib\libm.a(lib_a-kf_rem_pio2.o)
 .rodata.PIo2   0x0000000008036d78       0x2c ../Hello_bsp//newlib/nios2-elf/lib\libm.a(lib_a-kf_rem_pio2.o)
 .rodata.T      0x0000000008036da4       0x34 ../Hello_bsp//newlib/nios2-elf/lib\libm.a(lib_a-kf_tan.o)
 .rodata.TWO52  0x0000000008036dd8       0x10 ../Hello_bsp//newlib/nios2-elf/lib\libm.a(lib_a-s_rint.o)
 .rodata.atanhi
                0x0000000008036de8       0x10 ../Hello_bsp//newlib/nios2-elf/lib\libm.a(lib_a-sf_atan.o)
 .rodata.atanlo
                0x0000000008036df8       0x10 ../Hello_bsp//newlib/nios2-elf/lib\libm.a(lib_a-sf_atan.o)
 .rodata.aT     0x0000000008036e08       0x2c ../Hello_bsp//newlib/nios2-elf/lib\libm.a(lib_a-sf_atan.o)
 .rodata        0x0000000008036e34      0x100 d:/intelfpga_lite/18.0/nios2eds/bin/gnu/h-x86_64-mingw32/bin/../lib/gcc/nios2-elf/5.3.0\libgcc.a(_clz.o)
                0x0000000008036e34                __clz_tab
 .rodata        0x0000000008036f34        0x2 ../Hello_bsp//newlib/nios2-elf/lib\libc.a(lib_a-impure.o)
 *fill*         0x0000000008036f36        0x2 
 .rodata        0x0000000008036f38        0x2 ../Hello_bsp//newlib/nios2-elf/lib\libc.a(lib_a-puts.o)
 *fill*         0x0000000008036f3a        0x2 
 .rodata        0x0000000008036f3c       0x5e ../Hello_bsp//newlib/nios2-elf/lib\libc.a(lib_a-vfprintf.o)
 .rodata.blanks.4403
                0x0000000008036f9a       0x10 ../Hello_bsp//newlib/nios2-elf/lib\libc.a(lib_a-vfprintf.o)
 .rodata.zeroes.4404
                0x0000000008036faa       0x10 ../Hello_bsp//newlib/nios2-elf/lib\libc.a(lib_a-vfprintf.o)
 *fill*         0x0000000008036fba        0x2 
 .rodata        0x0000000008036fbc       0x12 ../Hello_bsp//newlib/nios2-elf/lib\libc.a(lib_a-dtoa.o)
 *fill*         0x0000000008036fce        0x2 
 .rodata        0x0000000008036fd0       0x12 ../Hello_bsp//newlib/nios2-elf/lib\libc.a(lib_a-locale.o)
 *fill*         0x0000000008036fe2        0x2 
 .rodata.__mprec_tens
                0x0000000008036fe4       0xc8 ../Hello_bsp//newlib/nios2-elf/lib\libc.a(lib_a-mprec.o)
                0x0000000008036fe4                __mprec_tens
 .rodata.__mprec_bigtens
                0x00000000080370ac       0x28 ../Hello_bsp//newlib/nios2-elf/lib\libc.a(lib_a-mprec.o)
                0x00000000080370ac                __mprec_bigtens
 .rodata.__mprec_tinytens
                0x00000000080370d4       0x28 ../Hello_bsp//newlib/nios2-elf/lib\libc.a(lib_a-mprec.o)
                0x00000000080370d4                __mprec_tinytens
 .rodata.p05.2768
                0x00000000080370fc        0xc ../Hello_bsp//newlib/nios2-elf/lib\libc.a(lib_a-mprec.o)
 .rodata        0x0000000008037108       0x4a ../Hello_bsp//newlib/nios2-elf/lib\libc.a(lib_a-vfiprintf.o)
 .rodata.blanks.4348
                0x0000000008037152       0x10 ../Hello_bsp//newlib/nios2-elf/lib\libc.a(lib_a-vfiprintf.o)
 .rodata.zeroes.4349
                0x0000000008037162       0x10 ../Hello_bsp//newlib/nios2-elf/lib\libc.a(lib_a-vfiprintf.o)
 *fill*         0x0000000008037172        0x2 
 .rodata        0x0000000008037174        0xa ../Hello_bsp/\libhal_bsp.a(alt_dev.o)
 *fill*         0x000000000803717e        0x2 
 .rodata        0x0000000008037180       0x11 ../Hello_bsp/\libhal_bsp.a(alt_main.o)
 *fill*         0x0000000008037191        0x3 
 .rodata        0x0000000008037194       0x11 ../Hello_bsp/\libhal_bsp.a(alt_sys_init.o)
 *(.rodata1)
                0x00000000080371a8                . = ALIGN (0x4)
 *fill*         0x00000000080371a5        0x3 
                0x00000000080371a8                PROVIDE (__ram_rodata_end, ABSOLUTE (.))
                0x0000000008036714                PROVIDE (__flash_rodata_start, LOADADDR (.rodata))

.rwdata         0x00000000080371a8     0x1c70 load address 0x0000000008038e18
                0x00000000080371a8                PROVIDE (__ram_rwdata_start, ABSOLUTE (.))
                0x00000000080371a8                . = ALIGN (0x4)
 *(.got.plt)
 *(.got)
 *(.data1)
 *(.data .data.* .gnu.linkonce.d.*)
 .data          0x00000000080371a8        0x0 ../Hello_bsp//obj/HAL/src/crt0.o
 .data          0x00000000080371a8        0x0 obj/default/src/app.o
 .data          0x00000000080371a8        0x0 obj/default/src/gppcu.o
 .data          0x00000000080371a8        0x0 obj/default/src/main.o
 .data          0x00000000080371a8        0x0 obj/default/src/mathc.o
 .data          0x00000000080371a8        0x0 obj/default/src/utils.o
 .data          0x00000000080371a8        0x0 ../Hello_bsp//newlib/nios2-elf/lib\libm.a(lib_a-sf_ceil.o)
 .data          0x00000000080371a8        0x0 ../Hello_bsp//newlib/nios2-elf/lib\libm.a(lib_a-sf_cos.o)
 .data          0x00000000080371a8        0x0 ../Hello_bsp//newlib/nios2-elf/lib\libm.a(lib_a-sf_floor.o)
 .data          0x00000000080371a8        0x0 ../Hello_bsp//newlib/nios2-elf/lib\libm.a(lib_a-sf_fmax.o)
 .data          0x00000000080371a8        0x0 ../Hello_bsp//newlib/nios2-elf/lib\libm.a(lib_a-sf_fmin.o)
 .data          0x00000000080371a8        0x0 ../Hello_bsp//newlib/nios2-elf/lib\libm.a(lib_a-sf_fpclassify.o)
 .data          0x00000000080371a8        0x0 ../Hello_bsp//newlib/nios2-elf/lib\libm.a(lib_a-sf_round.o)
 .data          0x00000000080371a8        0x0 ../Hello_bsp//newlib/nios2-elf/lib\libm.a(lib_a-sf_sin.o)
 .data          0x00000000080371a8        0x0 ../Hello_bsp//newlib/nios2-elf/lib\libm.a(lib_a-sf_tan.o)
 .data          0x00000000080371a8        0x0 ../Hello_bsp//newlib/nios2-elf/lib\libm.a(lib_a-wf_acos.o)
 .data          0x00000000080371a8        0x0 ../Hello_bsp//newlib/nios2-elf/lib\libm.a(lib_a-wf_atan2.o)
 .data          0x00000000080371a8        0x0 ../Hello_bsp//newlib/nios2-elf/lib\libm.a(lib_a-wf_pow.o)
 .data          0x00000000080371a8        0x0 ../Hello_bsp//newlib/nios2-elf/lib\libm.a(lib_a-wf_sqrt.o)
 .data          0x00000000080371a8        0x0 ../Hello_bsp//newlib/nios2-elf/lib\libm.a(lib_a-ef_acos.o)
 .data          0x00000000080371a8        0x0 ../Hello_bsp//newlib/nios2-elf/lib\libm.a(lib_a-ef_atan2.o)
 .data          0x00000000080371a8        0x0 ../Hello_bsp//newlib/nios2-elf/lib\libm.a(lib_a-ef_pow.o)
 .data          0x00000000080371a8        0x0 ../Hello_bsp//newlib/nios2-elf/lib\libm.a(lib_a-ef_rem_pio2.o)
 .data          0x00000000080371a8        0x0 ../Hello_bsp//newlib/nios2-elf/lib\libm.a(lib_a-ef_sqrt.o)
 .data          0x00000000080371a8        0x0 ../Hello_bsp//newlib/nios2-elf/lib\libm.a(lib_a-kf_cos.o)
 .data          0x00000000080371a8        0x0 ../Hello_bsp//newlib/nios2-elf/lib\libm.a(lib_a-kf_rem_pio2.o)
 .data          0x00000000080371a8        0x0 ../Hello_bsp//newlib/nios2-elf/lib\libm.a(lib_a-kf_sin.o)
 .data          0x00000000080371a8        0x0 ../Hello_bsp//newlib/nios2-elf/lib\libm.a(lib_a-kf_tan.o)
 .data          0x00000000080371a8        0x0 ../Hello_bsp//newlib/nios2-elf/lib\libm.a(lib_a-s_lib_ver.o)
 .data          0x00000000080371a8        0x0 ../Hello_bsp//newlib/nios2-elf/lib\libm.a(lib_a-s_matherr.o)
 .data          0x00000000080371a8        0x0 ../Hello_bsp//newlib/nios2-elf/lib\libm.a(lib_a-s_nan.o)
 .data          0x00000000080371a8        0x0 ../Hello_bsp//newlib/nios2-elf/lib\libm.a(lib_a-s_rint.o)
 .data          0x00000000080371a8        0x0 ../Hello_bsp//newlib/nios2-elf/lib\libm.a(lib_a-sf_atan.o)
 .data          0x00000000080371a8        0x0 ../Hello_bsp//newlib/nios2-elf/lib\libm.a(lib_a-sf_fabs.o)
 .data          0x00000000080371a8        0x0 ../Hello_bsp//newlib/nios2-elf/lib\libm.a(lib_a-sf_finite.o)
 .data          0x00000000080371a8        0x0 ../Hello_bsp//newlib/nios2-elf/lib\libm.a(lib_a-sf_nan.o)
 .data          0x00000000080371a8        0x0 ../Hello_bsp//newlib/nios2-elf/lib\libm.a(lib_a-sf_scalbn.o)
 .data          0x00000000080371a8        0x0 ../Hello_bsp//newlib/nios2-elf/lib\libm.a(lib_a-sf_copysign.o)
 .data          0x00000000080371a8        0x0 d:/intelfpga_lite/18.0/nios2eds/bin/gnu/h-x86_64-mingw32/bin/../lib/gcc/nios2-elf/5.3.0\libgcc.a(lib2-divmod.o)
 .data          0x00000000080371a8        0x0 d:/intelfpga_lite/18.0/nios2eds/bin/gnu/h-x86_64-mingw32/bin/../lib/gcc/nios2-elf/5.3.0\libgcc.a(adddf3.o)
 .data          0x00000000080371a8        0x0 d:/intelfpga_lite/18.0/nios2eds/bin/gnu/h-x86_64-mingw32/bin/../lib/gcc/nios2-elf/5.3.0\libgcc.a(divdf3.o)
 .data          0x00000000080371a8        0x0 d:/intelfpga_lite/18.0/nios2eds/bin/gnu/h-x86_64-mingw32/bin/../lib/gcc/nios2-elf/5.3.0\libgcc.a(eqdf2.o)
 .data          0x00000000080371a8        0x0 d:/intelfpga_lite/18.0/nios2eds/bin/gnu/h-x86_64-mingw32/bin/../lib/gcc/nios2-elf/5.3.0\libgcc.a(subdf3.o)
 .data          0x00000000080371a8        0x0 d:/intelfpga_lite/18.0/nios2eds/bin/gnu/h-x86_64-mingw32/bin/../lib/gcc/nios2-elf/5.3.0\libgcc.a(extendsfdf2.o)
 .data          0x00000000080371a8        0x0 d:/intelfpga_lite/18.0/nios2eds/bin/gnu/h-x86_64-mingw32/bin/../lib/gcc/nios2-elf/5.3.0\libgcc.a(truncdfsf2.o)
 .data          0x00000000080371a8        0x0 d:/intelfpga_lite/18.0/nios2eds/bin/gnu/h-x86_64-mingw32/bin/../lib/gcc/nios2-elf/5.3.0\libgcc.a(_clzsi2.o)
 .data          0x00000000080371a8        0x0 d:/intelfpga_lite/18.0/nios2eds/bin/gnu/h-x86_64-mingw32/bin/../lib/gcc/nios2-elf/5.3.0\libgcc.a(_clz.o)
 .data          0x00000000080371a8        0x0 ../Hello_bsp//newlib/nios2-elf/lib\libc.a(lib_a-errno.o)
 .data          0x00000000080371a8        0x0 ../Hello_bsp//newlib/nios2-elf/lib\libc.a(lib_a-impure.o)
 .data.impure_data
                0x00000000080371a8      0x424 ../Hello_bsp//newlib/nios2-elf/lib\libc.a(lib_a-impure.o)
 .data          0x00000000080375cc        0x0 ../Hello_bsp//newlib/nios2-elf/lib\libc.a(lib_a-malloc.o)
 .data          0x00000000080375cc        0x0 ../Hello_bsp//newlib/nios2-elf/lib\libc.a(lib_a-mallocr.o)
 .data.__malloc_av_
                0x00000000080375cc      0x408 ../Hello_bsp//newlib/nios2-elf/lib\libc.a(lib_a-mallocr.o)
                0x00000000080375cc                __malloc_av_
 .data          0x00000000080379d4        0x0 ../Hello_bsp//newlib/nios2-elf/lib\libc.a(lib_a-memcpy.o)
 .data          0x00000000080379d4        0x0 ../Hello_bsp//newlib/nios2-elf/lib\libc.a(lib_a-memset.o)
 .data          0x00000000080379d4        0x0 ../Hello_bsp//newlib/nios2-elf/lib\libc.a(lib_a-printf.o)
 .data          0x00000000080379d4        0x0 ../Hello_bsp//newlib/nios2-elf/lib\libc.a(lib_a-putchar.o)
 .data          0x00000000080379d4        0x0 ../Hello_bsp//newlib/nios2-elf/lib\libc.a(lib_a-puts.o)
 .data          0x00000000080379d4        0x0 ../Hello_bsp//newlib/nios2-elf/lib\libc.a(lib_a-rand.o)
 .data          0x00000000080379d4        0x0 ../Hello_bsp//newlib/nios2-elf/lib\libc.a(lib_a-sbrkr.o)
 .data          0x00000000080379d4        0x0 ../Hello_bsp//newlib/nios2-elf/lib\libc.a(lib_a-strlen.o)
 .data          0x00000000080379d4        0x0 ../Hello_bsp//newlib/nios2-elf/lib\libc.a(lib_a-vfprintf.o)
 .data          0x00000000080379d4        0x0 ../Hello_bsp//newlib/nios2-elf/lib\libc.a(lib_a-wsetup.o)
 .data          0x00000000080379d4        0x0 ../Hello_bsp//newlib/nios2-elf/lib\libc.a(lib_a-dtoa.o)
 .data          0x00000000080379d4        0x0 ../Hello_bsp//newlib/nios2-elf/lib\libc.a(lib_a-fflush.o)
 .data          0x00000000080379d4        0x0 ../Hello_bsp//newlib/nios2-elf/lib\libc.a(lib_a-findfp.o)
 .data          0x00000000080379d4        0x0 ../Hello_bsp//newlib/nios2-elf/lib\libc.a(lib_a-freer.o)
 .data          0x00000000080379d4        0x0 ../Hello_bsp//newlib/nios2-elf/lib\libc.a(lib_a-fvwrite.o)
 .data          0x00000000080379d4        0x0 ../Hello_bsp//newlib/nios2-elf/lib\libc.a(lib_a-fwalk.o)
 .data          0x00000000080379d4        0x0 ../Hello_bsp//newlib/nios2-elf/lib\libc.a(lib_a-int_errno.o)
 .data          0x00000000080379d4        0x0 ../Hello_bsp//newlib/nios2-elf/lib\libc.a(lib_a-locale.o)
 .data.lconv    0x00000000080379d4       0x38 ../Hello_bsp//newlib/nios2-elf/lib\libc.a(lib_a-locale.o)
 .data.lc_ctype_charset
                0x0000000008037a0c       0x20 ../Hello_bsp//newlib/nios2-elf/lib\libc.a(lib_a-locale.o)
 .data.lc_message_charset
                0x0000000008037a2c       0x20 ../Hello_bsp//newlib/nios2-elf/lib\libc.a(lib_a-locale.o)
 .data          0x0000000008037a4c        0x0 ../Hello_bsp//newlib/nios2-elf/lib\libc.a(lib_a-makebuf.o)
 .data          0x0000000008037a4c        0x0 ../Hello_bsp//newlib/nios2-elf/lib\libc.a(lib_a-memchr.o)
 .data          0x0000000008037a4c        0x0 ../Hello_bsp//newlib/nios2-elf/lib\libc.a(lib_a-memmove.o)
 .data          0x0000000008037a4c        0x0 ../Hello_bsp//newlib/nios2-elf/lib\libc.a(lib_a-mprec.o)
 .data          0x0000000008037a4c        0x0 ../Hello_bsp//newlib/nios2-elf/lib\libc.a(lib_a-putc.o)
 .data          0x0000000008037a4c        0x0 ../Hello_bsp//newlib/nios2-elf/lib\libc.a(lib_a-reallocr.o)
 .data          0x0000000008037a4c        0x0 ../Hello_bsp//newlib/nios2-elf/lib\libc.a(lib_a-s_fpclassify.o)
 .data          0x0000000008037a4c        0x0 ../Hello_bsp//newlib/nios2-elf/lib\libc.a(lib_a-stdio.o)
 .data          0x0000000008037a4c        0x0 ../Hello_bsp//newlib/nios2-elf/lib\libc.a(lib_a-strcmp.o)
 .data          0x0000000008037a4c        0x0 ../Hello_bsp//newlib/nios2-elf/lib\libc.a(lib_a-vfiprintf.o)
 .data          0x0000000008037a4c        0x0 ../Hello_bsp//newlib/nios2-elf/lib\libc.a(lib_a-wbuf.o)
 .data          0x0000000008037a4c        0x0 ../Hello_bsp//newlib/nios2-elf/lib\libc.a(lib_a-writer.o)
 .data          0x0000000008037a4c        0x0 ../Hello_bsp//newlib/nios2-elf/lib\libc.a(closer.o)
 .data          0x0000000008037a4c        0x0 ../Hello_bsp//newlib/nios2-elf/lib\libc.a(lib_a-callocr.o)
 .data          0x0000000008037a4c        0x0 ../Hello_bsp//newlib/nios2-elf/lib\libc.a(lib_a-fclose.o)
 .data          0x0000000008037a4c        0x0 ../Hello_bsp//newlib/nios2-elf/lib\libc.a(lib_a-fputwc.o)
 .data          0x0000000008037a4c        0x0 ../Hello_bsp//newlib/nios2-elf/lib\libc.a(lib_a-fstatr.o)
 .data          0x0000000008037a4c        0x0 ../Hello_bsp//newlib/nios2-elf/lib\libc.a(lib_a-isattyr.o)
 .data          0x0000000008037a4c        0x0 ../Hello_bsp//newlib/nios2-elf/lib\libc.a(lib_a-lseekr.o)
 .data          0x0000000008037a4c        0x0 ../Hello_bsp//newlib/nios2-elf/lib\libc.a(lib_a-readr.o)
 .data          0x0000000008037a4c        0x0 ../Hello_bsp//newlib/nios2-elf/lib\libc.a(lib_a-wcrtomb.o)
 .data          0x0000000008037a4c        0x0 ../Hello_bsp//newlib/nios2-elf/lib\libc.a(lib_a-wctomb_r.o)
 .data          0x0000000008037a4c        0x0 d:/intelfpga_lite/18.0/nios2eds/bin/gnu/h-x86_64-mingw32/bin/../lib/gcc/nios2-elf/5.3.0\libgcc.a(_muldi3.o)
 .data          0x0000000008037a4c        0x0 d:/intelfpga_lite/18.0/nios2eds/bin/gnu/h-x86_64-mingw32/bin/../lib/gcc/nios2-elf/5.3.0\libgcc.a(_udivdi3.o)
 .data          0x0000000008037a4c        0x0 d:/intelfpga_lite/18.0/nios2eds/bin/gnu/h-x86_64-mingw32/bin/../lib/gcc/nios2-elf/5.3.0\libgcc.a(_umoddi3.o)
 .data          0x0000000008037a4c        0x0 d:/intelfpga_lite/18.0/nios2eds/bin/gnu/h-x86_64-mingw32/bin/../lib/gcc/nios2-elf/5.3.0\libgcc.a(gedf2.o)
 .data          0x0000000008037a4c        0x0 d:/intelfpga_lite/18.0/nios2eds/bin/gnu/h-x86_64-mingw32/bin/../lib/gcc/nios2-elf/5.3.0\libgcc.a(ledf2.o)
 .data          0x0000000008037a4c        0x0 d:/intelfpga_lite/18.0/nios2eds/bin/gnu/h-x86_64-mingw32/bin/../lib/gcc/nios2-elf/5.3.0\libgcc.a(muldf3.o)
 .data          0x0000000008037a4c        0x0 d:/intelfpga_lite/18.0/nios2eds/bin/gnu/h-x86_64-mingw32/bin/../lib/gcc/nios2-elf/5.3.0\libgcc.a(fixdfsi.o)
 .data          0x0000000008037a4c        0x0 d:/intelfpga_lite/18.0/nios2eds/bin/gnu/h-x86_64-mingw32/bin/../lib/gcc/nios2-elf/5.3.0\libgcc.a(floatsidf.o)
 .data          0x0000000008037a4c        0x0 d:/intelfpga_lite/18.0/nios2eds/bin/gnu/h-x86_64-mingw32/bin/../lib/gcc/nios2-elf/5.3.0\libgcc.a(floatunsidf.o)
 .data          0x0000000008037a4c        0x0 ../Hello_bsp/\libhal_bsp.a(alt_close.o)
 .data          0x0000000008037a4c      0x1a8 ../Hello_bsp/\libhal_bsp.a(alt_dev.o)
                0x0000000008037a4c                alt_dev_null
                0x0000000008037a74                alt_fd_list
 .data          0x0000000008037bf4        0x0 ../Hello_bsp/\libhal_bsp.a(alt_errno.o)
 .data          0x0000000008037bf4        0x0 ../Hello_bsp/\libhal_bsp.a(alt_fstat.o)
 .data          0x0000000008037bf4        0x0 ../Hello_bsp/\libhal_bsp.a(alt_isatty.o)
 .data          0x0000000008037bf4        0x0 ../Hello_bsp/\libhal_bsp.a(alt_load.o)
 .data          0x0000000008037bf4        0x0 ../Hello_bsp/\libhal_bsp.a(alt_lseek.o)
 .data          0x0000000008037bf4        0x0 ../Hello_bsp/\libhal_bsp.a(alt_main.o)
 .data          0x0000000008037bf4        0x0 ../Hello_bsp/\libhal_bsp.a(alt_malloc_lock.o)
 .data          0x0000000008037bf4        0x0 ../Hello_bsp/\libhal_bsp.a(alt_read.o)
 .data          0x0000000008037bf4        0x0 ../Hello_bsp/\libhal_bsp.a(alt_release_fd.o)
 .data          0x0000000008037bf4        0x0 ../Hello_bsp/\libhal_bsp.a(alt_sbrk.o)
 .data          0x0000000008037bf4        0x0 ../Hello_bsp/\libhal_bsp.a(alt_write.o)
 .data          0x0000000008037bf4     0x1060 ../Hello_bsp/\libhal_bsp.a(alt_sys_init.o)
 .data          0x0000000008038c54        0x0 ../Hello_bsp/\libhal_bsp.a(altera_avalon_jtag_uart_fd.o)
 .data          0x0000000008038c54        0x0 ../Hello_bsp/\libhal_bsp.a(altera_avalon_jtag_uart_init.o)
 .data          0x0000000008038c54        0x0 ../Hello_bsp/\libhal_bsp.a(altera_avalon_jtag_uart_ioctl.o)
 .data          0x0000000008038c54        0x0 ../Hello_bsp/\libhal_bsp.a(altera_avalon_jtag_uart_read.o)
 .data          0x0000000008038c54        0x0 ../Hello_bsp/\libhal_bsp.a(altera_avalon_jtag_uart_write.o)
 .data          0x0000000008038c54        0x0 ../Hello_bsp/\libhal_bsp.a(altera_avalon_timer_sc.o)
 .data          0x0000000008038c54        0x0 ../Hello_bsp/\libhal_bsp.a(alt_alarm_start.o)
 .data          0x0000000008038c54        0x0 ../Hello_bsp/\libhal_bsp.a(alt_dcache_flush_all.o)
 .data          0x0000000008038c54        0x0 ../Hello_bsp/\libhal_bsp.a(alt_dev_llist_insert.o)
 .data          0x0000000008038c54        0x0 ../Hello_bsp/\libhal_bsp.a(alt_icache_flush_all.o)
 .data          0x0000000008038c54        0x0 ../Hello_bsp/\libhal_bsp.a(alt_iic.o)
 .data          0x0000000008038c54        0x0 ../Hello_bsp/\libhal_bsp.a(alt_iic_isr_register.o)
 .data          0x0000000008038c54        0x0 ../Hello_bsp/\libhal_bsp.a(alt_io_redirect.o)
 .data          0x0000000008038c54        0x0 ../Hello_bsp/\libhal_bsp.a(alt_irq_entry.o)
 .data          0x0000000008038c54        0x0 ../Hello_bsp/\libhal_bsp.a(alt_irq_handler.o)
 .data          0x0000000008038c54        0x0 ../Hello_bsp/\libhal_bsp.a(alt_irq_vars.o)
 .data          0x0000000008038c54        0x0 ../Hello_bsp/\libhal_bsp.a(alt_open.o)
 .data          0x0000000008038c54        0x0 ../Hello_bsp/\libhal_bsp.a(alt_tick.o)
 .data          0x0000000008038c54        0x0 ../Hello_bsp/\libhal_bsp.a(altera_nios2_gen2_irq.o)
 .data          0x0000000008038c54        0x0 ../Hello_bsp/\libhal_bsp.a(alt_exception_entry.o)
 .data          0x0000000008038c54        0x0 ../Hello_bsp/\libhal_bsp.a(alt_find_dev.o)
 .data          0x0000000008038c54        0x0 ../Hello_bsp/\libhal_bsp.a(alt_find_file.o)
 .data          0x0000000008038c54        0x0 ../Hello_bsp/\libhal_bsp.a(alt_get_fd.o)
 .data          0x0000000008038c54        0x0 ../Hello_bsp/\libhal_bsp.a(alt_icache_flush.o)
 .data          0x0000000008038c54        0x0 ../Hello_bsp/\libhal_bsp.a(alt_instruction_exception_entry.o)
 .data          0x0000000008038c54        0x0 ../Hello_bsp//newlib/nios2-elf/lib\libc.a(lib_a-exit.o)
 .data          0x0000000008038c54        0x0 ../Hello_bsp//newlib/nios2-elf/lib\libc.a(lib_a-memcmp.o)
 .data          0x0000000008038c54        0x0 ../Hello_bsp//newlib/nios2-elf/lib\libc.a(lib_a-__call_atexit.o)
 .data          0x0000000008038c54        0x0 ../Hello_bsp/\libhal_bsp.a(alt_exit.o)
                0x0000000008040c54                _gp = ABSOLUTE ((. + 0x8000))
                [!provide]                        PROVIDE (gp, _gp)
 *(.rwdata .rwdata.*)
 *(.sdata .sdata.* .gnu.linkonce.s.*)
 .sdata         0x0000000008038c54        0x1 obj/default/src/gppcu.o
                0x0000000008038c54                REGPIVOT
 *fill*         0x0000000008038c55        0x3 
 .sdata.huge    0x0000000008038c58        0x4 ../Hello_bsp//newlib/nios2-elf/lib\libm.a(lib_a-sf_ceil.o)
 .sdata.one     0x0000000008038c5c        0x4 ../Hello_bsp//newlib/nios2-elf/lib\libm.a(lib_a-sf_cos.o)
 .sdata.huge    0x0000000008038c60        0x4 ../Hello_bsp//newlib/nios2-elf/lib\libm.a(lib_a-sf_floor.o)
 .sdata.one     0x0000000008038c64        0x4 ../Hello_bsp//newlib/nios2-elf/lib\libm.a(lib_a-ef_acos.o)
 .sdata.pi      0x0000000008038c68        0x4 ../Hello_bsp//newlib/nios2-elf/lib\libm.a(lib_a-ef_acos.o)
 .sdata.pio2_hi
                0x0000000008038c6c        0x4 ../Hello_bsp//newlib/nios2-elf/lib\libm.a(lib_a-ef_acos.o)
 .sdata.pio2_lo
                0x0000000008038c70        0x4 ../Hello_bsp//newlib/nios2-elf/lib\libm.a(lib_a-ef_acos.o)
 .sdata.pS0     0x0000000008038c74        0x4 ../Hello_bsp//newlib/nios2-elf/lib\libm.a(lib_a-ef_acos.o)
 .sdata.pS1     0x0000000008038c78        0x4 ../Hello_bsp//newlib/nios2-elf/lib\libm.a(lib_a-ef_acos.o)
 .sdata.pS2     0x0000000008038c7c        0x4 ../Hello_bsp//newlib/nios2-elf/lib\libm.a(lib_a-ef_acos.o)
 .sdata.pS3     0x0000000008038c80        0x4 ../Hello_bsp//newlib/nios2-elf/lib\libm.a(lib_a-ef_acos.o)
 .sdata.pS4     0x0000000008038c84        0x4 ../Hello_bsp//newlib/nios2-elf/lib\libm.a(lib_a-ef_acos.o)
 .sdata.pS5     0x0000000008038c88        0x4 ../Hello_bsp//newlib/nios2-elf/lib\libm.a(lib_a-ef_acos.o)
 .sdata.qS1     0x0000000008038c8c        0x4 ../Hello_bsp//newlib/nios2-elf/lib\libm.a(lib_a-ef_acos.o)
 .sdata.qS2     0x0000000008038c90        0x4 ../Hello_bsp//newlib/nios2-elf/lib\libm.a(lib_a-ef_acos.o)
 .sdata.qS3     0x0000000008038c94        0x4 ../Hello_bsp//newlib/nios2-elf/lib\libm.a(lib_a-ef_acos.o)
 .sdata.qS4     0x0000000008038c98        0x4 ../Hello_bsp//newlib/nios2-elf/lib\libm.a(lib_a-ef_acos.o)
 .sdata.tiny    0x0000000008038c9c        0x4 ../Hello_bsp//newlib/nios2-elf/lib\libm.a(lib_a-ef_atan2.o)
 .sdata.zero    0x0000000008038ca0        0x4 ../Hello_bsp//newlib/nios2-elf/lib\libm.a(lib_a-ef_atan2.o)
 .sdata.pi_o_4  0x0000000008038ca4        0x4 ../Hello_bsp//newlib/nios2-elf/lib\libm.a(lib_a-ef_atan2.o)
 .sdata.pi_o_2  0x0000000008038ca8        0x4 ../Hello_bsp//newlib/nios2-elf/lib\libm.a(lib_a-ef_atan2.o)
 .sdata.pi      0x0000000008038cac        0x4 ../Hello_bsp//newlib/nios2-elf/lib\libm.a(lib_a-ef_atan2.o)
 .sdata.pi_lo   0x0000000008038cb0        0x4 ../Hello_bsp//newlib/nios2-elf/lib\libm.a(lib_a-ef_atan2.o)
 .sdata.bp      0x0000000008038cb4        0x8 ../Hello_bsp//newlib/nios2-elf/lib\libm.a(lib_a-ef_pow.o)
 .sdata.dp_h    0x0000000008038cbc        0x8 ../Hello_bsp//newlib/nios2-elf/lib\libm.a(lib_a-ef_pow.o)
 .sdata.dp_l    0x0000000008038cc4        0x8 ../Hello_bsp//newlib/nios2-elf/lib\libm.a(lib_a-ef_pow.o)
 .sdata.zero    0x0000000008038ccc        0x4 ../Hello_bsp//newlib/nios2-elf/lib\libm.a(lib_a-ef_pow.o)
 .sdata.one     0x0000000008038cd0        0x4 ../Hello_bsp//newlib/nios2-elf/lib\libm.a(lib_a-ef_pow.o)
 .sdata.two     0x0000000008038cd4        0x4 ../Hello_bsp//newlib/nios2-elf/lib\libm.a(lib_a-ef_pow.o)
 .sdata.two24   0x0000000008038cd8        0x4 ../Hello_bsp//newlib/nios2-elf/lib\libm.a(lib_a-ef_pow.o)
 .sdata.huge    0x0000000008038cdc        0x4 ../Hello_bsp//newlib/nios2-elf/lib\libm.a(lib_a-ef_pow.o)
 .sdata.tiny    0x0000000008038ce0        0x4 ../Hello_bsp//newlib/nios2-elf/lib\libm.a(lib_a-ef_pow.o)
 .sdata.L1      0x0000000008038ce4        0x4 ../Hello_bsp//newlib/nios2-elf/lib\libm.a(lib_a-ef_pow.o)
 .sdata.L2      0x0000000008038ce8        0x4 ../Hello_bsp//newlib/nios2-elf/lib\libm.a(lib_a-ef_pow.o)
 .sdata.L3      0x0000000008038cec        0x4 ../Hello_bsp//newlib/nios2-elf/lib\libm.a(lib_a-ef_pow.o)
 .sdata.L4      0x0000000008038cf0        0x4 ../Hello_bsp//newlib/nios2-elf/lib\libm.a(lib_a-ef_pow.o)
 .sdata.L5      0x0000000008038cf4        0x4 ../Hello_bsp//newlib/nios2-elf/lib\libm.a(lib_a-ef_pow.o)
 .sdata.L6      0x0000000008038cf8        0x4 ../Hello_bsp//newlib/nios2-elf/lib\libm.a(lib_a-ef_pow.o)
 .sdata.P1      0x0000000008038cfc        0x4 ../Hello_bsp//newlib/nios2-elf/lib\libm.a(lib_a-ef_pow.o)
 .sdata.P2      0x0000000008038d00        0x4 ../Hello_bsp//newlib/nios2-elf/lib\libm.a(lib_a-ef_pow.o)
 .sdata.P3      0x0000000008038d04        0x4 ../Hello_bsp//newlib/nios2-elf/lib\libm.a(lib_a-ef_pow.o)
 .sdata.P4      0x0000000008038d08        0x4 ../Hello_bsp//newlib/nios2-elf/lib\libm.a(lib_a-ef_pow.o)
 .sdata.P5      0x0000000008038d0c        0x4 ../Hello_bsp//newlib/nios2-elf/lib\libm.a(lib_a-ef_pow.o)
 .sdata.lg2     0x0000000008038d10        0x4 ../Hello_bsp//newlib/nios2-elf/lib\libm.a(lib_a-ef_pow.o)
 .sdata.lg2_h   0x0000000008038d14        0x4 ../Hello_bsp//newlib/nios2-elf/lib\libm.a(lib_a-ef_pow.o)
 .sdata.lg2_l   0x0000000008038d18        0x4 ../Hello_bsp//newlib/nios2-elf/lib\libm.a(lib_a-ef_pow.o)
 .sdata.ovt     0x0000000008038d1c        0x4 ../Hello_bsp//newlib/nios2-elf/lib\libm.a(lib_a-ef_pow.o)
 .sdata.cp      0x0000000008038d20        0x4 ../Hello_bsp//newlib/nios2-elf/lib\libm.a(lib_a-ef_pow.o)
 .sdata.cp_h    0x0000000008038d24        0x4 ../Hello_bsp//newlib/nios2-elf/lib\libm.a(lib_a-ef_pow.o)
 .sdata.cp_l    0x0000000008038d28        0x4 ../Hello_bsp//newlib/nios2-elf/lib\libm.a(lib_a-ef_pow.o)
 .sdata.ivln2   0x0000000008038d2c        0x4 ../Hello_bsp//newlib/nios2-elf/lib\libm.a(lib_a-ef_pow.o)
 .sdata.ivln2_h
                0x0000000008038d30        0x4 ../Hello_bsp//newlib/nios2-elf/lib\libm.a(lib_a-ef_pow.o)
 .sdata.ivln2_l
                0x0000000008038d34        0x4 ../Hello_bsp//newlib/nios2-elf/lib\libm.a(lib_a-ef_pow.o)
 .sdata.zero    0x0000000008038d38        0x4 ../Hello_bsp//newlib/nios2-elf/lib\libm.a(lib_a-ef_rem_pio2.o)
 .sdata.half    0x0000000008038d3c        0x4 ../Hello_bsp//newlib/nios2-elf/lib\libm.a(lib_a-ef_rem_pio2.o)
 .sdata.two8    0x0000000008038d40        0x4 ../Hello_bsp//newlib/nios2-elf/lib\libm.a(lib_a-ef_rem_pio2.o)
 .sdata.invpio2
                0x0000000008038d44        0x4 ../Hello_bsp//newlib/nios2-elf/lib\libm.a(lib_a-ef_rem_pio2.o)
 .sdata.pio2_1  0x0000000008038d48        0x4 ../Hello_bsp//newlib/nios2-elf/lib\libm.a(lib_a-ef_rem_pio2.o)
 .sdata.pio2_1t
                0x0000000008038d4c        0x4 ../Hello_bsp//newlib/nios2-elf/lib\libm.a(lib_a-ef_rem_pio2.o)
 .sdata.pio2_2  0x0000000008038d50        0x4 ../Hello_bsp//newlib/nios2-elf/lib\libm.a(lib_a-ef_rem_pio2.o)
 .sdata.pio2_2t
                0x0000000008038d54        0x4 ../Hello_bsp//newlib/nios2-elf/lib\libm.a(lib_a-ef_rem_pio2.o)
 .sdata.pio2_3  0x0000000008038d58        0x4 ../Hello_bsp//newlib/nios2-elf/lib\libm.a(lib_a-ef_rem_pio2.o)
 .sdata.pio2_3t
                0x0000000008038d5c        0x4 ../Hello_bsp//newlib/nios2-elf/lib\libm.a(lib_a-ef_rem_pio2.o)
 .sdata.one     0x0000000008038d60        0x4 ../Hello_bsp//newlib/nios2-elf/lib\libm.a(lib_a-ef_sqrt.o)
 .sdata.tiny    0x0000000008038d64        0x4 ../Hello_bsp//newlib/nios2-elf/lib\libm.a(lib_a-ef_sqrt.o)
 .sdata.one     0x0000000008038d68        0x4 ../Hello_bsp//newlib/nios2-elf/lib\libm.a(lib_a-kf_cos.o)
 .sdata.C1      0x0000000008038d6c        0x4 ../Hello_bsp//newlib/nios2-elf/lib\libm.a(lib_a-kf_cos.o)
 .sdata.C2      0x0000000008038d70        0x4 ../Hello_bsp//newlib/nios2-elf/lib\libm.a(lib_a-kf_cos.o)
 .sdata.C3      0x0000000008038d74        0x4 ../Hello_bsp//newlib/nios2-elf/lib\libm.a(lib_a-kf_cos.o)
 .sdata.C4      0x0000000008038d78        0x4 ../Hello_bsp//newlib/nios2-elf/lib\libm.a(lib_a-kf_cos.o)
 .sdata.C5      0x0000000008038d7c        0x4 ../Hello_bsp//newlib/nios2-elf/lib\libm.a(lib_a-kf_cos.o)
 .sdata.C6      0x0000000008038d80        0x4 ../Hello_bsp//newlib/nios2-elf/lib\libm.a(lib_a-kf_cos.o)
 .sdata.zero    0x0000000008038d84        0x4 ../Hello_bsp//newlib/nios2-elf/lib\libm.a(lib_a-kf_rem_pio2.o)
 .sdata.one     0x0000000008038d88        0x4 ../Hello_bsp//newlib/nios2-elf/lib\libm.a(lib_a-kf_rem_pio2.o)
 .sdata.two8    0x0000000008038d8c        0x4 ../Hello_bsp//newlib/nios2-elf/lib\libm.a(lib_a-kf_rem_pio2.o)
 .sdata.twon8   0x0000000008038d90        0x4 ../Hello_bsp//newlib/nios2-elf/lib\libm.a(lib_a-kf_rem_pio2.o)
 .sdata.half    0x0000000008038d94        0x4 ../Hello_bsp//newlib/nios2-elf/lib\libm.a(lib_a-kf_sin.o)
 .sdata.S1      0x0000000008038d98        0x4 ../Hello_bsp//newlib/nios2-elf/lib\libm.a(lib_a-kf_sin.o)
 .sdata.S2      0x0000000008038d9c        0x4 ../Hello_bsp//newlib/nios2-elf/lib\libm.a(lib_a-kf_sin.o)
 .sdata.S3      0x0000000008038da0        0x4 ../Hello_bsp//newlib/nios2-elf/lib\libm.a(lib_a-kf_sin.o)
 .sdata.S4      0x0000000008038da4        0x4 ../Hello_bsp//newlib/nios2-elf/lib\libm.a(lib_a-kf_sin.o)
 .sdata.S5      0x0000000008038da8        0x4 ../Hello_bsp//newlib/nios2-elf/lib\libm.a(lib_a-kf_sin.o)
 .sdata.S6      0x0000000008038dac        0x4 ../Hello_bsp//newlib/nios2-elf/lib\libm.a(lib_a-kf_sin.o)
 .sdata.one     0x0000000008038db0        0x4 ../Hello_bsp//newlib/nios2-elf/lib\libm.a(lib_a-kf_tan.o)
 .sdata.pio4    0x0000000008038db4        0x4 ../Hello_bsp//newlib/nios2-elf/lib\libm.a(lib_a-kf_tan.o)
 .sdata.pio4lo  0x0000000008038db8        0x4 ../Hello_bsp//newlib/nios2-elf/lib\libm.a(lib_a-kf_tan.o)
 .sdata.__fdlib_version
                0x0000000008038dbc        0x4 ../Hello_bsp//newlib/nios2-elf/lib\libm.a(lib_a-s_lib_ver.o)
                0x0000000008038dbc                __fdlib_version
 .sdata.one     0x0000000008038dc0        0x4 ../Hello_bsp//newlib/nios2-elf/lib\libm.a(lib_a-sf_atan.o)
 .sdata.huge    0x0000000008038dc4        0x4 ../Hello_bsp//newlib/nios2-elf/lib\libm.a(lib_a-sf_atan.o)
 .sdata.two25   0x0000000008038dc8        0x4 ../Hello_bsp//newlib/nios2-elf/lib\libm.a(lib_a-sf_scalbn.o)
 .sdata.twom25  0x0000000008038dcc        0x4 ../Hello_bsp//newlib/nios2-elf/lib\libm.a(lib_a-sf_scalbn.o)
 .sdata.huge    0x0000000008038dd0        0x4 ../Hello_bsp//newlib/nios2-elf/lib\libm.a(lib_a-sf_scalbn.o)
 .sdata.tiny    0x0000000008038dd4        0x4 ../Hello_bsp//newlib/nios2-elf/lib\libm.a(lib_a-sf_scalbn.o)
 .sdata._impure_ptr
                0x0000000008038dd8        0x4 ../Hello_bsp//newlib/nios2-elf/lib\libc.a(lib_a-impure.o)
                0x0000000008038dd8                _impure_ptr
 .sdata._global_impure_ptr
                0x0000000008038ddc        0x4 ../Hello_bsp//newlib/nios2-elf/lib\libc.a(lib_a-impure.o)
                0x0000000008038ddc                _global_impure_ptr
 .sdata.__malloc_trim_threshold
                0x0000000008038de0        0x4 ../Hello_bsp//newlib/nios2-elf/lib\libc.a(lib_a-mallocr.o)
                0x0000000008038de0                __malloc_trim_threshold
 .sdata.__malloc_sbrk_base
                0x0000000008038de4        0x4 ../Hello_bsp//newlib/nios2-elf/lib\libc.a(lib_a-mallocr.o)
                0x0000000008038de4                __malloc_sbrk_base
 .sdata.__mb_cur_max
                0x0000000008038de8        0x4 ../Hello_bsp//newlib/nios2-elf/lib\libc.a(lib_a-locale.o)
                0x0000000008038de8                __mb_cur_max
 .sdata.__wctomb
                0x0000000008038dec        0x4 ../Hello_bsp//newlib/nios2-elf/lib\libc.a(lib_a-wctomb_r.o)
                0x0000000008038dec                __wctomb
 .sdata         0x0000000008038df0       0x14 ../Hello_bsp/\libhal_bsp.a(alt_dev.o)
                0x0000000008038df0                alt_fs_list
                0x0000000008038df8                alt_dev_list
                0x0000000008038e00                alt_max_fd
 .sdata         0x0000000008038e04        0x4 ../Hello_bsp/\libhal_bsp.a(alt_errno.o)
                0x0000000008038e04                alt_errno
 .sdata         0x0000000008038e08        0x4 ../Hello_bsp/\libhal_bsp.a(alt_sbrk.o)
 .sdata         0x0000000008038e0c        0x4 ../Hello_bsp/\libhal_bsp.a(alt_irq_vars.o)
                0x0000000008038e0c                alt_priority_mask
 .sdata         0x0000000008038e10        0x8 ../Hello_bsp/\libhal_bsp.a(alt_tick.o)
                0x0000000008038e10                alt_alarm_list
 *(.sdata2 .sdata2.* .gnu.linkonce.s2.*)
                0x0000000008038e18                . = ALIGN (0x4)
                0x0000000008038e18                _edata = ABSOLUTE (.)
                [!provide]                        PROVIDE (edata, ABSOLUTE (.))
                0x0000000008038e18                PROVIDE (__ram_rwdata_end, ABSOLUTE (.))
                0x0000000008038e18                PROVIDE (__flash_rwdata_start, LOADADDR (.rwdata))

.bss            0x000000000803aa88      0x170
                0x000000000803aa88                __bss_start = ABSOLUTE (.)
                [!provide]                        PROVIDE (__sbss_start, ABSOLUTE (.))
                [!provide]                        PROVIDE (___sbss_start, ABSOLUTE (.))
 *(.dynsbss)
 *(.sbss .sbss.* .gnu.linkonce.sb.*)
 .sbss.__malloc_top_pad
                0x000000000803aa88        0x4 ../Hello_bsp//newlib/nios2-elf/lib\libc.a(lib_a-mallocr.o)
                0x000000000803aa88                __malloc_top_pad
 .sbss.__malloc_max_sbrked_mem
                0x000000000803aa8c        0x4 ../Hello_bsp//newlib/nios2-elf/lib\libc.a(lib_a-mallocr.o)
                0x000000000803aa8c                __malloc_max_sbrked_mem
 .sbss.__malloc_max_total_mem
                0x000000000803aa90        0x4 ../Hello_bsp//newlib/nios2-elf/lib\libc.a(lib_a-mallocr.o)
                0x000000000803aa90                __malloc_max_total_mem
 .sbss.__sfp_lock
                0x000000000803aa94        0x4 ../Hello_bsp//newlib/nios2-elf/lib\libc.a(lib_a-findfp.o)
 .sbss.__sinit_lock
                0x000000000803aa98        0x4 ../Hello_bsp//newlib/nios2-elf/lib\libc.a(lib_a-findfp.o)
 .sbss          0x000000000803aa9c        0x4 ../Hello_bsp//newlib/nios2-elf/lib\libc.a(lib_a-int_errno.o)
                0x000000000803aa9c                errno
 .sbss.__nlocale_changed
                0x000000000803aaa0        0x4 ../Hello_bsp//newlib/nios2-elf/lib\libc.a(lib_a-locale.o)
                0x000000000803aaa0                __nlocale_changed
 .sbss.__mlocale_changed
                0x000000000803aaa4        0x4 ../Hello_bsp//newlib/nios2-elf/lib\libc.a(lib_a-locale.o)
                0x000000000803aaa4                __mlocale_changed
 .sbss._PathLocale
                0x000000000803aaa8        0x4 ../Hello_bsp//newlib/nios2-elf/lib\libc.a(lib_a-locale.o)
                0x000000000803aaa8                _PathLocale
 .sbss.lc_ctype_cjk_lang
                0x000000000803aaac        0x4 ../Hello_bsp//newlib/nios2-elf/lib\libc.a(lib_a-locale.o)
 .sbss          0x000000000803aab0        0xc ../Hello_bsp/\libhal_bsp.a(alt_main.o)
                0x000000000803aab0                alt_argc
                0x000000000803aab4                alt_argv
                0x000000000803aab8                alt_envp
 .sbss          0x000000000803aabc        0x4 ../Hello_bsp/\libhal_bsp.a(alt_irq_vars.o)
                0x000000000803aabc                alt_irq_active
 .sbss          0x000000000803aac0        0x8 ../Hello_bsp/\libhal_bsp.a(alt_tick.o)
                0x000000000803aac0                _alt_tick_rate
                0x000000000803aac4                _alt_nticks
 .sbss          0x000000000803aac8        0x4 ../Hello_bsp/\libhal_bsp.a(alt_instruction_exception_entry.o)
                0x000000000803aac8                alt_instruction_exception_handler
 .sbss.__atexit_lock
                0x000000000803aacc        0x4 ../Hello_bsp//newlib/nios2-elf/lib\libc.a(lib_a-__call_atexit.o)
 *(.sbss2 .sbss2.* .gnu.linkonce.sb2.*)
 *(.scommon)
                [!provide]                        PROVIDE (__sbss_end, ABSOLUTE (.))
                [!provide]                        PROVIDE (___sbss_end, ABSOLUTE (.))
 *(.dynbss)
 *(.bss .bss.* .gnu.linkonce.b.*)
 .bss           0x000000000803aad0        0x0 ../Hello_bsp//obj/HAL/src/crt0.o
 .bss           0x000000000803aad0        0x0 obj/default/src/app.o
 .bss           0x000000000803aad0        0x0 obj/default/src/gppcu.o
 .bss           0x000000000803aad0        0x0 obj/default/src/main.o
 .bss           0x000000000803aad0        0x0 obj/default/src/mathc.o
 .bss           0x000000000803aad0        0x0 obj/default/src/utils.o
 .bss           0x000000000803aad0        0x0 ../Hello_bsp//newlib/nios2-elf/lib\libm.a(lib_a-sf_ceil.o)
 .bss           0x000000000803aad0        0x0 ../Hello_bsp//newlib/nios2-elf/lib\libm.a(lib_a-sf_cos.o)
 .bss           0x000000000803aad0        0x0 ../Hello_bsp//newlib/nios2-elf/lib\libm.a(lib_a-sf_floor.o)
 .bss           0x000000000803aad0        0x0 ../Hello_bsp//newlib/nios2-elf/lib\libm.a(lib_a-sf_fmax.o)
 .bss           0x000000000803aad0        0x0 ../Hello_bsp//newlib/nios2-elf/lib\libm.a(lib_a-sf_fmin.o)
 .bss           0x000000000803aad0        0x0 ../Hello_bsp//newlib/nios2-elf/lib\libm.a(lib_a-sf_fpclassify.o)
 .bss           0x000000000803aad0        0x0 ../Hello_bsp//newlib/nios2-elf/lib\libm.a(lib_a-sf_round.o)
 .bss           0x000000000803aad0        0x0 ../Hello_bsp//newlib/nios2-elf/lib\libm.a(lib_a-sf_sin.o)
 .bss           0x000000000803aad0        0x0 ../Hello_bsp//newlib/nios2-elf/lib\libm.a(lib_a-sf_tan.o)
 .bss           0x000000000803aad0        0x0 ../Hello_bsp//newlib/nios2-elf/lib\libm.a(lib_a-wf_acos.o)
 .bss           0x000000000803aad0        0x0 ../Hello_bsp//newlib/nios2-elf/lib\libm.a(lib_a-wf_atan2.o)
 .bss           0x000000000803aad0        0x0 ../Hello_bsp//newlib/nios2-elf/lib\libm.a(lib_a-wf_pow.o)
 .bss           0x000000000803aad0        0x0 ../Hello_bsp//newlib/nios2-elf/lib\libm.a(lib_a-wf_sqrt.o)
 .bss           0x000000000803aad0        0x0 ../Hello_bsp//newlib/nios2-elf/lib\libm.a(lib_a-ef_acos.o)
 .bss           0x000000000803aad0        0x0 ../Hello_bsp//newlib/nios2-elf/lib\libm.a(lib_a-ef_atan2.o)
 .bss           0x000000000803aad0        0x0 ../Hello_bsp//newlib/nios2-elf/lib\libm.a(lib_a-ef_pow.o)
 .bss           0x000000000803aad0        0x0 ../Hello_bsp//newlib/nios2-elf/lib\libm.a(lib_a-ef_rem_pio2.o)
 .bss           0x000000000803aad0        0x0 ../Hello_bsp//newlib/nios2-elf/lib\libm.a(lib_a-ef_sqrt.o)
 .bss           0x000000000803aad0        0x0 ../Hello_bsp//newlib/nios2-elf/lib\libm.a(lib_a-kf_cos.o)
 .bss           0x000000000803aad0        0x0 ../Hello_bsp//newlib/nios2-elf/lib\libm.a(lib_a-kf_rem_pio2.o)
 .bss           0x000000000803aad0        0x0 ../Hello_bsp//newlib/nios2-elf/lib\libm.a(lib_a-kf_sin.o)
 .bss           0x000000000803aad0        0x0 ../Hello_bsp//newlib/nios2-elf/lib\libm.a(lib_a-kf_tan.o)
 .bss           0x000000000803aad0        0x0 ../Hello_bsp//newlib/nios2-elf/lib\libm.a(lib_a-s_lib_ver.o)
 .bss           0x000000000803aad0        0x0 ../Hello_bsp//newlib/nios2-elf/lib\libm.a(lib_a-s_matherr.o)
 .bss           0x000000000803aad0        0x0 ../Hello_bsp//newlib/nios2-elf/lib\libm.a(lib_a-s_nan.o)
 .bss           0x000000000803aad0        0x0 ../Hello_bsp//newlib/nios2-elf/lib\libm.a(lib_a-s_rint.o)
 .bss           0x000000000803aad0        0x0 ../Hello_bsp//newlib/nios2-elf/lib\libm.a(lib_a-sf_atan.o)
 .bss           0x000000000803aad0        0x0 ../Hello_bsp//newlib/nios2-elf/lib\libm.a(lib_a-sf_fabs.o)
 .bss           0x000000000803aad0        0x0 ../Hello_bsp//newlib/nios2-elf/lib\libm.a(lib_a-sf_finite.o)
 .bss           0x000000000803aad0        0x0 ../Hello_bsp//newlib/nios2-elf/lib\libm.a(lib_a-sf_nan.o)
 .bss           0x000000000803aad0        0x0 ../Hello_bsp//newlib/nios2-elf/lib\libm.a(lib_a-sf_scalbn.o)
 .bss           0x000000000803aad0        0x0 ../Hello_bsp//newlib/nios2-elf/lib\libm.a(lib_a-sf_copysign.o)
 .bss           0x000000000803aad0        0x0 d:/intelfpga_lite/18.0/nios2eds/bin/gnu/h-x86_64-mingw32/bin/../lib/gcc/nios2-elf/5.3.0\libgcc.a(lib2-divmod.o)
 .bss           0x000000000803aad0        0x0 d:/intelfpga_lite/18.0/nios2eds/bin/gnu/h-x86_64-mingw32/bin/../lib/gcc/nios2-elf/5.3.0\libgcc.a(adddf3.o)
 .bss           0x000000000803aad0        0x0 d:/intelfpga_lite/18.0/nios2eds/bin/gnu/h-x86_64-mingw32/bin/../lib/gcc/nios2-elf/5.3.0\libgcc.a(divdf3.o)
 .bss           0x000000000803aad0        0x0 d:/intelfpga_lite/18.0/nios2eds/bin/gnu/h-x86_64-mingw32/bin/../lib/gcc/nios2-elf/5.3.0\libgcc.a(eqdf2.o)
 .bss           0x000000000803aad0        0x0 d:/intelfpga_lite/18.0/nios2eds/bin/gnu/h-x86_64-mingw32/bin/../lib/gcc/nios2-elf/5.3.0\libgcc.a(subdf3.o)
 .bss           0x000000000803aad0        0x0 d:/intelfpga_lite/18.0/nios2eds/bin/gnu/h-x86_64-mingw32/bin/../lib/gcc/nios2-elf/5.3.0\libgcc.a(extendsfdf2.o)
 .bss           0x000000000803aad0        0x0 d:/intelfpga_lite/18.0/nios2eds/bin/gnu/h-x86_64-mingw32/bin/../lib/gcc/nios2-elf/5.3.0\libgcc.a(truncdfsf2.o)
 .bss           0x000000000803aad0        0x0 d:/intelfpga_lite/18.0/nios2eds/bin/gnu/h-x86_64-mingw32/bin/../lib/gcc/nios2-elf/5.3.0\libgcc.a(_clzsi2.o)
 .bss           0x000000000803aad0        0x0 d:/intelfpga_lite/18.0/nios2eds/bin/gnu/h-x86_64-mingw32/bin/../lib/gcc/nios2-elf/5.3.0\libgcc.a(_clz.o)
 .bss           0x000000000803aad0        0x0 ../Hello_bsp//newlib/nios2-elf/lib\libc.a(lib_a-errno.o)
 .bss           0x000000000803aad0        0x0 ../Hello_bsp//newlib/nios2-elf/lib\libc.a(lib_a-impure.o)
 .bss           0x000000000803aad0        0x0 ../Hello_bsp//newlib/nios2-elf/lib\libc.a(lib_a-malloc.o)
 .bss           0x000000000803aad0        0x0 ../Hello_bsp//newlib/nios2-elf/lib\libc.a(lib_a-mallocr.o)
 .bss.__malloc_current_mallinfo
                0x000000000803aad0       0x28 ../Hello_bsp//newlib/nios2-elf/lib\libc.a(lib_a-mallocr.o)
                0x000000000803aad0                __malloc_current_mallinfo
 .bss           0x000000000803aaf8        0x0 ../Hello_bsp//newlib/nios2-elf/lib\libc.a(lib_a-memcpy.o)
 .bss           0x000000000803aaf8        0x0 ../Hello_bsp//newlib/nios2-elf/lib\libc.a(lib_a-memset.o)
 .bss           0x000000000803aaf8        0x0 ../Hello_bsp//newlib/nios2-elf/lib\libc.a(lib_a-printf.o)
 .bss           0x000000000803aaf8        0x0 ../Hello_bsp//newlib/nios2-elf/lib\libc.a(lib_a-putchar.o)
 .bss           0x000000000803aaf8        0x0 ../Hello_bsp//newlib/nios2-elf/lib\libc.a(lib_a-puts.o)
 .bss           0x000000000803aaf8        0x0 ../Hello_bsp//newlib/nios2-elf/lib\libc.a(lib_a-rand.o)
 .bss           0x000000000803aaf8        0x0 ../Hello_bsp//newlib/nios2-elf/lib\libc.a(lib_a-sbrkr.o)
 .bss           0x000000000803aaf8        0x0 ../Hello_bsp//newlib/nios2-elf/lib\libc.a(lib_a-strlen.o)
 .bss           0x000000000803aaf8        0x0 ../Hello_bsp//newlib/nios2-elf/lib\libc.a(lib_a-vfprintf.o)
 .bss           0x000000000803aaf8        0x0 ../Hello_bsp//newlib/nios2-elf/lib\libc.a(lib_a-wsetup.o)
 .bss           0x000000000803aaf8        0x0 ../Hello_bsp//newlib/nios2-elf/lib\libc.a(lib_a-dtoa.o)
 .bss           0x000000000803aaf8        0x0 ../Hello_bsp//newlib/nios2-elf/lib\libc.a(lib_a-fflush.o)
 .bss           0x000000000803aaf8        0x0 ../Hello_bsp//newlib/nios2-elf/lib\libc.a(lib_a-findfp.o)
 .bss           0x000000000803aaf8        0x0 ../Hello_bsp//newlib/nios2-elf/lib\libc.a(lib_a-freer.o)
 .bss           0x000000000803aaf8        0x0 ../Hello_bsp//newlib/nios2-elf/lib\libc.a(lib_a-fvwrite.o)
 .bss           0x000000000803aaf8        0x0 ../Hello_bsp//newlib/nios2-elf/lib\libc.a(lib_a-fwalk.o)
 .bss           0x000000000803aaf8        0x0 ../Hello_bsp//newlib/nios2-elf/lib\libc.a(lib_a-int_errno.o)
 .bss           0x000000000803aaf8        0x0 ../Hello_bsp//newlib/nios2-elf/lib\libc.a(lib_a-locale.o)
 .bss           0x000000000803aaf8        0x0 ../Hello_bsp//newlib/nios2-elf/lib\libc.a(lib_a-makebuf.o)
 .bss           0x000000000803aaf8        0x0 ../Hello_bsp//newlib/nios2-elf/lib\libc.a(lib_a-memchr.o)
 .bss           0x000000000803aaf8        0x0 ../Hello_bsp//newlib/nios2-elf/lib\libc.a(lib_a-memmove.o)
 .bss           0x000000000803aaf8        0x0 ../Hello_bsp//newlib/nios2-elf/lib\libc.a(lib_a-mprec.o)
 .bss           0x000000000803aaf8        0x0 ../Hello_bsp//newlib/nios2-elf/lib\libc.a(lib_a-putc.o)
 .bss           0x000000000803aaf8        0x0 ../Hello_bsp//newlib/nios2-elf/lib\libc.a(lib_a-reallocr.o)
 .bss           0x000000000803aaf8        0x0 ../Hello_bsp//newlib/nios2-elf/lib\libc.a(lib_a-s_fpclassify.o)
 .bss           0x000000000803aaf8        0x0 ../Hello_bsp//newlib/nios2-elf/lib\libc.a(lib_a-stdio.o)
 .bss           0x000000000803aaf8        0x0 ../Hello_bsp//newlib/nios2-elf/lib\libc.a(lib_a-strcmp.o)
 .bss           0x000000000803aaf8        0x0 ../Hello_bsp//newlib/nios2-elf/lib\libc.a(lib_a-vfiprintf.o)
 .bss           0x000000000803aaf8        0x0 ../Hello_bsp//newlib/nios2-elf/lib\libc.a(lib_a-wbuf.o)
 .bss           0x000000000803aaf8        0x0 ../Hello_bsp//newlib/nios2-elf/lib\libc.a(lib_a-writer.o)
 .bss           0x000000000803aaf8        0x0 ../Hello_bsp//newlib/nios2-elf/lib\libc.a(closer.o)
 .bss           0x000000000803aaf8        0x0 ../Hello_bsp//newlib/nios2-elf/lib\libc.a(lib_a-callocr.o)
 .bss           0x000000000803aaf8        0x0 ../Hello_bsp//newlib/nios2-elf/lib\libc.a(lib_a-fclose.o)
 .bss           0x000000000803aaf8        0x0 ../Hello_bsp//newlib/nios2-elf/lib\libc.a(lib_a-fputwc.o)
 .bss           0x000000000803aaf8        0x0 ../Hello_bsp//newlib/nios2-elf/lib\libc.a(lib_a-fstatr.o)
 .bss           0x000000000803aaf8        0x0 ../Hello_bsp//newlib/nios2-elf/lib\libc.a(lib_a-isattyr.o)
 .bss           0x000000000803aaf8        0x0 ../Hello_bsp//newlib/nios2-elf/lib\libc.a(lib_a-lseekr.o)
 .bss           0x000000000803aaf8        0x0 ../Hello_bsp//newlib/nios2-elf/lib\libc.a(lib_a-readr.o)
 .bss           0x000000000803aaf8        0x0 ../Hello_bsp//newlib/nios2-elf/lib\libc.a(lib_a-wcrtomb.o)
 .bss           0x000000000803aaf8        0x0 ../Hello_bsp//newlib/nios2-elf/lib\libc.a(lib_a-wctomb_r.o)
 .bss           0x000000000803aaf8        0x0 d:/intelfpga_lite/18.0/nios2eds/bin/gnu/h-x86_64-mingw32/bin/../lib/gcc/nios2-elf/5.3.0\libgcc.a(_muldi3.o)
 .bss           0x000000000803aaf8        0x0 d:/intelfpga_lite/18.0/nios2eds/bin/gnu/h-x86_64-mingw32/bin/../lib/gcc/nios2-elf/5.3.0\libgcc.a(_udivdi3.o)
 .bss           0x000000000803aaf8        0x0 d:/intelfpga_lite/18.0/nios2eds/bin/gnu/h-x86_64-mingw32/bin/../lib/gcc/nios2-elf/5.3.0\libgcc.a(_umoddi3.o)
 .bss           0x000000000803aaf8        0x0 d:/intelfpga_lite/18.0/nios2eds/bin/gnu/h-x86_64-mingw32/bin/../lib/gcc/nios2-elf/5.3.0\libgcc.a(gedf2.o)
 .bss           0x000000000803aaf8        0x0 d:/intelfpga_lite/18.0/nios2eds/bin/gnu/h-x86_64-mingw32/bin/../lib/gcc/nios2-elf/5.3.0\libgcc.a(ledf2.o)
 .bss           0x000000000803aaf8        0x0 d:/intelfpga_lite/18.0/nios2eds/bin/gnu/h-x86_64-mingw32/bin/../lib/gcc/nios2-elf/5.3.0\libgcc.a(muldf3.o)
 .bss           0x000000000803aaf8        0x0 d:/intelfpga_lite/18.0/nios2eds/bin/gnu/h-x86_64-mingw32/bin/../lib/gcc/nios2-elf/5.3.0\libgcc.a(fixdfsi.o)
 .bss           0x000000000803aaf8        0x0 d:/intelfpga_lite/18.0/nios2eds/bin/gnu/h-x86_64-mingw32/bin/../lib/gcc/nios2-elf/5.3.0\libgcc.a(floatsidf.o)
 .bss           0x000000000803aaf8        0x0 d:/intelfpga_lite/18.0/nios2eds/bin/gnu/h-x86_64-mingw32/bin/../lib/gcc/nios2-elf/5.3.0\libgcc.a(floatunsidf.o)
 .bss           0x000000000803aaf8        0x0 ../Hello_bsp/\libhal_bsp.a(alt_close.o)
 .bss           0x000000000803aaf8        0x0 ../Hello_bsp/\libhal_bsp.a(alt_dev.o)
 .bss           0x000000000803aaf8        0x0 ../Hello_bsp/\libhal_bsp.a(alt_errno.o)
 .bss           0x000000000803aaf8        0x0 ../Hello_bsp/\libhal_bsp.a(alt_fstat.o)
 .bss           0x000000000803aaf8        0x0 ../Hello_bsp/\libhal_bsp.a(alt_isatty.o)
 .bss           0x000000000803aaf8        0x0 ../Hello_bsp/\libhal_bsp.a(alt_load.o)
 .bss           0x000000000803aaf8        0x0 ../Hello_bsp/\libhal_bsp.a(alt_lseek.o)
 .bss           0x000000000803aaf8        0x0 ../Hello_bsp/\libhal_bsp.a(alt_main.o)
 .bss           0x000000000803aaf8        0x0 ../Hello_bsp/\libhal_bsp.a(alt_malloc_lock.o)
 .bss           0x000000000803aaf8        0x0 ../Hello_bsp/\libhal_bsp.a(alt_read.o)
 .bss           0x000000000803aaf8        0x0 ../Hello_bsp/\libhal_bsp.a(alt_release_fd.o)
 .bss           0x000000000803aaf8        0x0 ../Hello_bsp/\libhal_bsp.a(alt_sbrk.o)
 .bss           0x000000000803aaf8        0x0 ../Hello_bsp/\libhal_bsp.a(alt_write.o)
 .bss           0x000000000803aaf8        0x0 ../Hello_bsp/\libhal_bsp.a(alt_sys_init.o)
 .bss           0x000000000803aaf8        0x0 ../Hello_bsp/\libhal_bsp.a(altera_avalon_jtag_uart_fd.o)
 .bss           0x000000000803aaf8        0x0 ../Hello_bsp/\libhal_bsp.a(altera_avalon_jtag_uart_init.o)
 .bss           0x000000000803aaf8        0x0 ../Hello_bsp/\libhal_bsp.a(altera_avalon_jtag_uart_ioctl.o)
 .bss           0x000000000803aaf8        0x0 ../Hello_bsp/\libhal_bsp.a(altera_avalon_jtag_uart_read.o)
 .bss           0x000000000803aaf8        0x0 ../Hello_bsp/\libhal_bsp.a(altera_avalon_jtag_uart_write.o)
 .bss           0x000000000803aaf8        0x0 ../Hello_bsp/\libhal_bsp.a(altera_avalon_timer_sc.o)
 .bss           0x000000000803aaf8        0x0 ../Hello_bsp/\libhal_bsp.a(alt_alarm_start.o)
 .bss           0x000000000803aaf8        0x0 ../Hello_bsp/\libhal_bsp.a(alt_dcache_flush_all.o)
 .bss           0x000000000803aaf8        0x0 ../Hello_bsp/\libhal_bsp.a(alt_dev_llist_insert.o)
 .bss           0x000000000803aaf8        0x0 ../Hello_bsp/\libhal_bsp.a(alt_icache_flush_all.o)
 .bss           0x000000000803aaf8        0x0 ../Hello_bsp/\libhal_bsp.a(alt_iic.o)
 .bss           0x000000000803aaf8        0x0 ../Hello_bsp/\libhal_bsp.a(alt_iic_isr_register.o)
 .bss           0x000000000803aaf8        0x0 ../Hello_bsp/\libhal_bsp.a(alt_io_redirect.o)
 .bss           0x000000000803aaf8        0x0 ../Hello_bsp/\libhal_bsp.a(alt_irq_entry.o)
 .bss           0x000000000803aaf8        0x0 ../Hello_bsp/\libhal_bsp.a(alt_irq_handler.o)
 .bss           0x000000000803aaf8        0x0 ../Hello_bsp/\libhal_bsp.a(alt_irq_vars.o)
 .bss           0x000000000803aaf8        0x0 ../Hello_bsp/\libhal_bsp.a(alt_open.o)
 .bss           0x000000000803aaf8        0x0 ../Hello_bsp/\libhal_bsp.a(alt_tick.o)
 .bss           0x000000000803aaf8        0x0 ../Hello_bsp/\libhal_bsp.a(altera_nios2_gen2_irq.o)
 .bss           0x000000000803aaf8        0x0 ../Hello_bsp/\libhal_bsp.a(alt_exception_entry.o)
 .bss           0x000000000803aaf8        0x0 ../Hello_bsp/\libhal_bsp.a(alt_find_dev.o)
 .bss           0x000000000803aaf8        0x0 ../Hello_bsp/\libhal_bsp.a(alt_find_file.o)
 .bss           0x000000000803aaf8        0x0 ../Hello_bsp/\libhal_bsp.a(alt_get_fd.o)
 .bss           0x000000000803aaf8        0x0 ../Hello_bsp/\libhal_bsp.a(alt_icache_flush.o)
 .bss           0x000000000803aaf8        0x0 ../Hello_bsp/\libhal_bsp.a(alt_instruction_exception_entry.o)
 .bss           0x000000000803aaf8        0x0 ../Hello_bsp//newlib/nios2-elf/lib\libc.a(lib_a-exit.o)
 .bss           0x000000000803aaf8        0x0 ../Hello_bsp//newlib/nios2-elf/lib\libc.a(lib_a-memcmp.o)
 .bss           0x000000000803aaf8        0x0 ../Hello_bsp//newlib/nios2-elf/lib\libc.a(lib_a-__call_atexit.o)
 .bss           0x000000000803aaf8        0x0 ../Hello_bsp/\libhal_bsp.a(alt_exit.o)
 *(COMMON)
 COMMON         0x000000000803aaf8      0x100 ../Hello_bsp/\libhal_bsp.a(alt_irq_handler.o)
                0x000000000803aaf8                alt_irq
                0x000000000803abf8                . = ALIGN (0x4)
                0x000000000803abf8                __bss_end = ABSOLUTE (.)

.sdram          0x000000000803abf8        0x0
                [!provide]                        PROVIDE (_alt_partition_sdram_start, ABSOLUTE (.))
 *(.sdram .sdram. sdram.*)
                0x000000000803abf8                . = ALIGN (0x4)
                [!provide]                        PROVIDE (_alt_partition_sdram_end, ABSOLUTE (.))
                0x000000000803abf8                _end = ABSOLUTE (.)
                0x000000000803abf8                end = ABSOLUTE (.)
                0x000000000803abf8                __alt_stack_base = ABSOLUTE (.)
                [!provide]                        PROVIDE (_alt_partition_sdram_load_addr, LOADADDR (.sdram))

.bufferram_out  0x0000000010000000        0x0 load address 0x000000000803abf8
                [!provide]                        PROVIDE (_alt_partition_bufferram_out_start, ABSOLUTE (.))
 *(.bufferram_out .bufferram_out. bufferram_out.*)
                0x0000000010000000                . = ALIGN (0x4)
                [!provide]                        PROVIDE (_alt_partition_bufferram_out_end, ABSOLUTE (.))
                [!provide]                        PROVIDE (_alt_partition_bufferram_out_load_addr, LOADADDR (.bufferram_out))

.stab
 *(.stab)

.stabstr
 *(.stabstr)

.stab.excl
 *(.stab.excl)

.stab.exclstr
 *(.stab.exclstr)

.stab.index
 *(.stab.index)

.stab.indexstr
 *(.stab.indexstr)

.comment        0x0000000000000000       0x23
 *(.comment)
 .comment       0x0000000000000000       0x23 obj/default/src/app.o
                                         0x24 (size before relaxing)
 .comment       0x0000000000000023       0x24 obj/default/src/gppcu.o
 .comment       0x0000000000000023       0x24 obj/default/src/main.o
 .comment       0x0000000000000023       0x24 obj/default/src/mathc.o
 .comment       0x0000000000000023       0x24 obj/default/src/utils.o
 .comment       0x0000000000000023       0x24 ../Hello_bsp//newlib/nios2-elf/lib\libm.a(lib_a-sf_ceil.o)
 .comment       0x0000000000000023       0x24 ../Hello_bsp//newlib/nios2-elf/lib\libm.a(lib_a-sf_cos.o)
 .comment       0x0000000000000023       0x24 ../Hello_bsp//newlib/nios2-elf/lib\libm.a(lib_a-sf_floor.o)
 .comment       0x0000000000000023       0x24 ../Hello_bsp//newlib/nios2-elf/lib\libm.a(lib_a-sf_fmax.o)
 .comment       0x0000000000000023       0x24 ../Hello_bsp//newlib/nios2-elf/lib\libm.a(lib_a-sf_fmin.o)
 .comment       0x0000000000000023       0x24 ../Hello_bsp//newlib/nios2-elf/lib\libm.a(lib_a-sf_fpclassify.o)
 .comment       0x0000000000000023       0x24 ../Hello_bsp//newlib/nios2-elf/lib\libm.a(lib_a-sf_round.o)
 .comment       0x0000000000000023       0x24 ../Hello_bsp//newlib/nios2-elf/lib\libm.a(lib_a-sf_sin.o)
 .comment       0x0000000000000023       0x24 ../Hello_bsp//newlib/nios2-elf/lib\libm.a(lib_a-sf_tan.o)
 .comment       0x0000000000000023       0x24 ../Hello_bsp//newlib/nios2-elf/lib\libm.a(lib_a-wf_acos.o)
 .comment       0x0000000000000023       0x24 ../Hello_bsp//newlib/nios2-elf/lib\libm.a(lib_a-wf_atan2.o)
 .comment       0x0000000000000023       0x24 ../Hello_bsp//newlib/nios2-elf/lib\libm.a(lib_a-wf_pow.o)
 .comment       0x0000000000000023       0x24 ../Hello_bsp//newlib/nios2-elf/lib\libm.a(lib_a-wf_sqrt.o)
 .comment       0x0000000000000023       0x24 ../Hello_bsp//newlib/nios2-elf/lib\libm.a(lib_a-ef_acos.o)
 .comment       0x0000000000000023       0x24 ../Hello_bsp//newlib/nios2-elf/lib\libm.a(lib_a-ef_atan2.o)
 .comment       0x0000000000000023       0x24 ../Hello_bsp//newlib/nios2-elf/lib\libm.a(lib_a-ef_pow.o)
 .comment       0x0000000000000023       0x24 ../Hello_bsp//newlib/nios2-elf/lib\libm.a(lib_a-ef_rem_pio2.o)
 .comment       0x0000000000000023       0x24 ../Hello_bsp//newlib/nios2-elf/lib\libm.a(lib_a-ef_sqrt.o)
 .comment       0x0000000000000023       0x24 ../Hello_bsp//newlib/nios2-elf/lib\libm.a(lib_a-kf_cos.o)
 .comment       0x0000000000000023       0x24 ../Hello_bsp//newlib/nios2-elf/lib\libm.a(lib_a-kf_rem_pio2.o)
 .comment       0x0000000000000023       0x24 ../Hello_bsp//newlib/nios2-elf/lib\libm.a(lib_a-kf_sin.o)
 .comment       0x0000000000000023       0x24 ../Hello_bsp//newlib/nios2-elf/lib\libm.a(lib_a-kf_tan.o)
 .comment       0x0000000000000023       0x24 ../Hello_bsp//newlib/nios2-elf/lib\libm.a(lib_a-s_lib_ver.o)
 .comment       0x0000000000000023       0x24 ../Hello_bsp//newlib/nios2-elf/lib\libm.a(lib_a-s_matherr.o)
 .comment       0x0000000000000023       0x24 ../Hello_bsp//newlib/nios2-elf/lib\libm.a(lib_a-s_nan.o)
 .comment       0x0000000000000023       0x24 ../Hello_bsp//newlib/nios2-elf/lib\libm.a(lib_a-s_rint.o)
 .comment       0x0000000000000023       0x24 ../Hello_bsp//newlib/nios2-elf/lib\libm.a(lib_a-sf_atan.o)
 .comment       0x0000000000000023       0x24 ../Hello_bsp//newlib/nios2-elf/lib\libm.a(lib_a-sf_fabs.o)
 .comment       0x0000000000000023       0x24 ../Hello_bsp//newlib/nios2-elf/lib\libm.a(lib_a-sf_finite.o)
 .comment       0x0000000000000023       0x24 ../Hello_bsp//newlib/nios2-elf/lib\libm.a(lib_a-sf_nan.o)
 .comment       0x0000000000000023       0x24 ../Hello_bsp//newlib/nios2-elf/lib\libm.a(lib_a-sf_scalbn.o)
 .comment       0x0000000000000023       0x24 ../Hello_bsp//newlib/nios2-elf/lib\libm.a(lib_a-sf_copysign.o)
 .comment       0x0000000000000023       0x24 d:/intelfpga_lite/18.0/nios2eds/bin/gnu/h-x86_64-mingw32/bin/../lib/gcc/nios2-elf/5.3.0\libgcc.a(lib2-divmod.o)
 .comment       0x0000000000000023       0x24 d:/intelfpga_lite/18.0/nios2eds/bin/gnu/h-x86_64-mingw32/bin/../lib/gcc/nios2-elf/5.3.0\libgcc.a(adddf3.o)
 .comment       0x0000000000000023       0x24 d:/intelfpga_lite/18.0/nios2eds/bin/gnu/h-x86_64-mingw32/bin/../lib/gcc/nios2-elf/5.3.0\libgcc.a(divdf3.o)
 .comment       0x0000000000000023       0x24 d:/intelfpga_lite/18.0/nios2eds/bin/gnu/h-x86_64-mingw32/bin/../lib/gcc/nios2-elf/5.3.0\libgcc.a(eqdf2.o)
 .comment       0x0000000000000023       0x24 d:/intelfpga_lite/18.0/nios2eds/bin/gnu/h-x86_64-mingw32/bin/../lib/gcc/nios2-elf/5.3.0\libgcc.a(subdf3.o)
 .comment       0x0000000000000023       0x24 d:/intelfpga_lite/18.0/nios2eds/bin/gnu/h-x86_64-mingw32/bin/../lib/gcc/nios2-elf/5.3.0\libgcc.a(extendsfdf2.o)
 .comment       0x0000000000000023       0x24 d:/intelfpga_lite/18.0/nios2eds/bin/gnu/h-x86_64-mingw32/bin/../lib/gcc/nios2-elf/5.3.0\libgcc.a(truncdfsf2.o)
 .comment       0x0000000000000023       0x24 d:/intelfpga_lite/18.0/nios2eds/bin/gnu/h-x86_64-mingw32/bin/../lib/gcc/nios2-elf/5.3.0\libgcc.a(_clzsi2.o)
 .comment       0x0000000000000023       0x24 d:/intelfpga_lite/18.0/nios2eds/bin/gnu/h-x86_64-mingw32/bin/../lib/gcc/nios2-elf/5.3.0\libgcc.a(_clz.o)
 .comment       0x0000000000000023       0x24 ../Hello_bsp//newlib/nios2-elf/lib\libc.a(lib_a-errno.o)
 .comment       0x0000000000000023       0x24 ../Hello_bsp//newlib/nios2-elf/lib\libc.a(lib_a-impure.o)
 .comment       0x0000000000000023       0x24 ../Hello_bsp//newlib/nios2-elf/lib\libc.a(lib_a-malloc.o)
 .comment       0x0000000000000023       0x24 ../Hello_bsp//newlib/nios2-elf/lib\libc.a(lib_a-mallocr.o)
 .comment       0x0000000000000023       0x24 ../Hello_bsp//newlib/nios2-elf/lib\libc.a(lib_a-memcpy.o)
 .comment       0x0000000000000023       0x24 ../Hello_bsp//newlib/nios2-elf/lib\libc.a(lib_a-memset.o)
 .comment       0x0000000000000023       0x24 ../Hello_bsp//newlib/nios2-elf/lib\libc.a(lib_a-printf.o)
 .comment       0x0000000000000023       0x24 ../Hello_bsp//newlib/nios2-elf/lib\libc.a(lib_a-putchar.o)
 .comment       0x0000000000000023       0x24 ../Hello_bsp//newlib/nios2-elf/lib\libc.a(lib_a-puts.o)
 .comment       0x0000000000000023       0x24 ../Hello_bsp//newlib/nios2-elf/lib\libc.a(lib_a-rand.o)
 .comment       0x0000000000000023       0x24 ../Hello_bsp//newlib/nios2-elf/lib\libc.a(lib_a-sbrkr.o)
 .comment       0x0000000000000023       0x24 ../Hello_bsp//newlib/nios2-elf/lib\libc.a(lib_a-strlen.o)
 .comment       0x0000000000000023       0x24 ../Hello_bsp//newlib/nios2-elf/lib\libc.a(lib_a-vfprintf.o)
 .comment       0x0000000000000023       0x24 ../Hello_bsp//newlib/nios2-elf/lib\libc.a(lib_a-wsetup.o)
 .comment       0x0000000000000023       0x24 ../Hello_bsp//newlib/nios2-elf/lib\libc.a(lib_a-dtoa.o)
 .comment       0x0000000000000023       0x24 ../Hello_bsp//newlib/nios2-elf/lib\libc.a(lib_a-fflush.o)
 .comment       0x0000000000000023       0x24 ../Hello_bsp//newlib/nios2-elf/lib\libc.a(lib_a-findfp.o)
 .comment       0x0000000000000023       0x24 ../Hello_bsp//newlib/nios2-elf/lib\libc.a(lib_a-freer.o)
 .comment       0x0000000000000023       0x24 ../Hello_bsp//newlib/nios2-elf/lib\libc.a(lib_a-fvwrite.o)
 .comment       0x0000000000000023       0x24 ../Hello_bsp//newlib/nios2-elf/lib\libc.a(lib_a-fwalk.o)
 .comment       0x0000000000000023       0x24 ../Hello_bsp//newlib/nios2-elf/lib\libc.a(lib_a-int_errno.o)
 .comment       0x0000000000000023       0x24 ../Hello_bsp//newlib/nios2-elf/lib\libc.a(lib_a-locale.o)
 .comment       0x0000000000000023       0x24 ../Hello_bsp//newlib/nios2-elf/lib\libc.a(lib_a-makebuf.o)
 .comment       0x0000000000000023       0x24 ../Hello_bsp//newlib/nios2-elf/lib\libc.a(lib_a-memchr.o)
 .comment       0x0000000000000023       0x24 ../Hello_bsp//newlib/nios2-elf/lib\libc.a(lib_a-memmove.o)
 .comment       0x0000000000000023       0x24 ../Hello_bsp//newlib/nios2-elf/lib\libc.a(lib_a-mprec.o)
 .comment       0x0000000000000023       0x24 ../Hello_bsp//newlib/nios2-elf/lib\libc.a(lib_a-putc.o)
 .comment       0x0000000000000023       0x24 ../Hello_bsp//newlib/nios2-elf/lib\libc.a(lib_a-reallocr.o)
 .comment       0x0000000000000023       0x24 ../Hello_bsp//newlib/nios2-elf/lib\libc.a(lib_a-s_fpclassify.o)
 .comment       0x0000000000000023       0x24 ../Hello_bsp//newlib/nios2-elf/lib\libc.a(lib_a-stdio.o)
 .comment       0x0000000000000023       0x24 ../Hello_bsp//newlib/nios2-elf/lib\libc.a(lib_a-strcmp.o)
 .comment       0x0000000000000023       0x24 ../Hello_bsp//newlib/nios2-elf/lib\libc.a(lib_a-vfiprintf.o)
 .comment       0x0000000000000023       0x24 ../Hello_bsp//newlib/nios2-elf/lib\libc.a(lib_a-wbuf.o)
 .comment       0x0000000000000023       0x24 ../Hello_bsp//newlib/nios2-elf/lib\libc.a(lib_a-writer.o)
 .comment       0x0000000000000023       0x24 ../Hello_bsp//newlib/nios2-elf/lib\libc.a(closer.o)
 .comment       0x0000000000000023       0x24 ../Hello_bsp//newlib/nios2-elf/lib\libc.a(lib_a-callocr.o)
 .comment       0x0000000000000023       0x24 ../Hello_bsp//newlib/nios2-elf/lib\libc.a(lib_a-fclose.o)
 .comment       0x0000000000000023       0x24 ../Hello_bsp//newlib/nios2-elf/lib\libc.a(lib_a-fputwc.o)
 .comment       0x0000000000000023       0x24 ../Hello_bsp//newlib/nios2-elf/lib\libc.a(lib_a-fstatr.o)
 .comment       0x0000000000000023       0x24 ../Hello_bsp//newlib/nios2-elf/lib\libc.a(lib_a-isattyr.o)
 .comment       0x0000000000000023       0x24 ../Hello_bsp//newlib/nios2-elf/lib\libc.a(lib_a-lseekr.o)
 .comment       0x0000000000000023       0x24 ../Hello_bsp//newlib/nios2-elf/lib\libc.a(lib_a-readr.o)
 .comment       0x0000000000000023       0x24 ../Hello_bsp//newlib/nios2-elf/lib\libc.a(lib_a-wcrtomb.o)
 .comment       0x0000000000000023       0x24 ../Hello_bsp//newlib/nios2-elf/lib\libc.a(lib_a-wctomb_r.o)
 .comment       0x0000000000000023       0x24 d:/intelfpga_lite/18.0/nios2eds/bin/gnu/h-x86_64-mingw32/bin/../lib/gcc/nios2-elf/5.3.0\libgcc.a(_muldi3.o)
 .comment       0x0000000000000023       0x24 d:/intelfpga_lite/18.0/nios2eds/bin/gnu/h-x86_64-mingw32/bin/../lib/gcc/nios2-elf/5.3.0\libgcc.a(_udivdi3.o)
 .comment       0x0000000000000023       0x24 d:/intelfpga_lite/18.0/nios2eds/bin/gnu/h-x86_64-mingw32/bin/../lib/gcc/nios2-elf/5.3.0\libgcc.a(_umoddi3.o)
 .comment       0x0000000000000023       0x24 d:/intelfpga_lite/18.0/nios2eds/bin/gnu/h-x86_64-mingw32/bin/../lib/gcc/nios2-elf/5.3.0\libgcc.a(gedf2.o)
 .comment       0x0000000000000023       0x24 d:/intelfpga_lite/18.0/nios2eds/bin/gnu/h-x86_64-mingw32/bin/../lib/gcc/nios2-elf/5.3.0\libgcc.a(ledf2.o)
 .comment       0x0000000000000023       0x24 d:/intelfpga_lite/18.0/nios2eds/bin/gnu/h-x86_64-mingw32/bin/../lib/gcc/nios2-elf/5.3.0\libgcc.a(muldf3.o)
 .comment       0x0000000000000023       0x24 d:/intelfpga_lite/18.0/nios2eds/bin/gnu/h-x86_64-mingw32/bin/../lib/gcc/nios2-elf/5.3.0\libgcc.a(fixdfsi.o)
 .comment       0x0000000000000023       0x24 d:/intelfpga_lite/18.0/nios2eds/bin/gnu/h-x86_64-mingw32/bin/../lib/gcc/nios2-elf/5.3.0\libgcc.a(floatsidf.o)
 .comment       0x0000000000000023       0x24 d:/intelfpga_lite/18.0/nios2eds/bin/gnu/h-x86_64-mingw32/bin/../lib/gcc/nios2-elf/5.3.0\libgcc.a(floatunsidf.o)
 .comment       0x0000000000000023       0x24 ../Hello_bsp/\libhal_bsp.a(alt_close.o)
 .comment       0x0000000000000023       0x24 ../Hello_bsp/\libhal_bsp.a(alt_dev.o)
 .comment       0x0000000000000023       0x24 ../Hello_bsp/\libhal_bsp.a(alt_errno.o)
 .comment       0x0000000000000023       0x24 ../Hello_bsp/\libhal_bsp.a(alt_fstat.o)
 .comment       0x0000000000000023       0x24 ../Hello_bsp/\libhal_bsp.a(alt_isatty.o)
 .comment       0x0000000000000023       0x24 ../Hello_bsp/\libhal_bsp.a(alt_load.o)
 .comment       0x0000000000000023       0x24 ../Hello_bsp/\libhal_bsp.a(alt_lseek.o)
 .comment       0x0000000000000023       0x24 ../Hello_bsp/\libhal_bsp.a(alt_main.o)
 .comment       0x0000000000000023       0x24 ../Hello_bsp/\libhal_bsp.a(alt_malloc_lock.o)
 .comment       0x0000000000000023       0x24 ../Hello_bsp/\libhal_bsp.a(alt_read.o)
 .comment       0x0000000000000023       0x24 ../Hello_bsp/\libhal_bsp.a(alt_release_fd.o)
 .comment       0x0000000000000023       0x24 ../Hello_bsp/\libhal_bsp.a(alt_sbrk.o)
 .comment       0x0000000000000023       0x24 ../Hello_bsp/\libhal_bsp.a(alt_write.o)
 .comment       0x0000000000000023       0x24 ../Hello_bsp/\libhal_bsp.a(alt_sys_init.o)
 .comment       0x0000000000000023       0x24 ../Hello_bsp/\libhal_bsp.a(altera_avalon_jtag_uart_fd.o)
 .comment       0x0000000000000023       0x24 ../Hello_bsp/\libhal_bsp.a(altera_avalon_jtag_uart_init.o)
 .comment       0x0000000000000023       0x24 ../Hello_bsp/\libhal_bsp.a(altera_avalon_jtag_uart_ioctl.o)
 .comment       0x0000000000000023       0x24 ../Hello_bsp/\libhal_bsp.a(altera_avalon_jtag_uart_read.o)
 .comment       0x0000000000000023       0x24 ../Hello_bsp/\libhal_bsp.a(altera_avalon_jtag_uart_write.o)
 .comment       0x0000000000000023       0x24 ../Hello_bsp/\libhal_bsp.a(altera_avalon_timer_sc.o)
 .comment       0x0000000000000023       0x24 ../Hello_bsp/\libhal_bsp.a(alt_alarm_start.o)
 .comment       0x0000000000000023       0x24 ../Hello_bsp/\libhal_bsp.a(alt_dcache_flush_all.o)
 .comment       0x0000000000000023       0x24 ../Hello_bsp/\libhal_bsp.a(alt_dev_llist_insert.o)
 .comment       0x0000000000000023       0x24 ../Hello_bsp/\libhal_bsp.a(alt_icache_flush_all.o)
 .comment       0x0000000000000023       0x24 ../Hello_bsp/\libhal_bsp.a(alt_iic.o)
 .comment       0x0000000000000023       0x24 ../Hello_bsp/\libhal_bsp.a(alt_iic_isr_register.o)
 .comment       0x0000000000000023       0x24 ../Hello_bsp/\libhal_bsp.a(alt_io_redirect.o)
 .comment       0x0000000000000023       0x24 ../Hello_bsp/\libhal_bsp.a(alt_irq_handler.o)
 .comment       0x0000000000000023       0x24 ../Hello_bsp/\libhal_bsp.a(alt_irq_vars.o)
 .comment       0x0000000000000023       0x24 ../Hello_bsp/\libhal_bsp.a(alt_open.o)
 .comment       0x0000000000000023       0x24 ../Hello_bsp/\libhal_bsp.a(alt_tick.o)
 .comment       0x0000000000000023       0x24 ../Hello_bsp/\libhal_bsp.a(altera_nios2_gen2_irq.o)
 .comment       0x0000000000000023       0x24 ../Hello_bsp/\libhal_bsp.a(alt_find_dev.o)
 .comment       0x0000000000000023       0x24 ../Hello_bsp/\libhal_bsp.a(alt_find_file.o)
 .comment       0x0000000000000023       0x24 ../Hello_bsp/\libhal_bsp.a(alt_get_fd.o)
 .comment       0x0000000000000023       0x24 ../Hello_bsp/\libhal_bsp.a(alt_icache_flush.o)
 .comment       0x0000000000000023       0x24 ../Hello_bsp/\libhal_bsp.a(alt_instruction_exception_entry.o)
 .comment       0x0000000000000023       0x24 ../Hello_bsp//newlib/nios2-elf/lib\libc.a(lib_a-exit.o)
 .comment       0x0000000000000023       0x24 ../Hello_bsp//newlib/nios2-elf/lib\libc.a(lib_a-memcmp.o)
 .comment       0x0000000000000023       0x24 ../Hello_bsp//newlib/nios2-elf/lib\libc.a(lib_a-__call_atexit.o)
 .comment       0x0000000000000023       0x24 ../Hello_bsp/\libhal_bsp.a(alt_exit.o)

.debug
 *(.debug)

.line
 *(.line)

.debug_srcinfo
 *(.debug_srcinfo)

.debug_sfnames
 *(.debug_sfnames)

.debug_aranges  0x0000000000000000     0x13e0
 *(.debug_aranges)
 .debug_aranges
                0x0000000000000000       0x28 ../Hello_bsp//obj/HAL/src/crt0.o
 .debug_aranges
                0x0000000000000028       0x20 obj/default/src/app.o
 .debug_aranges
                0x0000000000000048       0x20 obj/default/src/gppcu.o
 .debug_aranges
                0x0000000000000068       0x20 obj/default/src/main.o
 .debug_aranges
                0x0000000000000088       0x20 obj/default/src/mathc.o
 .debug_aranges
                0x00000000000000a8       0x20 ../Hello_bsp//newlib/nios2-elf/lib\libm.a(lib_a-sf_ceil.o)
 .debug_aranges
                0x00000000000000c8       0x20 ../Hello_bsp//newlib/nios2-elf/lib\libm.a(lib_a-sf_cos.o)
 .debug_aranges
                0x00000000000000e8       0x20 ../Hello_bsp//newlib/nios2-elf/lib\libm.a(lib_a-sf_floor.o)
 .debug_aranges
                0x0000000000000108       0x20 ../Hello_bsp//newlib/nios2-elf/lib\libm.a(lib_a-sf_fmax.o)
 .debug_aranges
                0x0000000000000128       0x20 ../Hello_bsp//newlib/nios2-elf/lib\libm.a(lib_a-sf_fmin.o)
 .debug_aranges
                0x0000000000000148       0x20 ../Hello_bsp//newlib/nios2-elf/lib\libm.a(lib_a-sf_fpclassify.o)
 .debug_aranges
                0x0000000000000168       0x20 ../Hello_bsp//newlib/nios2-elf/lib\libm.a(lib_a-sf_round.o)
 .debug_aranges
                0x0000000000000188       0x20 ../Hello_bsp//newlib/nios2-elf/lib\libm.a(lib_a-sf_sin.o)
 .debug_aranges
                0x00000000000001a8       0x20 ../Hello_bsp//newlib/nios2-elf/lib\libm.a(lib_a-sf_tan.o)
 .debug_aranges
                0x00000000000001c8       0x20 ../Hello_bsp//newlib/nios2-elf/lib\libm.a(lib_a-wf_acos.o)
 .debug_aranges
                0x00000000000001e8       0x20 ../Hello_bsp//newlib/nios2-elf/lib\libm.a(lib_a-wf_atan2.o)
 .debug_aranges
                0x0000000000000208       0x20 ../Hello_bsp//newlib/nios2-elf/lib\libm.a(lib_a-wf_pow.o)
 .debug_aranges
                0x0000000000000228       0x20 ../Hello_bsp//newlib/nios2-elf/lib\libm.a(lib_a-wf_sqrt.o)
 .debug_aranges
                0x0000000000000248       0x20 ../Hello_bsp//newlib/nios2-elf/lib\libm.a(lib_a-ef_acos.o)
 .debug_aranges
                0x0000000000000268       0x20 ../Hello_bsp//newlib/nios2-elf/lib\libm.a(lib_a-ef_atan2.o)
 .debug_aranges
                0x0000000000000288       0x20 ../Hello_bsp//newlib/nios2-elf/lib\libm.a(lib_a-ef_pow.o)
 .debug_aranges
                0x00000000000002a8       0x20 ../Hello_bsp//newlib/nios2-elf/lib\libm.a(lib_a-ef_rem_pio2.o)
 .debug_aranges
                0x00000000000002c8       0x20 ../Hello_bsp//newlib/nios2-elf/lib\libm.a(lib_a-ef_sqrt.o)
 .debug_aranges
                0x00000000000002e8       0x20 ../Hello_bsp//newlib/nios2-elf/lib\libm.a(lib_a-kf_cos.o)
 .debug_aranges
                0x0000000000000308       0x20 ../Hello_bsp//newlib/nios2-elf/lib\libm.a(lib_a-kf_rem_pio2.o)
 .debug_aranges
                0x0000000000000328       0x20 ../Hello_bsp//newlib/nios2-elf/lib\libm.a(lib_a-kf_sin.o)
 .debug_aranges
                0x0000000000000348       0x20 ../Hello_bsp//newlib/nios2-elf/lib\libm.a(lib_a-kf_tan.o)
 .debug_aranges
                0x0000000000000368       0x18 ../Hello_bsp//newlib/nios2-elf/lib\libm.a(lib_a-s_lib_ver.o)
 .debug_aranges
                0x0000000000000380       0x20 ../Hello_bsp//newlib/nios2-elf/lib\libm.a(lib_a-s_matherr.o)
 .debug_aranges
                0x00000000000003a0       0x20 ../Hello_bsp//newlib/nios2-elf/lib\libm.a(lib_a-s_nan.o)
 .debug_aranges
                0x00000000000003c0       0x20 ../Hello_bsp//newlib/nios2-elf/lib\libm.a(lib_a-s_rint.o)
 .debug_aranges
                0x00000000000003e0       0x20 ../Hello_bsp//newlib/nios2-elf/lib\libm.a(lib_a-sf_atan.o)
 .debug_aranges
                0x0000000000000400       0x20 ../Hello_bsp//newlib/nios2-elf/lib\libm.a(lib_a-sf_fabs.o)
 .debug_aranges
                0x0000000000000420       0x20 ../Hello_bsp//newlib/nios2-elf/lib\libm.a(lib_a-sf_finite.o)
 .debug_aranges
                0x0000000000000440       0x20 ../Hello_bsp//newlib/nios2-elf/lib\libm.a(lib_a-sf_nan.o)
 .debug_aranges
                0x0000000000000460       0x20 ../Hello_bsp//newlib/nios2-elf/lib\libm.a(lib_a-sf_scalbn.o)
 .debug_aranges
                0x0000000000000480       0x20 ../Hello_bsp//newlib/nios2-elf/lib\libm.a(lib_a-sf_copysign.o)
 .debug_aranges
                0x00000000000004a0       0x20 d:/intelfpga_lite/18.0/nios2eds/bin/gnu/h-x86_64-mingw32/bin/../lib/gcc/nios2-elf/5.3.0\libgcc.a(lib2-divmod.o)
 .debug_aranges
                0x00000000000004c0       0x20 d:/intelfpga_lite/18.0/nios2eds/bin/gnu/h-x86_64-mingw32/bin/../lib/gcc/nios2-elf/5.3.0\libgcc.a(adddf3.o)
 .debug_aranges
                0x00000000000004e0       0x20 d:/intelfpga_lite/18.0/nios2eds/bin/gnu/h-x86_64-mingw32/bin/../lib/gcc/nios2-elf/5.3.0\libgcc.a(divdf3.o)
 .debug_aranges
                0x0000000000000500       0x20 d:/intelfpga_lite/18.0/nios2eds/bin/gnu/h-x86_64-mingw32/bin/../lib/gcc/nios2-elf/5.3.0\libgcc.a(eqdf2.o)
 .debug_aranges
                0x0000000000000520       0x20 d:/intelfpga_lite/18.0/nios2eds/bin/gnu/h-x86_64-mingw32/bin/../lib/gcc/nios2-elf/5.3.0\libgcc.a(subdf3.o)
 .debug_aranges
                0x0000000000000540       0x20 d:/intelfpga_lite/18.0/nios2eds/bin/gnu/h-x86_64-mingw32/bin/../lib/gcc/nios2-elf/5.3.0\libgcc.a(extendsfdf2.o)
 .debug_aranges
                0x0000000000000560       0x20 d:/intelfpga_lite/18.0/nios2eds/bin/gnu/h-x86_64-mingw32/bin/../lib/gcc/nios2-elf/5.3.0\libgcc.a(truncdfsf2.o)
 .debug_aranges
                0x0000000000000580       0x20 d:/intelfpga_lite/18.0/nios2eds/bin/gnu/h-x86_64-mingw32/bin/../lib/gcc/nios2-elf/5.3.0\libgcc.a(_clzsi2.o)
 .debug_aranges
                0x00000000000005a0       0x18 d:/intelfpga_lite/18.0/nios2eds/bin/gnu/h-x86_64-mingw32/bin/../lib/gcc/nios2-elf/5.3.0\libgcc.a(_clz.o)
 .debug_aranges
                0x00000000000005b8       0x20 ../Hello_bsp//newlib/nios2-elf/lib\libc.a(lib_a-errno.o)
 .debug_aranges
                0x00000000000005d8       0x18 ../Hello_bsp//newlib/nios2-elf/lib\libc.a(lib_a-impure.o)
 .debug_aranges
                0x00000000000005f0       0x28 ../Hello_bsp//newlib/nios2-elf/lib\libc.a(lib_a-malloc.o)
 .debug_aranges
                0x0000000000000618       0x28 ../Hello_bsp//newlib/nios2-elf/lib\libc.a(lib_a-mallocr.o)
 .debug_aranges
                0x0000000000000640       0x20 ../Hello_bsp//newlib/nios2-elf/lib\libc.a(lib_a-memcpy.o)
 .debug_aranges
                0x0000000000000660       0x20 ../Hello_bsp//newlib/nios2-elf/lib\libc.a(lib_a-memset.o)
 .debug_aranges
                0x0000000000000680       0x28 ../Hello_bsp//newlib/nios2-elf/lib\libc.a(lib_a-printf.o)
 .debug_aranges
                0x00000000000006a8       0x28 ../Hello_bsp//newlib/nios2-elf/lib\libc.a(lib_a-putchar.o)
 .debug_aranges
                0x00000000000006d0       0x28 ../Hello_bsp//newlib/nios2-elf/lib\libc.a(lib_a-puts.o)
 .debug_aranges
                0x00000000000006f8       0x28 ../Hello_bsp//newlib/nios2-elf/lib\libc.a(lib_a-rand.o)
 .debug_aranges
                0x0000000000000720       0x20 ../Hello_bsp//newlib/nios2-elf/lib\libc.a(lib_a-sbrkr.o)
 .debug_aranges
                0x0000000000000740       0x20 ../Hello_bsp//newlib/nios2-elf/lib\libc.a(lib_a-strlen.o)
 .debug_aranges
                0x0000000000000760       0x40 ../Hello_bsp//newlib/nios2-elf/lib\libc.a(lib_a-vfprintf.o)
 .debug_aranges
                0x00000000000007a0       0x20 ../Hello_bsp//newlib/nios2-elf/lib\libc.a(lib_a-wsetup.o)
 .debug_aranges
                0x00000000000007c0       0x28 ../Hello_bsp//newlib/nios2-elf/lib\libc.a(lib_a-dtoa.o)
 .debug_aranges
                0x00000000000007e8       0x30 ../Hello_bsp//newlib/nios2-elf/lib\libc.a(lib_a-fflush.o)
 .debug_aranges
                0x0000000000000818       0x88 ../Hello_bsp//newlib/nios2-elf/lib\libc.a(lib_a-findfp.o)
 .debug_aranges
                0x00000000000008a0       0x28 ../Hello_bsp//newlib/nios2-elf/lib\libc.a(lib_a-freer.o)
 .debug_aranges
                0x00000000000008c8       0x20 ../Hello_bsp//newlib/nios2-elf/lib\libc.a(lib_a-fvwrite.o)
 .debug_aranges
                0x00000000000008e8       0x28 ../Hello_bsp//newlib/nios2-elf/lib\libc.a(lib_a-fwalk.o)
 .debug_aranges
                0x0000000000000910       0x18 ../Hello_bsp//newlib/nios2-elf/lib\libc.a(lib_a-int_errno.o)
 .debug_aranges
                0x0000000000000928       0x58 ../Hello_bsp//newlib/nios2-elf/lib\libc.a(lib_a-locale.o)
 .debug_aranges
                0x0000000000000980       0x20 ../Hello_bsp//newlib/nios2-elf/lib\libc.a(lib_a-makebuf.o)
 .debug_aranges
                0x00000000000009a0       0x20 ../Hello_bsp//newlib/nios2-elf/lib\libc.a(lib_a-memchr.o)
 .debug_aranges
                0x00000000000009c0       0x20 ../Hello_bsp//newlib/nios2-elf/lib\libc.a(lib_a-memmove.o)
 .debug_aranges
                0x00000000000009e0       0xb0 ../Hello_bsp//newlib/nios2-elf/lib\libc.a(lib_a-mprec.o)
 .debug_aranges
                0x0000000000000a90       0x28 ../Hello_bsp//newlib/nios2-elf/lib\libc.a(lib_a-putc.o)
 .debug_aranges
                0x0000000000000ab8       0x20 ../Hello_bsp//newlib/nios2-elf/lib\libc.a(lib_a-reallocr.o)
 .debug_aranges
                0x0000000000000ad8       0x20 ../Hello_bsp//newlib/nios2-elf/lib\libc.a(lib_a-s_fpclassify.o)
 .debug_aranges
                0x0000000000000af8       0x40 ../Hello_bsp//newlib/nios2-elf/lib\libc.a(lib_a-stdio.o)
 .debug_aranges
                0x0000000000000b38       0x20 ../Hello_bsp//newlib/nios2-elf/lib\libc.a(lib_a-strcmp.o)
 .debug_aranges
                0x0000000000000b58       0x38 ../Hello_bsp//newlib/nios2-elf/lib\libc.a(lib_a-vfiprintf.o)
 .debug_aranges
                0x0000000000000b90       0x28 ../Hello_bsp//newlib/nios2-elf/lib\libc.a(lib_a-wbuf.o)
 .debug_aranges
                0x0000000000000bb8       0x20 ../Hello_bsp//newlib/nios2-elf/lib\libc.a(lib_a-writer.o)
 .debug_aranges
                0x0000000000000bd8       0x20 ../Hello_bsp//newlib/nios2-elf/lib\libc.a(closer.o)
 .debug_aranges
                0x0000000000000bf8       0x20 ../Hello_bsp//newlib/nios2-elf/lib\libc.a(lib_a-callocr.o)
 .debug_aranges
                0x0000000000000c18       0x28 ../Hello_bsp//newlib/nios2-elf/lib\libc.a(lib_a-fclose.o)
 .debug_aranges
                0x0000000000000c40       0x30 ../Hello_bsp//newlib/nios2-elf/lib\libc.a(lib_a-fputwc.o)
 .debug_aranges
                0x0000000000000c70       0x20 ../Hello_bsp//newlib/nios2-elf/lib\libc.a(lib_a-fstatr.o)
 .debug_aranges
                0x0000000000000c90       0x20 ../Hello_bsp//newlib/nios2-elf/lib\libc.a(lib_a-isattyr.o)
 .debug_aranges
                0x0000000000000cb0       0x20 ../Hello_bsp//newlib/nios2-elf/lib\libc.a(lib_a-lseekr.o)
 .debug_aranges
                0x0000000000000cd0       0x20 ../Hello_bsp//newlib/nios2-elf/lib\libc.a(lib_a-readr.o)
 .debug_aranges
                0x0000000000000cf0       0x28 ../Hello_bsp//newlib/nios2-elf/lib\libc.a(lib_a-wcrtomb.o)
 .debug_aranges
                0x0000000000000d18       0x28 ../Hello_bsp//newlib/nios2-elf/lib\libc.a(lib_a-wctomb_r.o)
 .debug_aranges
                0x0000000000000d40       0x20 d:/intelfpga_lite/18.0/nios2eds/bin/gnu/h-x86_64-mingw32/bin/../lib/gcc/nios2-elf/5.3.0\libgcc.a(_muldi3.o)
 .debug_aranges
                0x0000000000000d60       0x20 d:/intelfpga_lite/18.0/nios2eds/bin/gnu/h-x86_64-mingw32/bin/../lib/gcc/nios2-elf/5.3.0\libgcc.a(_udivdi3.o)
 .debug_aranges
                0x0000000000000d80       0x20 d:/intelfpga_lite/18.0/nios2eds/bin/gnu/h-x86_64-mingw32/bin/../lib/gcc/nios2-elf/5.3.0\libgcc.a(_umoddi3.o)
 .debug_aranges
                0x0000000000000da0       0x20 d:/intelfpga_lite/18.0/nios2eds/bin/gnu/h-x86_64-mingw32/bin/../lib/gcc/nios2-elf/5.3.0\libgcc.a(gedf2.o)
 .debug_aranges
                0x0000000000000dc0       0x20 d:/intelfpga_lite/18.0/nios2eds/bin/gnu/h-x86_64-mingw32/bin/../lib/gcc/nios2-elf/5.3.0\libgcc.a(ledf2.o)
 .debug_aranges
                0x0000000000000de0       0x20 d:/intelfpga_lite/18.0/nios2eds/bin/gnu/h-x86_64-mingw32/bin/../lib/gcc/nios2-elf/5.3.0\libgcc.a(muldf3.o)
 .debug_aranges
                0x0000000000000e00       0x20 d:/intelfpga_lite/18.0/nios2eds/bin/gnu/h-x86_64-mingw32/bin/../lib/gcc/nios2-elf/5.3.0\libgcc.a(fixdfsi.o)
 .debug_aranges
                0x0000000000000e20       0x20 d:/intelfpga_lite/18.0/nios2eds/bin/gnu/h-x86_64-mingw32/bin/../lib/gcc/nios2-elf/5.3.0\libgcc.a(floatsidf.o)
 .debug_aranges
                0x0000000000000e40       0x20 d:/intelfpga_lite/18.0/nios2eds/bin/gnu/h-x86_64-mingw32/bin/../lib/gcc/nios2-elf/5.3.0\libgcc.a(floatunsidf.o)
 .debug_aranges
                0x0000000000000e60       0x20 ../Hello_bsp/\libhal_bsp.a(alt_close.o)
 .debug_aranges
                0x0000000000000e80       0x20 ../Hello_bsp/\libhal_bsp.a(alt_dev.o)
 .debug_aranges
                0x0000000000000ea0       0x18 ../Hello_bsp/\libhal_bsp.a(alt_errno.o)
 .debug_aranges
                0x0000000000000eb8       0x20 ../Hello_bsp/\libhal_bsp.a(alt_fstat.o)
 .debug_aranges
                0x0000000000000ed8       0x20 ../Hello_bsp/\libhal_bsp.a(alt_isatty.o)
 .debug_aranges
                0x0000000000000ef8       0x20 ../Hello_bsp/\libhal_bsp.a(alt_load.o)
 .debug_aranges
                0x0000000000000f18       0x20 ../Hello_bsp/\libhal_bsp.a(alt_lseek.o)
 .debug_aranges
                0x0000000000000f38       0x20 ../Hello_bsp/\libhal_bsp.a(alt_main.o)
 .debug_aranges
                0x0000000000000f58       0x20 ../Hello_bsp/\libhal_bsp.a(alt_malloc_lock.o)
 .debug_aranges
                0x0000000000000f78       0x20 ../Hello_bsp/\libhal_bsp.a(alt_read.o)
 .debug_aranges
                0x0000000000000f98       0x20 ../Hello_bsp/\libhal_bsp.a(alt_release_fd.o)
 .debug_aranges
                0x0000000000000fb8       0x20 ../Hello_bsp/\libhal_bsp.a(alt_sbrk.o)
 .debug_aranges
                0x0000000000000fd8       0x20 ../Hello_bsp/\libhal_bsp.a(alt_write.o)
 .debug_aranges
                0x0000000000000ff8       0x20 ../Hello_bsp/\libhal_bsp.a(alt_sys_init.o)
 .debug_aranges
                0x0000000000001018       0x20 ../Hello_bsp/\libhal_bsp.a(altera_avalon_jtag_uart_fd.o)
 .debug_aranges
                0x0000000000001038       0x20 ../Hello_bsp/\libhal_bsp.a(altera_avalon_jtag_uart_init.o)
 .debug_aranges
                0x0000000000001058       0x20 ../Hello_bsp/\libhal_bsp.a(altera_avalon_jtag_uart_ioctl.o)
 .debug_aranges
                0x0000000000001078       0x20 ../Hello_bsp/\libhal_bsp.a(altera_avalon_jtag_uart_read.o)
 .debug_aranges
                0x0000000000001098       0x20 ../Hello_bsp/\libhal_bsp.a(altera_avalon_jtag_uart_write.o)
 .debug_aranges
                0x00000000000010b8       0x20 ../Hello_bsp/\libhal_bsp.a(altera_avalon_timer_sc.o)
 .debug_aranges
                0x00000000000010d8       0x20 ../Hello_bsp/\libhal_bsp.a(alt_alarm_start.o)
 .debug_aranges
                0x00000000000010f8       0x20 ../Hello_bsp/\libhal_bsp.a(alt_dcache_flush_all.o)
 .debug_aranges
                0x0000000000001118       0x20 ../Hello_bsp/\libhal_bsp.a(alt_dev_llist_insert.o)
 .debug_aranges
                0x0000000000001138       0x20 ../Hello_bsp/\libhal_bsp.a(alt_icache_flush_all.o)
 .debug_aranges
                0x0000000000001158       0x20 ../Hello_bsp/\libhal_bsp.a(alt_iic.o)
 .debug_aranges
                0x0000000000001178       0x20 ../Hello_bsp/\libhal_bsp.a(alt_iic_isr_register.o)
 .debug_aranges
                0x0000000000001198       0x20 ../Hello_bsp/\libhal_bsp.a(alt_io_redirect.o)
 .debug_aranges
                0x00000000000011b8       0x30 ../Hello_bsp/\libhal_bsp.a(alt_irq_entry.o)
 .debug_aranges
                0x00000000000011e8       0x20 ../Hello_bsp/\libhal_bsp.a(alt_irq_handler.o)
 .debug_aranges
                0x0000000000001208       0x18 ../Hello_bsp/\libhal_bsp.a(alt_irq_vars.o)
 .debug_aranges
                0x0000000000001220       0x20 ../Hello_bsp/\libhal_bsp.a(alt_open.o)
 .debug_aranges
                0x0000000000001240       0x20 ../Hello_bsp/\libhal_bsp.a(alt_tick.o)
 .debug_aranges
                0x0000000000001260       0x20 ../Hello_bsp/\libhal_bsp.a(altera_nios2_gen2_irq.o)
 .debug_aranges
                0x0000000000001280       0x38 ../Hello_bsp/\libhal_bsp.a(alt_exception_entry.o)
 .debug_aranges
                0x00000000000012b8       0x20 ../Hello_bsp/\libhal_bsp.a(alt_find_dev.o)
 .debug_aranges
                0x00000000000012d8       0x20 ../Hello_bsp/\libhal_bsp.a(alt_find_file.o)
 .debug_aranges
                0x00000000000012f8       0x20 ../Hello_bsp/\libhal_bsp.a(alt_get_fd.o)
 .debug_aranges
                0x0000000000001318       0x20 ../Hello_bsp/\libhal_bsp.a(alt_icache_flush.o)
 .debug_aranges
                0x0000000000001338       0x28 ../Hello_bsp/\libhal_bsp.a(alt_instruction_exception_entry.o)
 .debug_aranges
                0x0000000000001360       0x20 ../Hello_bsp//newlib/nios2-elf/lib\libc.a(lib_a-exit.o)
 .debug_aranges
                0x0000000000001380       0x20 ../Hello_bsp//newlib/nios2-elf/lib\libc.a(lib_a-memcmp.o)
 .debug_aranges
                0x00000000000013a0       0x20 ../Hello_bsp//newlib/nios2-elf/lib\libc.a(lib_a-__call_atexit.o)
 .debug_aranges
                0x00000000000013c0       0x20 ../Hello_bsp/\libhal_bsp.a(alt_exit.o)

.debug_pubnames
 *(.debug_pubnames)

.debug_info     0x0000000000000000    0x3719f
 *(.debug_info .gnu.linkonce.wi.*)
 .debug_info    0x0000000000000000       0x84 ../Hello_bsp//obj/HAL/src/crt0.o
 .debug_info    0x0000000000000084      0xb75 obj/default/src/app.o
 .debug_info    0x0000000000000bf9      0xc46 obj/default/src/gppcu.o
 .debug_info    0x000000000000183f      0xc28 obj/default/src/main.o
 .debug_info    0x0000000000002467     0xe3df obj/default/src/mathc.o
 .debug_info    0x0000000000010846      0x173 ../Hello_bsp//newlib/nios2-elf/lib\libm.a(lib_a-sf_ceil.o)
 .debug_info    0x00000000000109b9      0x165 ../Hello_bsp//newlib/nios2-elf/lib\libm.a(lib_a-sf_cos.o)
 .debug_info    0x0000000000010b1e      0x173 ../Hello_bsp//newlib/nios2-elf/lib\libm.a(lib_a-sf_floor.o)
 .debug_info    0x0000000000010c91       0xba ../Hello_bsp//newlib/nios2-elf/lib\libm.a(lib_a-sf_fmax.o)
 .debug_info    0x0000000000010d4b       0xba ../Hello_bsp//newlib/nios2-elf/lib\libm.a(lib_a-sf_fmin.o)
 .debug_info    0x0000000000010e05      0x10a ../Hello_bsp//newlib/nios2-elf/lib\libm.a(lib_a-sf_fpclassify.o)
 .debug_info    0x0000000000010f0f      0x151 ../Hello_bsp//newlib/nios2-elf/lib\libm.a(lib_a-sf_round.o)
 .debug_info    0x0000000000011060      0x14b ../Hello_bsp//newlib/nios2-elf/lib\libm.a(lib_a-sf_sin.o)
 .debug_info    0x00000000000111ab      0x14b ../Hello_bsp//newlib/nios2-elf/lib\libm.a(lib_a-sf_tan.o)
 .debug_info    0x00000000000112f6      0x164 ../Hello_bsp//newlib/nios2-elf/lib\libm.a(lib_a-wf_acos.o)
 .debug_info    0x000000000001145a       0xba ../Hello_bsp//newlib/nios2-elf/lib\libm.a(lib_a-wf_atan2.o)
 .debug_info    0x0000000000011514      0x170 ../Hello_bsp//newlib/nios2-elf/lib\libm.a(lib_a-wf_pow.o)
 .debug_info    0x0000000000011684      0x164 ../Hello_bsp//newlib/nios2-elf/lib\libm.a(lib_a-wf_sqrt.o)
 .debug_info    0x00000000000117e8      0x2cb ../Hello_bsp//newlib/nios2-elf/lib\libm.a(lib_a-ef_acos.o)
 .debug_info    0x0000000000011ab3      0x246 ../Hello_bsp//newlib/nios2-elf/lib\libm.a(lib_a-ef_atan2.o)
 .debug_info    0x0000000000011cf9      0x74d ../Hello_bsp//newlib/nios2-elf/lib\libm.a(lib_a-ef_pow.o)
 .debug_info    0x0000000000012446      0x340 ../Hello_bsp//newlib/nios2-elf/lib\libm.a(lib_a-ef_rem_pio2.o)
 .debug_info    0x0000000000012786      0x1be ../Hello_bsp//newlib/nios2-elf/lib\libm.a(lib_a-ef_sqrt.o)
 .debug_info    0x0000000000012944      0x1f6 ../Hello_bsp//newlib/nios2-elf/lib\libm.a(lib_a-kf_cos.o)
 .debug_info    0x0000000000012b3a      0x2d2 ../Hello_bsp//newlib/nios2-elf/lib\libm.a(lib_a-kf_rem_pio2.o)
 .debug_info    0x0000000000012e0c      0x1cd ../Hello_bsp//newlib/nios2-elf/lib\libm.a(lib_a-kf_sin.o)
 .debug_info    0x0000000000012fd9      0x27b ../Hello_bsp//newlib/nios2-elf/lib\libm.a(lib_a-kf_tan.o)
 .debug_info    0x0000000000013254       0xbe ../Hello_bsp//newlib/nios2-elf/lib\libm.a(lib_a-s_lib_ver.o)
 .debug_info    0x0000000000013312      0x126 ../Hello_bsp//newlib/nios2-elf/lib\libm.a(lib_a-s_matherr.o)
 .debug_info    0x0000000000013438       0xc7 ../Hello_bsp//newlib/nios2-elf/lib\libm.a(lib_a-s_nan.o)
 .debug_info    0x00000000000134ff      0x22b ../Hello_bsp//newlib/nios2-elf/lib\libm.a(lib_a-s_rint.o)
 .debug_info    0x000000000001372a      0x1ef ../Hello_bsp//newlib/nios2-elf/lib\libm.a(lib_a-sf_atan.o)
 .debug_info    0x0000000000013919      0x128 ../Hello_bsp//newlib/nios2-elf/lib\libm.a(lib_a-sf_fabs.o)
 .debug_info    0x0000000000013a41      0x117 ../Hello_bsp//newlib/nios2-elf/lib\libm.a(lib_a-sf_finite.o)
 .debug_info    0x0000000000013b58       0xc7 ../Hello_bsp//newlib/nios2-elf/lib\libm.a(lib_a-sf_nan.o)
 .debug_info    0x0000000000013c1f      0x1dd ../Hello_bsp//newlib/nios2-elf/lib\libm.a(lib_a-sf_scalbn.o)
 .debug_info    0x0000000000013dfc      0x15d ../Hello_bsp//newlib/nios2-elf/lib\libm.a(lib_a-sf_copysign.o)
 .debug_info    0x0000000000013f59      0x2c6 d:/intelfpga_lite/18.0/nios2eds/bin/gnu/h-x86_64-mingw32/bin/../lib/gcc/nios2-elf/5.3.0\libgcc.a(lib2-divmod.o)
 .debug_info    0x000000000001421f      0x4a2 d:/intelfpga_lite/18.0/nios2eds/bin/gnu/h-x86_64-mingw32/bin/../lib/gcc/nios2-elf/5.3.0\libgcc.a(adddf3.o)
 .debug_info    0x00000000000146c1      0x5c7 d:/intelfpga_lite/18.0/nios2eds/bin/gnu/h-x86_64-mingw32/bin/../lib/gcc/nios2-elf/5.3.0\libgcc.a(divdf3.o)
 .debug_info    0x0000000000014c88      0x1e2 d:/intelfpga_lite/18.0/nios2eds/bin/gnu/h-x86_64-mingw32/bin/../lib/gcc/nios2-elf/5.3.0\libgcc.a(eqdf2.o)
 .debug_info    0x0000000000014e6a      0x4a2 d:/intelfpga_lite/18.0/nios2eds/bin/gnu/h-x86_64-mingw32/bin/../lib/gcc/nios2-elf/5.3.0\libgcc.a(subdf3.o)
 .debug_info    0x000000000001530c      0x248 d:/intelfpga_lite/18.0/nios2eds/bin/gnu/h-x86_64-mingw32/bin/../lib/gcc/nios2-elf/5.3.0\libgcc.a(extendsfdf2.o)
 .debug_info    0x0000000000015554      0x248 d:/intelfpga_lite/18.0/nios2eds/bin/gnu/h-x86_64-mingw32/bin/../lib/gcc/nios2-elf/5.3.0\libgcc.a(truncdfsf2.o)
 .debug_info    0x000000000001579c      0x124 d:/intelfpga_lite/18.0/nios2eds/bin/gnu/h-x86_64-mingw32/bin/../lib/gcc/nios2-elf/5.3.0\libgcc.a(_clzsi2.o)
 .debug_info    0x00000000000158c0       0xb2 d:/intelfpga_lite/18.0/nios2eds/bin/gnu/h-x86_64-mingw32/bin/../lib/gcc/nios2-elf/5.3.0\libgcc.a(_clz.o)
 .debug_info    0x0000000000015972      0x897 ../Hello_bsp//newlib/nios2-elf/lib\libc.a(lib_a-errno.o)
 .debug_info    0x0000000000016209      0x89d ../Hello_bsp//newlib/nios2-elf/lib\libc.a(lib_a-impure.o)
 .debug_info    0x0000000000016aa6      0x8d3 ../Hello_bsp//newlib/nios2-elf/lib\libc.a(lib_a-malloc.o)
 .debug_info    0x0000000000017379      0xbcb ../Hello_bsp//newlib/nios2-elf/lib\libc.a(lib_a-mallocr.o)
 .debug_info    0x0000000000017f44      0x139 ../Hello_bsp//newlib/nios2-elf/lib\libc.a(lib_a-memcpy.o)
 .debug_info    0x000000000001807d      0x114 ../Hello_bsp//newlib/nios2-elf/lib\libc.a(lib_a-memset.o)
 .debug_info    0x0000000000018191      0x942 ../Hello_bsp//newlib/nios2-elf/lib\libc.a(lib_a-printf.o)
 .debug_info    0x0000000000018ad3      0x8e5 ../Hello_bsp//newlib/nios2-elf/lib\libc.a(lib_a-putchar.o)
 .debug_info    0x00000000000193b8      0x9c1 ../Hello_bsp//newlib/nios2-elf/lib\libc.a(lib_a-puts.o)
 .debug_info    0x0000000000019d79      0x8d6 ../Hello_bsp//newlib/nios2-elf/lib\libc.a(lib_a-rand.o)
 .debug_info    0x000000000001a64f      0x8db ../Hello_bsp//newlib/nios2-elf/lib\libc.a(lib_a-sbrkr.o)
 .debug_info    0x000000000001af2a       0xdd ../Hello_bsp//newlib/nios2-elf/lib\libc.a(lib_a-strlen.o)
 .debug_info    0x000000000001b007      0xfab ../Hello_bsp//newlib/nios2-elf/lib\libc.a(lib_a-vfprintf.o)
 .debug_info    0x000000000001bfb2      0x8d9 ../Hello_bsp//newlib/nios2-elf/lib\libc.a(lib_a-wsetup.o)
 .debug_info    0x000000000001c88b      0xcca ../Hello_bsp//newlib/nios2-elf/lib\libc.a(lib_a-dtoa.o)
 .debug_info    0x000000000001d555      0x9c0 ../Hello_bsp//newlib/nios2-elf/lib\libc.a(lib_a-fflush.o)
 .debug_info    0x000000000001df15      0xbae ../Hello_bsp//newlib/nios2-elf/lib\libc.a(lib_a-findfp.o)
 .debug_info    0x000000000001eac3      0xb01 ../Hello_bsp//newlib/nios2-elf/lib\libc.a(lib_a-freer.o)
 .debug_info    0x000000000001f5c4      0x9da ../Hello_bsp//newlib/nios2-elf/lib\libc.a(lib_a-fvwrite.o)
 .debug_info    0x000000000001ff9e      0x978 ../Hello_bsp//newlib/nios2-elf/lib\libc.a(lib_a-fwalk.o)
 .debug_info    0x0000000000020916       0x86 ../Hello_bsp//newlib/nios2-elf/lib\libc.a(lib_a-int_errno.o)
 .debug_info    0x000000000002099c      0xb5c ../Hello_bsp//newlib/nios2-elf/lib\libc.a(lib_a-locale.o)
 .debug_info    0x00000000000214f8      0xa51 ../Hello_bsp//newlib/nios2-elf/lib\libc.a(lib_a-makebuf.o)
 .debug_info    0x0000000000021f49      0x126 ../Hello_bsp//newlib/nios2-elf/lib\libc.a(lib_a-memchr.o)
 .debug_info    0x000000000002206f      0x12f ../Hello_bsp//newlib/nios2-elf/lib\libc.a(lib_a-memmove.o)
 .debug_info    0x000000000002219e     0x12f1 ../Hello_bsp//newlib/nios2-elf/lib\libc.a(lib_a-mprec.o)
 .debug_info    0x000000000002348f      0x95a ../Hello_bsp//newlib/nios2-elf/lib\libc.a(lib_a-putc.o)
 .debug_info    0x0000000000023de9      0xb38 ../Hello_bsp//newlib/nios2-elf/lib\libc.a(lib_a-reallocr.o)
 .debug_info    0x0000000000024921      0x13e ../Hello_bsp//newlib/nios2-elf/lib\libc.a(lib_a-s_fpclassify.o)
 .debug_info    0x0000000000024a5f      0xa64 ../Hello_bsp//newlib/nios2-elf/lib\libc.a(lib_a-stdio.o)
 .debug_info    0x00000000000254c3       0xdc ../Hello_bsp//newlib/nios2-elf/lib\libc.a(lib_a-strcmp.o)
 .debug_info    0x000000000002559f      0xdc6 ../Hello_bsp//newlib/nios2-elf/lib\libc.a(lib_a-vfiprintf.o)
 .debug_info    0x0000000000026365      0x921 ../Hello_bsp//newlib/nios2-elf/lib\libc.a(lib_a-wbuf.o)
 .debug_info    0x0000000000026c86      0x8f7 ../Hello_bsp//newlib/nios2-elf/lib\libc.a(lib_a-writer.o)
 .debug_info    0x000000000002757d      0x8be ../Hello_bsp//newlib/nios2-elf/lib\libc.a(closer.o)
 .debug_info    0x0000000000027e3b      0x983 ../Hello_bsp//newlib/nios2-elf/lib\libc.a(lib_a-callocr.o)
 .debug_info    0x00000000000287be      0x90c ../Hello_bsp//newlib/nios2-elf/lib\libc.a(lib_a-fclose.o)
 .debug_info    0x00000000000290ca      0x9b5 ../Hello_bsp//newlib/nios2-elf/lib\libc.a(lib_a-fputwc.o)
 .debug_info    0x0000000000029a7f      0xa34 ../Hello_bsp//newlib/nios2-elf/lib\libc.a(lib_a-fstatr.o)
 .debug_info    0x000000000002a4b3      0x8be ../Hello_bsp//newlib/nios2-elf/lib\libc.a(lib_a-isattyr.o)
 .debug_info    0x000000000002ad71      0x8da ../Hello_bsp//newlib/nios2-elf/lib\libc.a(lib_a-lseekr.o)
 .debug_info    0x000000000002b64b      0x8f0 ../Hello_bsp//newlib/nios2-elf/lib\libc.a(lib_a-readr.o)
 .debug_info    0x000000000002bf3b      0x9c6 ../Hello_bsp//newlib/nios2-elf/lib\libc.a(lib_a-wcrtomb.o)
 .debug_info    0x000000000002c901      0x98a ../Hello_bsp//newlib/nios2-elf/lib\libc.a(lib_a-wctomb_r.o)
 .debug_info    0x000000000002d28b      0x1eb d:/intelfpga_lite/18.0/nios2eds/bin/gnu/h-x86_64-mingw32/bin/../lib/gcc/nios2-elf/5.3.0\libgcc.a(_muldi3.o)
 .debug_info    0x000000000002d476      0x70e d:/intelfpga_lite/18.0/nios2eds/bin/gnu/h-x86_64-mingw32/bin/../lib/gcc/nios2-elf/5.3.0\libgcc.a(_udivdi3.o)
 .debug_info    0x000000000002db84      0x765 d:/intelfpga_lite/18.0/nios2eds/bin/gnu/h-x86_64-mingw32/bin/../lib/gcc/nios2-elf/5.3.0\libgcc.a(_umoddi3.o)
 .debug_info    0x000000000002e2e9      0x202 d:/intelfpga_lite/18.0/nios2eds/bin/gnu/h-x86_64-mingw32/bin/../lib/gcc/nios2-elf/5.3.0\libgcc.a(gedf2.o)
 .debug_info    0x000000000002e4eb      0x204 d:/intelfpga_lite/18.0/nios2eds/bin/gnu/h-x86_64-mingw32/bin/../lib/gcc/nios2-elf/5.3.0\libgcc.a(ledf2.o)
 .debug_info    0x000000000002e6ef      0x5f5 d:/intelfpga_lite/18.0/nios2eds/bin/gnu/h-x86_64-mingw32/bin/../lib/gcc/nios2-elf/5.3.0\libgcc.a(muldf3.o)
 .debug_info    0x000000000002ece4      0x1ae d:/intelfpga_lite/18.0/nios2eds/bin/gnu/h-x86_64-mingw32/bin/../lib/gcc/nios2-elf/5.3.0\libgcc.a(fixdfsi.o)
 .debug_info    0x000000000002ee92      0x1bc d:/intelfpga_lite/18.0/nios2eds/bin/gnu/h-x86_64-mingw32/bin/../lib/gcc/nios2-elf/5.3.0\libgcc.a(floatsidf.o)
 .debug_info    0x000000000002f04e      0x1b0 d:/intelfpga_lite/18.0/nios2eds/bin/gnu/h-x86_64-mingw32/bin/../lib/gcc/nios2-elf/5.3.0\libgcc.a(floatunsidf.o)
 .debug_info    0x000000000002f1fe      0x321 ../Hello_bsp/\libhal_bsp.a(alt_close.o)
 .debug_info    0x000000000002f51f      0x49c ../Hello_bsp/\libhal_bsp.a(alt_dev.o)
 .debug_info    0x000000000002f9bb       0xa6 ../Hello_bsp/\libhal_bsp.a(alt_errno.o)
 .debug_info    0x000000000002fa61      0x488 ../Hello_bsp/\libhal_bsp.a(alt_fstat.o)
 .debug_info    0x000000000002fee9      0x48b ../Hello_bsp/\libhal_bsp.a(alt_isatty.o)
 .debug_info    0x0000000000030374      0x145 ../Hello_bsp/\libhal_bsp.a(alt_load.o)
 .debug_info    0x00000000000304b9      0x352 ../Hello_bsp/\libhal_bsp.a(alt_lseek.o)
 .debug_info    0x000000000003080b      0x131 ../Hello_bsp/\libhal_bsp.a(alt_main.o)
 .debug_info    0x000000000003093c      0x8b6 ../Hello_bsp/\libhal_bsp.a(alt_malloc_lock.o)
 .debug_info    0x00000000000311f2      0x4b0 ../Hello_bsp/\libhal_bsp.a(alt_read.o)
 .debug_info    0x00000000000316a2      0x2b0 ../Hello_bsp/\libhal_bsp.a(alt_release_fd.o)
 .debug_info    0x0000000000031952      0x1ac ../Hello_bsp/\libhal_bsp.a(alt_sbrk.o)
 .debug_info    0x0000000000031afe      0x4b7 ../Hello_bsp/\libhal_bsp.a(alt_write.o)
 .debug_info    0x0000000000031fb5      0x4d9 ../Hello_bsp/\libhal_bsp.a(alt_sys_init.o)
 .debug_info    0x000000000003248e      0x52e ../Hello_bsp/\libhal_bsp.a(altera_avalon_jtag_uart_fd.o)
 .debug_info    0x00000000000329bc      0x3a0 ../Hello_bsp/\libhal_bsp.a(altera_avalon_jtag_uart_init.o)
 .debug_info    0x0000000000032d5c      0x280 ../Hello_bsp/\libhal_bsp.a(altera_avalon_jtag_uart_ioctl.o)
 .debug_info    0x0000000000032fdc      0x345 ../Hello_bsp/\libhal_bsp.a(altera_avalon_jtag_uart_read.o)
 .debug_info    0x0000000000033321      0x340 ../Hello_bsp/\libhal_bsp.a(altera_avalon_jtag_uart_write.o)
 .debug_info    0x0000000000033661      0x226 ../Hello_bsp/\libhal_bsp.a(altera_avalon_timer_sc.o)
 .debug_info    0x0000000000033887      0x2cc ../Hello_bsp/\libhal_bsp.a(alt_alarm_start.o)
 .debug_info    0x0000000000033b53       0xa5 ../Hello_bsp/\libhal_bsp.a(alt_dcache_flush_all.o)
 .debug_info    0x0000000000033bf8      0x1a9 ../Hello_bsp/\libhal_bsp.a(alt_dev_llist_insert.o)
 .debug_info    0x0000000000033da1       0x92 ../Hello_bsp/\libhal_bsp.a(alt_icache_flush_all.o)
 .debug_info    0x0000000000033e33      0x350 ../Hello_bsp/\libhal_bsp.a(alt_iic.o)
 .debug_info    0x0000000000034183      0x1ef ../Hello_bsp/\libhal_bsp.a(alt_iic_isr_register.o)
 .debug_info    0x0000000000034372      0x4a5 ../Hello_bsp/\libhal_bsp.a(alt_io_redirect.o)
 .debug_info    0x0000000000034817       0x8d ../Hello_bsp/\libhal_bsp.a(alt_irq_entry.o)
 .debug_info    0x00000000000348a4      0x187 ../Hello_bsp/\libhal_bsp.a(alt_irq_handler.o)
 .debug_info    0x0000000000034a2b       0x88 ../Hello_bsp/\libhal_bsp.a(alt_irq_vars.o)
 .debug_info    0x0000000000034ab3      0x3bb ../Hello_bsp/\libhal_bsp.a(alt_open.o)
 .debug_info    0x0000000000034e6e      0x299 ../Hello_bsp/\libhal_bsp.a(alt_tick.o)
 .debug_info    0x0000000000035107       0x92 ../Hello_bsp/\libhal_bsp.a(altera_nios2_gen2_irq.o)
 .debug_info    0x0000000000035199       0x93 ../Hello_bsp/\libhal_bsp.a(alt_exception_entry.o)
 .debug_info    0x000000000003522c      0x2e9 ../Hello_bsp/\libhal_bsp.a(alt_find_dev.o)
 .debug_info    0x0000000000035515      0x2e6 ../Hello_bsp/\libhal_bsp.a(alt_find_file.o)
 .debug_info    0x00000000000357fb      0x310 ../Hello_bsp/\libhal_bsp.a(alt_get_fd.o)
 .debug_info    0x0000000000035b0b       0xdc ../Hello_bsp/\libhal_bsp.a(alt_icache_flush.o)
 .debug_info    0x0000000000035be7      0x1e7 ../Hello_bsp/\libhal_bsp.a(alt_instruction_exception_entry.o)
 .debug_info    0x0000000000035dce      0x8a0 ../Hello_bsp//newlib/nios2-elf/lib\libc.a(lib_a-exit.o)
 .debug_info    0x000000000003666e      0x10f ../Hello_bsp//newlib/nios2-elf/lib\libc.a(lib_a-memcmp.o)
 .debug_info    0x000000000003677d      0x936 ../Hello_bsp//newlib/nios2-elf/lib\libc.a(lib_a-__call_atexit.o)
 .debug_info    0x00000000000370b3       0xec ../Hello_bsp/\libhal_bsp.a(alt_exit.o)

.debug_abbrev   0x0000000000000000     0xa703
 *(.debug_abbrev)
 .debug_abbrev  0x0000000000000000       0x12 ../Hello_bsp//obj/HAL/src/crt0.o
 .debug_abbrev  0x0000000000000012      0x19a obj/default/src/app.o
 .debug_abbrev  0x00000000000001ac      0x20b obj/default/src/gppcu.o
 .debug_abbrev  0x00000000000003b7      0x1a4 obj/default/src/main.o
 .debug_abbrev  0x000000000000055b      0x195 obj/default/src/mathc.o
 .debug_abbrev  0x00000000000006f0       0xc0 ../Hello_bsp//newlib/nios2-elf/lib\libm.a(lib_a-sf_ceil.o)
 .debug_abbrev  0x00000000000007b0       0xc7 ../Hello_bsp//newlib/nios2-elf/lib\libm.a(lib_a-sf_cos.o)
 .debug_abbrev  0x0000000000000877       0xc0 ../Hello_bsp//newlib/nios2-elf/lib\libm.a(lib_a-sf_floor.o)
 .debug_abbrev  0x0000000000000937       0x51 ../Hello_bsp//newlib/nios2-elf/lib\libm.a(lib_a-sf_fmax.o)
 .debug_abbrev  0x0000000000000988       0x51 ../Hello_bsp//newlib/nios2-elf/lib\libm.a(lib_a-sf_fmin.o)
 .debug_abbrev  0x00000000000009d9       0xac ../Hello_bsp//newlib/nios2-elf/lib\libm.a(lib_a-sf_fpclassify.o)
 .debug_abbrev  0x0000000000000a85       0xb7 ../Hello_bsp//newlib/nios2-elf/lib\libm.a(lib_a-sf_round.o)
 .debug_abbrev  0x0000000000000b3c       0xbe ../Hello_bsp//newlib/nios2-elf/lib\libm.a(lib_a-sf_sin.o)
 .debug_abbrev  0x0000000000000bfa       0xbe ../Hello_bsp//newlib/nios2-elf/lib\libm.a(lib_a-sf_tan.o)
 .debug_abbrev  0x0000000000000cb8       0xcc ../Hello_bsp//newlib/nios2-elf/lib\libm.a(lib_a-wf_acos.o)
 .debug_abbrev  0x0000000000000d84       0x51 ../Hello_bsp//newlib/nios2-elf/lib\libm.a(lib_a-wf_atan2.o)
 .debug_abbrev  0x0000000000000dd5       0xcc ../Hello_bsp//newlib/nios2-elf/lib\libm.a(lib_a-wf_pow.o)
 .debug_abbrev  0x0000000000000ea1       0xcc ../Hello_bsp//newlib/nios2-elf/lib\libm.a(lib_a-wf_sqrt.o)
 .debug_abbrev  0x0000000000000f6d       0xc0 ../Hello_bsp//newlib/nios2-elf/lib\libm.a(lib_a-ef_acos.o)
 .debug_abbrev  0x000000000000102d       0xc0 ../Hello_bsp//newlib/nios2-elf/lib\libm.a(lib_a-ef_atan2.o)
 .debug_abbrev  0x00000000000010ed       0xd2 ../Hello_bsp//newlib/nios2-elf/lib\libm.a(lib_a-ef_pow.o)
 .debug_abbrev  0x00000000000011bf       0xdb ../Hello_bsp//newlib/nios2-elf/lib\libm.a(lib_a-ef_rem_pio2.o)
 .debug_abbrev  0x000000000000129a       0xc0 ../Hello_bsp//newlib/nios2-elf/lib\libm.a(lib_a-ef_sqrt.o)
 .debug_abbrev  0x000000000000135a       0xc0 ../Hello_bsp//newlib/nios2-elf/lib\libm.a(lib_a-kf_cos.o)
 .debug_abbrev  0x000000000000141a       0xbc ../Hello_bsp//newlib/nios2-elf/lib\libm.a(lib_a-kf_rem_pio2.o)
 .debug_abbrev  0x00000000000014d6       0xb5 ../Hello_bsp//newlib/nios2-elf/lib\libm.a(lib_a-kf_sin.o)
 .debug_abbrev  0x000000000000158b       0xd2 ../Hello_bsp//newlib/nios2-elf/lib\libm.a(lib_a-kf_tan.o)
 .debug_abbrev  0x000000000000165d       0x58 ../Hello_bsp//newlib/nios2-elf/lib\libm.a(lib_a-s_lib_ver.o)
 .debug_abbrev  0x00000000000016b5       0x98 ../Hello_bsp//newlib/nios2-elf/lib\libm.a(lib_a-s_matherr.o)
 .debug_abbrev  0x000000000000174d       0x70 ../Hello_bsp//newlib/nios2-elf/lib\libm.a(lib_a-s_nan.o)
 .debug_abbrev  0x00000000000017bd       0xf5 ../Hello_bsp//newlib/nios2-elf/lib\libm.a(lib_a-s_rint.o)
 .debug_abbrev  0x00000000000018b2       0xc7 ../Hello_bsp//newlib/nios2-elf/lib\libm.a(lib_a-sf_atan.o)
 .debug_abbrev  0x0000000000001979       0xb7 ../Hello_bsp//newlib/nios2-elf/lib\libm.a(lib_a-sf_fabs.o)
 .debug_abbrev  0x0000000000001a30       0xac ../Hello_bsp//newlib/nios2-elf/lib\libm.a(lib_a-sf_finite.o)
 .debug_abbrev  0x0000000000001adc       0x70 ../Hello_bsp//newlib/nios2-elf/lib\libm.a(lib_a-sf_nan.o)
 .debug_abbrev  0x0000000000001b4c       0xc0 ../Hello_bsp//newlib/nios2-elf/lib\libm.a(lib_a-sf_scalbn.o)
 .debug_abbrev  0x0000000000001c0c       0xb7 ../Hello_bsp//newlib/nios2-elf/lib\libm.a(lib_a-sf_copysign.o)
 .debug_abbrev  0x0000000000001cc3      0x10e d:/intelfpga_lite/18.0/nios2eds/bin/gnu/h-x86_64-mingw32/bin/../lib/gcc/nios2-elf/5.3.0\libgcc.a(lib2-divmod.o)
 .debug_abbrev  0x0000000000001dd1      0x13a d:/intelfpga_lite/18.0/nios2eds/bin/gnu/h-x86_64-mingw32/bin/../lib/gcc/nios2-elf/5.3.0\libgcc.a(adddf3.o)
 .debug_abbrev  0x0000000000001f0b      0x12d d:/intelfpga_lite/18.0/nios2eds/bin/gnu/h-x86_64-mingw32/bin/../lib/gcc/nios2-elf/5.3.0\libgcc.a(divdf3.o)
 .debug_abbrev  0x0000000000002038      0x128 d:/intelfpga_lite/18.0/nios2eds/bin/gnu/h-x86_64-mingw32/bin/../lib/gcc/nios2-elf/5.3.0\libgcc.a(eqdf2.o)
 .debug_abbrev  0x0000000000002160      0x133 d:/intelfpga_lite/18.0/nios2eds/bin/gnu/h-x86_64-mingw32/bin/../lib/gcc/nios2-elf/5.3.0\libgcc.a(subdf3.o)
 .debug_abbrev  0x0000000000002293      0x124 d:/intelfpga_lite/18.0/nios2eds/bin/gnu/h-x86_64-mingw32/bin/../lib/gcc/nios2-elf/5.3.0\libgcc.a(extendsfdf2.o)
 .debug_abbrev  0x00000000000023b7      0x11b d:/intelfpga_lite/18.0/nios2eds/bin/gnu/h-x86_64-mingw32/bin/../lib/gcc/nios2-elf/5.3.0\libgcc.a(truncdfsf2.o)
 .debug_abbrev  0x00000000000024d2       0xbe d:/intelfpga_lite/18.0/nios2eds/bin/gnu/h-x86_64-mingw32/bin/../lib/gcc/nios2-elf/5.3.0\libgcc.a(_clzsi2.o)
 .debug_abbrev  0x0000000000002590       0x5d d:/intelfpga_lite/18.0/nios2eds/bin/gnu/h-x86_64-mingw32/bin/../lib/gcc/nios2-elf/5.3.0\libgcc.a(_clz.o)
 .debug_abbrev  0x00000000000025ed      0x19c ../Hello_bsp//newlib/nios2-elf/lib\libc.a(lib_a-errno.o)
 .debug_abbrev  0x0000000000002789      0x18d ../Hello_bsp//newlib/nios2-elf/lib\libc.a(lib_a-impure.o)
 .debug_abbrev  0x0000000000002916      0x1c7 ../Hello_bsp//newlib/nios2-elf/lib\libc.a(lib_a-malloc.o)
 .debug_abbrev  0x0000000000002add      0x1fb ../Hello_bsp//newlib/nios2-elf/lib\libc.a(lib_a-mallocr.o)
 .debug_abbrev  0x0000000000002cd8       0xa1 ../Hello_bsp//newlib/nios2-elf/lib\libc.a(lib_a-memcpy.o)
 .debug_abbrev  0x0000000000002d79       0x8e ../Hello_bsp//newlib/nios2-elf/lib\libc.a(lib_a-memset.o)
 .debug_abbrev  0x0000000000002e07      0x1ed ../Hello_bsp//newlib/nios2-elf/lib\libc.a(lib_a-printf.o)
 .debug_abbrev  0x0000000000002ff4      0x1d8 ../Hello_bsp//newlib/nios2-elf/lib\libc.a(lib_a-putchar.o)
 .debug_abbrev  0x00000000000031cc      0x1f5 ../Hello_bsp//newlib/nios2-elf/lib\libc.a(lib_a-puts.o)
 .debug_abbrev  0x00000000000033c1      0x1d6 ../Hello_bsp//newlib/nios2-elf/lib\libc.a(lib_a-rand.o)
 .debug_abbrev  0x0000000000003597      0x1de ../Hello_bsp//newlib/nios2-elf/lib\libc.a(lib_a-sbrkr.o)
 .debug_abbrev  0x0000000000003775       0x7f ../Hello_bsp//newlib/nios2-elf/lib\libc.a(lib_a-strlen.o)
 .debug_abbrev  0x00000000000037f4      0x29b ../Hello_bsp//newlib/nios2-elf/lib\libc.a(lib_a-vfprintf.o)
 .debug_abbrev  0x0000000000003a8f      0x1c5 ../Hello_bsp//newlib/nios2-elf/lib\libc.a(lib_a-wsetup.o)
 .debug_abbrev  0x0000000000003c54      0x22f ../Hello_bsp//newlib/nios2-elf/lib\libc.a(lib_a-dtoa.o)
 .debug_abbrev  0x0000000000003e83      0x21d ../Hello_bsp//newlib/nios2-elf/lib\libc.a(lib_a-fflush.o)
 .debug_abbrev  0x00000000000040a0      0x2ba ../Hello_bsp//newlib/nios2-elf/lib\libc.a(lib_a-findfp.o)
 .debug_abbrev  0x000000000000435a      0x1fd ../Hello_bsp//newlib/nios2-elf/lib\libc.a(lib_a-freer.o)
 .debug_abbrev  0x0000000000004557      0x1d5 ../Hello_bsp//newlib/nios2-elf/lib\libc.a(lib_a-fvwrite.o)
 .debug_abbrev  0x000000000000472c      0x1ba ../Hello_bsp//newlib/nios2-elf/lib\libc.a(lib_a-fwalk.o)
 .debug_abbrev  0x00000000000048e6       0x35 ../Hello_bsp//newlib/nios2-elf/lib\libc.a(lib_a-int_errno.o)
 .debug_abbrev  0x000000000000491b      0x255 ../Hello_bsp//newlib/nios2-elf/lib\libc.a(lib_a-locale.o)
 .debug_abbrev  0x0000000000004b70      0x1b8 ../Hello_bsp//newlib/nios2-elf/lib\libc.a(lib_a-makebuf.o)
 .debug_abbrev  0x0000000000004d28       0xa9 ../Hello_bsp//newlib/nios2-elf/lib\libc.a(lib_a-memchr.o)
 .debug_abbrev  0x0000000000004dd1       0x9a ../Hello_bsp//newlib/nios2-elf/lib\libc.a(lib_a-memmove.o)
 .debug_abbrev  0x0000000000004e6b      0x2a9 ../Hello_bsp//newlib/nios2-elf/lib\libc.a(lib_a-mprec.o)
 .debug_abbrev  0x0000000000005114      0x1e1 ../Hello_bsp//newlib/nios2-elf/lib\libc.a(lib_a-putc.o)
 .debug_abbrev  0x00000000000052f5      0x1fe ../Hello_bsp//newlib/nios2-elf/lib\libc.a(lib_a-reallocr.o)
 .debug_abbrev  0x00000000000054f3       0xc8 ../Hello_bsp//newlib/nios2-elf/lib\libc.a(lib_a-s_fpclassify.o)
 .debug_abbrev  0x00000000000055bb      0x1f0 ../Hello_bsp//newlib/nios2-elf/lib\libc.a(lib_a-stdio.o)
 .debug_abbrev  0x00000000000057ab       0x72 ../Hello_bsp//newlib/nios2-elf/lib\libc.a(lib_a-strcmp.o)
 .debug_abbrev  0x000000000000581d      0x26e ../Hello_bsp//newlib/nios2-elf/lib\libc.a(lib_a-vfiprintf.o)
 .debug_abbrev  0x0000000000005a8b      0x1f0 ../Hello_bsp//newlib/nios2-elf/lib\libc.a(lib_a-wbuf.o)
 .debug_abbrev  0x0000000000005c7b      0x1c1 ../Hello_bsp//newlib/nios2-elf/lib\libc.a(lib_a-writer.o)
 .debug_abbrev  0x0000000000005e3c      0x1bc ../Hello_bsp//newlib/nios2-elf/lib\libc.a(closer.o)
 .debug_abbrev  0x0000000000005ff8      0x1d2 ../Hello_bsp//newlib/nios2-elf/lib\libc.a(lib_a-callocr.o)
 .debug_abbrev  0x00000000000061ca      0x1ff ../Hello_bsp//newlib/nios2-elf/lib\libc.a(lib_a-fclose.o)
 .debug_abbrev  0x00000000000063c9      0x1d4 ../Hello_bsp//newlib/nios2-elf/lib\libc.a(lib_a-fputwc.o)
 .debug_abbrev  0x000000000000659d      0x1cb ../Hello_bsp//newlib/nios2-elf/lib\libc.a(lib_a-fstatr.o)
 .debug_abbrev  0x0000000000006768      0x1bc ../Hello_bsp//newlib/nios2-elf/lib\libc.a(lib_a-isattyr.o)
 .debug_abbrev  0x0000000000006924      0x1cb ../Hello_bsp//newlib/nios2-elf/lib\libc.a(lib_a-lseekr.o)
 .debug_abbrev  0x0000000000006aef      0x1bc ../Hello_bsp//newlib/nios2-elf/lib\libc.a(lib_a-readr.o)
 .debug_abbrev  0x0000000000006cab      0x1e3 ../Hello_bsp//newlib/nios2-elf/lib\libc.a(lib_a-wcrtomb.o)
 .debug_abbrev  0x0000000000006e8e      0x1e7 ../Hello_bsp//newlib/nios2-elf/lib\libc.a(lib_a-wctomb_r.o)
 .debug_abbrev  0x0000000000007075       0xef d:/intelfpga_lite/18.0/nios2eds/bin/gnu/h-x86_64-mingw32/bin/../lib/gcc/nios2-elf/5.3.0\libgcc.a(_muldi3.o)
 .debug_abbrev  0x0000000000007164      0x167 d:/intelfpga_lite/18.0/nios2eds/bin/gnu/h-x86_64-mingw32/bin/../lib/gcc/nios2-elf/5.3.0\libgcc.a(_udivdi3.o)
 .debug_abbrev  0x00000000000072cb      0x18a d:/intelfpga_lite/18.0/nios2eds/bin/gnu/h-x86_64-mingw32/bin/../lib/gcc/nios2-elf/5.3.0\libgcc.a(_umoddi3.o)
 .debug_abbrev  0x0000000000007455      0x137 d:/intelfpga_lite/18.0/nios2eds/bin/gnu/h-x86_64-mingw32/bin/../lib/gcc/nios2-elf/5.3.0\libgcc.a(gedf2.o)
 .debug_abbrev  0x000000000000758c      0x137 d:/intelfpga_lite/18.0/nios2eds/bin/gnu/h-x86_64-mingw32/bin/../lib/gcc/nios2-elf/5.3.0\libgcc.a(ledf2.o)
 .debug_abbrev  0x00000000000076c3      0x13f d:/intelfpga_lite/18.0/nios2eds/bin/gnu/h-x86_64-mingw32/bin/../lib/gcc/nios2-elf/5.3.0\libgcc.a(muldf3.o)
 .debug_abbrev  0x0000000000007802      0x135 d:/intelfpga_lite/18.0/nios2eds/bin/gnu/h-x86_64-mingw32/bin/../lib/gcc/nios2-elf/5.3.0\libgcc.a(fixdfsi.o)
 .debug_abbrev  0x0000000000007937      0x124 d:/intelfpga_lite/18.0/nios2eds/bin/gnu/h-x86_64-mingw32/bin/../lib/gcc/nios2-elf/5.3.0\libgcc.a(floatsidf.o)
 .debug_abbrev  0x0000000000007a5b      0x124 d:/intelfpga_lite/18.0/nios2eds/bin/gnu/h-x86_64-mingw32/bin/../lib/gcc/nios2-elf/5.3.0\libgcc.a(floatunsidf.o)
 .debug_abbrev  0x0000000000007b7f      0x11f ../Hello_bsp/\libhal_bsp.a(alt_close.o)
 .debug_abbrev  0x0000000000007c9e       0xd9 ../Hello_bsp/\libhal_bsp.a(alt_dev.o)
 .debug_abbrev  0x0000000000007d77       0x5a ../Hello_bsp/\libhal_bsp.a(alt_errno.o)
 .debug_abbrev  0x0000000000007dd1      0x11f ../Hello_bsp/\libhal_bsp.a(alt_fstat.o)
 .debug_abbrev  0x0000000000007ef0      0x11f ../Hello_bsp/\libhal_bsp.a(alt_isatty.o)
 .debug_abbrev  0x000000000000800f       0x9f ../Hello_bsp/\libhal_bsp.a(alt_load.o)
 .debug_abbrev  0x00000000000080ae      0x11f ../Hello_bsp/\libhal_bsp.a(alt_lseek.o)
 .debug_abbrev  0x00000000000081cd       0xba ../Hello_bsp/\libhal_bsp.a(alt_main.o)
 .debug_abbrev  0x0000000000008287      0x1b4 ../Hello_bsp/\libhal_bsp.a(alt_malloc_lock.o)
 .debug_abbrev  0x000000000000843b      0x12e ../Hello_bsp/\libhal_bsp.a(alt_read.o)
 .debug_abbrev  0x0000000000008569       0xde ../Hello_bsp/\libhal_bsp.a(alt_release_fd.o)
 .debug_abbrev  0x0000000000008647      0x112 ../Hello_bsp/\libhal_bsp.a(alt_sbrk.o)
 .debug_abbrev  0x0000000000008759      0x133 ../Hello_bsp/\libhal_bsp.a(alt_write.o)
 .debug_abbrev  0x000000000000888c      0x187 ../Hello_bsp/\libhal_bsp.a(alt_sys_init.o)
 .debug_abbrev  0x0000000000008a13      0x127 ../Hello_bsp/\libhal_bsp.a(altera_avalon_jtag_uart_fd.o)
 .debug_abbrev  0x0000000000008b3a      0x19e ../Hello_bsp/\libhal_bsp.a(altera_avalon_jtag_uart_init.o)
 .debug_abbrev  0x0000000000008cd8      0x111 ../Hello_bsp/\libhal_bsp.a(altera_avalon_jtag_uart_ioctl.o)
 .debug_abbrev  0x0000000000008de9      0x1aa ../Hello_bsp/\libhal_bsp.a(altera_avalon_jtag_uart_read.o)
 .debug_abbrev  0x0000000000008f93      0x1a8 ../Hello_bsp/\libhal_bsp.a(altera_avalon_jtag_uart_write.o)
 .debug_abbrev  0x000000000000913b      0x155 ../Hello_bsp/\libhal_bsp.a(altera_avalon_timer_sc.o)
 .debug_abbrev  0x0000000000009290      0x162 ../Hello_bsp/\libhal_bsp.a(alt_alarm_start.o)
 .debug_abbrev  0x00000000000093f2       0x5a ../Hello_bsp/\libhal_bsp.a(alt_dcache_flush_all.o)
 .debug_abbrev  0x000000000000944c      0x114 ../Hello_bsp/\libhal_bsp.a(alt_dev_llist_insert.o)
 .debug_abbrev  0x0000000000009560       0x42 ../Hello_bsp/\libhal_bsp.a(alt_icache_flush_all.o)
 .debug_abbrev  0x00000000000095a2      0x163 ../Hello_bsp/\libhal_bsp.a(alt_iic.o)
 .debug_abbrev  0x0000000000009705      0x169 ../Hello_bsp/\libhal_bsp.a(alt_iic_isr_register.o)
 .debug_abbrev  0x000000000000986e      0x114 ../Hello_bsp/\libhal_bsp.a(alt_io_redirect.o)
 .debug_abbrev  0x0000000000009982       0x12 ../Hello_bsp/\libhal_bsp.a(alt_irq_entry.o)
 .debug_abbrev  0x0000000000009994      0x122 ../Hello_bsp/\libhal_bsp.a(alt_irq_handler.o)
 .debug_abbrev  0x0000000000009ab6       0x40 ../Hello_bsp/\libhal_bsp.a(alt_irq_vars.o)
 .debug_abbrev  0x0000000000009af6      0x148 ../Hello_bsp/\libhal_bsp.a(alt_open.o)
 .debug_abbrev  0x0000000000009c3e      0x15a ../Hello_bsp/\libhal_bsp.a(alt_tick.o)
 .debug_abbrev  0x0000000000009d98       0x42 ../Hello_bsp/\libhal_bsp.a(altera_nios2_gen2_irq.o)
 .debug_abbrev  0x0000000000009dda       0x12 ../Hello_bsp/\libhal_bsp.a(alt_exception_entry.o)
 .debug_abbrev  0x0000000000009dec       0xf0 ../Hello_bsp/\libhal_bsp.a(alt_find_dev.o)
 .debug_abbrev  0x0000000000009edc       0xf0 ../Hello_bsp/\libhal_bsp.a(alt_find_file.o)
 .debug_abbrev  0x0000000000009fcc      0x10d ../Hello_bsp/\libhal_bsp.a(alt_get_fd.o)
 .debug_abbrev  0x000000000000a0d9       0x8c ../Hello_bsp/\libhal_bsp.a(alt_icache_flush.o)
 .debug_abbrev  0x000000000000a165       0xdc ../Hello_bsp/\libhal_bsp.a(alt_instruction_exception_entry.o)
 .debug_abbrev  0x000000000000a241      0x1ae ../Hello_bsp//newlib/nios2-elf/lib\libc.a(lib_a-exit.o)
 .debug_abbrev  0x000000000000a3ef       0x7d ../Hello_bsp//newlib/nios2-elf/lib\libc.a(lib_a-memcmp.o)
 .debug_abbrev  0x000000000000a46c      0x1ee ../Hello_bsp//newlib/nios2-elf/lib\libc.a(lib_a-__call_atexit.o)
 .debug_abbrev  0x000000000000a65a       0xa9 ../Hello_bsp/\libhal_bsp.a(alt_exit.o)

.debug_line     0x0000000000000000    0x10372
 *(.debug_line)
 .debug_line    0x0000000000000000       0x72 ../Hello_bsp//obj/HAL/src/crt0.o
 .debug_line    0x0000000000000072      0x228 obj/default/src/app.o
 .debug_line    0x000000000000029a      0x377 obj/default/src/gppcu.o
 .debug_line    0x0000000000000611      0x302 obj/default/src/main.o
 .debug_line    0x0000000000000913     0x22e9 obj/default/src/mathc.o
 .debug_line    0x0000000000002bfc        0x0 obj/default/src/utils.o
 .debug_line    0x0000000000002bfc      0x1ce ../Hello_bsp//newlib/nios2-elf/lib\libm.a(lib_a-sf_ceil.o)
 .debug_line    0x0000000000002dca      0x1ba ../Hello_bsp//newlib/nios2-elf/lib\libm.a(lib_a-sf_cos.o)
 .debug_line    0x0000000000002f84      0x1c9 ../Hello_bsp//newlib/nios2-elf/lib\libm.a(lib_a-sf_floor.o)
 .debug_line    0x000000000000314d       0xec ../Hello_bsp//newlib/nios2-elf/lib\libm.a(lib_a-sf_fmax.o)
 .debug_line    0x0000000000003239       0xec ../Hello_bsp//newlib/nios2-elf/lib\libm.a(lib_a-sf_fmin.o)
 .debug_line    0x0000000000003325      0x184 ../Hello_bsp//newlib/nios2-elf/lib\libm.a(lib_a-sf_fpclassify.o)
 .debug_line    0x00000000000034a9      0x162 ../Hello_bsp//newlib/nios2-elf/lib\libm.a(lib_a-sf_round.o)
 .debug_line    0x000000000000360b      0x1ba ../Hello_bsp//newlib/nios2-elf/lib\libm.a(lib_a-sf_sin.o)
 .debug_line    0x00000000000037c5      0x1b2 ../Hello_bsp//newlib/nios2-elf/lib\libm.a(lib_a-sf_tan.o)
 .debug_line    0x0000000000003977       0xfe ../Hello_bsp//newlib/nios2-elf/lib\libm.a(lib_a-wf_acos.o)
 .debug_line    0x0000000000003a75       0xdb ../Hello_bsp//newlib/nios2-elf/lib\libm.a(lib_a-wf_atan2.o)
 .debug_line    0x0000000000003b50      0x1ad ../Hello_bsp//newlib/nios2-elf/lib\libm.a(lib_a-wf_pow.o)
 .debug_line    0x0000000000003cfd      0x100 ../Hello_bsp//newlib/nios2-elf/lib\libm.a(lib_a-wf_sqrt.o)
 .debug_line    0x0000000000003dfd      0x18a ../Hello_bsp//newlib/nios2-elf/lib\libm.a(lib_a-ef_acos.o)
 .debug_line    0x0000000000003f87      0x1c8 ../Hello_bsp//newlib/nios2-elf/lib\libm.a(lib_a-ef_atan2.o)
 .debug_line    0x000000000000414f      0x2ce ../Hello_bsp//newlib/nios2-elf/lib\libm.a(lib_a-ef_pow.o)
 .debug_line    0x000000000000441d      0x1f6 ../Hello_bsp//newlib/nios2-elf/lib\libm.a(lib_a-ef_rem_pio2.o)
 .debug_line    0x0000000000004613      0x18e ../Hello_bsp//newlib/nios2-elf/lib\libm.a(lib_a-ef_sqrt.o)
 .debug_line    0x00000000000047a1      0x15d ../Hello_bsp//newlib/nios2-elf/lib\libm.a(lib_a-kf_cos.o)
 .debug_line    0x00000000000048fe      0x33a ../Hello_bsp//newlib/nios2-elf/lib\libm.a(lib_a-kf_rem_pio2.o)
 .debug_line    0x0000000000004c38      0x15d ../Hello_bsp//newlib/nios2-elf/lib\libm.a(lib_a-kf_sin.o)
 .debug_line    0x0000000000004d95      0x198 ../Hello_bsp//newlib/nios2-elf/lib\libm.a(lib_a-kf_tan.o)
 .debug_line    0x0000000000004f2d       0xcb ../Hello_bsp//newlib/nios2-elf/lib\libm.a(lib_a-s_lib_ver.o)
 .debug_line    0x0000000000004ff8       0xe9 ../Hello_bsp//newlib/nios2-elf/lib\libm.a(lib_a-s_matherr.o)
 .debug_line    0x00000000000050e1       0xd9 ../Hello_bsp//newlib/nios2-elf/lib\libm.a(lib_a-s_nan.o)
 .debug_line    0x00000000000051ba      0x1b9 ../Hello_bsp//newlib/nios2-elf/lib\libm.a(lib_a-s_rint.o)
 .debug_line    0x0000000000005373      0x1e4 ../Hello_bsp//newlib/nios2-elf/lib\libm.a(lib_a-sf_atan.o)
 .debug_line    0x0000000000005557      0x198 ../Hello_bsp//newlib/nios2-elf/lib\libm.a(lib_a-sf_fabs.o)
 .debug_line    0x00000000000056ef      0x152 ../Hello_bsp//newlib/nios2-elf/lib\libm.a(lib_a-sf_finite.o)
 .debug_line    0x0000000000005841       0xd8 ../Hello_bsp//newlib/nios2-elf/lib\libm.a(lib_a-sf_nan.o)
 .debug_line    0x0000000000005919      0x181 ../Hello_bsp//newlib/nios2-elf/lib\libm.a(lib_a-sf_scalbn.o)
 .debug_line    0x0000000000005a9a      0x157 ../Hello_bsp//newlib/nios2-elf/lib\libm.a(lib_a-sf_copysign.o)
 .debug_line    0x0000000000005bf1      0x102 d:/intelfpga_lite/18.0/nios2eds/bin/gnu/h-x86_64-mingw32/bin/../lib/gcc/nios2-elf/5.3.0\libgcc.a(lib2-divmod.o)
 .debug_line    0x0000000000005cf3      0x37b d:/intelfpga_lite/18.0/nios2eds/bin/gnu/h-x86_64-mingw32/bin/../lib/gcc/nios2-elf/5.3.0\libgcc.a(adddf3.o)
 .debug_line    0x000000000000606e      0x2ad d:/intelfpga_lite/18.0/nios2eds/bin/gnu/h-x86_64-mingw32/bin/../lib/gcc/nios2-elf/5.3.0\libgcc.a(divdf3.o)
 .debug_line    0x000000000000631b       0xaa d:/intelfpga_lite/18.0/nios2eds/bin/gnu/h-x86_64-mingw32/bin/../lib/gcc/nios2-elf/5.3.0\libgcc.a(eqdf2.o)
 .debug_line    0x00000000000063c5      0x3a8 d:/intelfpga_lite/18.0/nios2eds/bin/gnu/h-x86_64-mingw32/bin/../lib/gcc/nios2-elf/5.3.0\libgcc.a(subdf3.o)
 .debug_line    0x000000000000676d       0xc1 d:/intelfpga_lite/18.0/nios2eds/bin/gnu/h-x86_64-mingw32/bin/../lib/gcc/nios2-elf/5.3.0\libgcc.a(extendsfdf2.o)
 .debug_line    0x000000000000682e       0xf7 d:/intelfpga_lite/18.0/nios2eds/bin/gnu/h-x86_64-mingw32/bin/../lib/gcc/nios2-elf/5.3.0\libgcc.a(truncdfsf2.o)
 .debug_line    0x0000000000006925       0xb7 d:/intelfpga_lite/18.0/nios2eds/bin/gnu/h-x86_64-mingw32/bin/../lib/gcc/nios2-elf/5.3.0\libgcc.a(_clzsi2.o)
 .debug_line    0x00000000000069dc       0x53 d:/intelfpga_lite/18.0/nios2eds/bin/gnu/h-x86_64-mingw32/bin/../lib/gcc/nios2-elf/5.3.0\libgcc.a(_clz.o)
 .debug_line    0x0000000000006a2f      0x162 ../Hello_bsp//newlib/nios2-elf/lib\libc.a(lib_a-errno.o)
 .debug_line    0x0000000000006b91      0x147 ../Hello_bsp//newlib/nios2-elf/lib\libc.a(lib_a-impure.o)
 .debug_line    0x0000000000006cd8      0x1c5 ../Hello_bsp//newlib/nios2-elf/lib\libc.a(lib_a-malloc.o)
 .debug_line    0x0000000000006e9d      0x37f ../Hello_bsp//newlib/nios2-elf/lib\libc.a(lib_a-mallocr.o)
 .debug_line    0x000000000000721c      0x16a ../Hello_bsp//newlib/nios2-elf/lib\libc.a(lib_a-memcpy.o)
 .debug_line    0x0000000000007386      0x17b ../Hello_bsp//newlib/nios2-elf/lib\libc.a(lib_a-memset.o)
 .debug_line    0x0000000000007501      0x1d5 ../Hello_bsp//newlib/nios2-elf/lib\libc.a(lib_a-printf.o)
 .debug_line    0x00000000000076d6      0x1c7 ../Hello_bsp//newlib/nios2-elf/lib\libc.a(lib_a-putchar.o)
 .debug_line    0x000000000000789d      0x20c ../Hello_bsp//newlib/nios2-elf/lib\libc.a(lib_a-puts.o)
 .debug_line    0x0000000000007aa9      0x1cb ../Hello_bsp//newlib/nios2-elf/lib\libc.a(lib_a-rand.o)
 .debug_line    0x0000000000007c74      0x1b9 ../Hello_bsp//newlib/nios2-elf/lib\libc.a(lib_a-sbrkr.o)
 .debug_line    0x0000000000007e2d      0x154 ../Hello_bsp//newlib/nios2-elf/lib\libc.a(lib_a-strlen.o)
 .debug_line    0x0000000000007f81      0x9d0 ../Hello_bsp//newlib/nios2-elf/lib\libc.a(lib_a-vfprintf.o)
 .debug_line    0x0000000000008951      0x1fd ../Hello_bsp//newlib/nios2-elf/lib\libc.a(lib_a-wsetup.o)
 .debug_line    0x0000000000008b4e      0x645 ../Hello_bsp//newlib/nios2-elf/lib\libc.a(lib_a-dtoa.o)
 .debug_line    0x0000000000009193      0x283 ../Hello_bsp//newlib/nios2-elf/lib\libc.a(lib_a-fflush.o)
 .debug_line    0x0000000000009416      0x314 ../Hello_bsp//newlib/nios2-elf/lib\libc.a(lib_a-findfp.o)
 .debug_line    0x000000000000972a      0x24e ../Hello_bsp//newlib/nios2-elf/lib\libc.a(lib_a-freer.o)
 .debug_line    0x0000000000009978      0x2aa ../Hello_bsp//newlib/nios2-elf/lib\libc.a(lib_a-fvwrite.o)
 .debug_line    0x0000000000009c22      0x21f ../Hello_bsp//newlib/nios2-elf/lib\libc.a(lib_a-fwalk.o)
 .debug_line    0x0000000000009e41       0x75 ../Hello_bsp//newlib/nios2-elf/lib\libc.a(lib_a-int_errno.o)
 .debug_line    0x0000000000009eb6      0x251 ../Hello_bsp//newlib/nios2-elf/lib\libc.a(lib_a-locale.o)
 .debug_line    0x000000000000a107      0x207 ../Hello_bsp//newlib/nios2-elf/lib\libc.a(lib_a-makebuf.o)
 .debug_line    0x000000000000a30e      0x17a ../Hello_bsp//newlib/nios2-elf/lib\libc.a(lib_a-memchr.o)
 .debug_line    0x000000000000a488      0x17e ../Hello_bsp//newlib/nios2-elf/lib\libc.a(lib_a-memmove.o)
 .debug_line    0x000000000000a606      0x66f ../Hello_bsp//newlib/nios2-elf/lib\libc.a(lib_a-mprec.o)
 .debug_line    0x000000000000ac75      0x244 ../Hello_bsp//newlib/nios2-elf/lib\libc.a(lib_a-putc.o)
 .debug_line    0x000000000000aeb9      0x2cc ../Hello_bsp//newlib/nios2-elf/lib\libc.a(lib_a-reallocr.o)
 .debug_line    0x000000000000b185      0x18f ../Hello_bsp//newlib/nios2-elf/lib\libc.a(lib_a-s_fpclassify.o)
 .debug_line    0x000000000000b314      0x227 ../Hello_bsp//newlib/nios2-elf/lib\libc.a(lib_a-stdio.o)
 .debug_line    0x000000000000b53b      0x100 ../Hello_bsp//newlib/nios2-elf/lib\libc.a(lib_a-strcmp.o)
 .debug_line    0x000000000000b63b      0x692 ../Hello_bsp//newlib/nios2-elf/lib\libc.a(lib_a-vfiprintf.o)
 .debug_line    0x000000000000bccd      0x203 ../Hello_bsp//newlib/nios2-elf/lib\libc.a(lib_a-wbuf.o)
 .debug_line    0x000000000000bed0      0x1ba ../Hello_bsp//newlib/nios2-elf/lib\libc.a(lib_a-writer.o)
 .debug_line    0x000000000000c08a      0x1ba ../Hello_bsp//newlib/nios2-elf/lib\libc.a(closer.o)
 .debug_line    0x000000000000c244      0x193 ../Hello_bsp//newlib/nios2-elf/lib\libc.a(lib_a-callocr.o)
 .debug_line    0x000000000000c3d7      0x1fa ../Hello_bsp//newlib/nios2-elf/lib\libc.a(lib_a-fclose.o)
 .debug_line    0x000000000000c5d1      0x249 ../Hello_bsp//newlib/nios2-elf/lib\libc.a(lib_a-fputwc.o)
 .debug_line    0x000000000000c81a      0x1cf ../Hello_bsp//newlib/nios2-elf/lib\libc.a(lib_a-fstatr.o)
 .debug_line    0x000000000000c9e9      0x1bb ../Hello_bsp//newlib/nios2-elf/lib\libc.a(lib_a-isattyr.o)
 .debug_line    0x000000000000cba4      0x1ba ../Hello_bsp//newlib/nios2-elf/lib\libc.a(lib_a-lseekr.o)
 .debug_line    0x000000000000cd5e      0x1b9 ../Hello_bsp//newlib/nios2-elf/lib\libc.a(lib_a-readr.o)
 .debug_line    0x000000000000cf17      0x1f4 ../Hello_bsp//newlib/nios2-elf/lib\libc.a(lib_a-wcrtomb.o)
 .debug_line    0x000000000000d10b      0x1da ../Hello_bsp//newlib/nios2-elf/lib\libc.a(lib_a-wctomb_r.o)
 .debug_line    0x000000000000d2e5       0x86 d:/intelfpga_lite/18.0/nios2eds/bin/gnu/h-x86_64-mingw32/bin/../lib/gcc/nios2-elf/5.3.0\libgcc.a(_muldi3.o)
 .debug_line    0x000000000000d36b      0x12a d:/intelfpga_lite/18.0/nios2eds/bin/gnu/h-x86_64-mingw32/bin/../lib/gcc/nios2-elf/5.3.0\libgcc.a(_udivdi3.o)
 .debug_line    0x000000000000d495      0x13a d:/intelfpga_lite/18.0/nios2eds/bin/gnu/h-x86_64-mingw32/bin/../lib/gcc/nios2-elf/5.3.0\libgcc.a(_umoddi3.o)
 .debug_line    0x000000000000d5cf       0xcb d:/intelfpga_lite/18.0/nios2eds/bin/gnu/h-x86_64-mingw32/bin/../lib/gcc/nios2-elf/5.3.0\libgcc.a(gedf2.o)
 .debug_line    0x000000000000d69a       0xe3 d:/intelfpga_lite/18.0/nios2eds/bin/gnu/h-x86_64-mingw32/bin/../lib/gcc/nios2-elf/5.3.0\libgcc.a(ledf2.o)
 .debug_line    0x000000000000d77d      0x1e3 d:/intelfpga_lite/18.0/nios2eds/bin/gnu/h-x86_64-mingw32/bin/../lib/gcc/nios2-elf/5.3.0\libgcc.a(muldf3.o)
 .debug_line    0x000000000000d960       0x98 d:/intelfpga_lite/18.0/nios2eds/bin/gnu/h-x86_64-mingw32/bin/../lib/gcc/nios2-elf/5.3.0\libgcc.a(fixdfsi.o)
 .debug_line    0x000000000000d9f8       0x9f d:/intelfpga_lite/18.0/nios2eds/bin/gnu/h-x86_64-mingw32/bin/../lib/gcc/nios2-elf/5.3.0\libgcc.a(floatsidf.o)
 .debug_line    0x000000000000da97       0x92 d:/intelfpga_lite/18.0/nios2eds/bin/gnu/h-x86_64-mingw32/bin/../lib/gcc/nios2-elf/5.3.0\libgcc.a(floatunsidf.o)
 .debug_line    0x000000000000db29      0x10a ../Hello_bsp/\libhal_bsp.a(alt_close.o)
 .debug_line    0x000000000000dc33       0xc8 ../Hello_bsp/\libhal_bsp.a(alt_dev.o)
 .debug_line    0x000000000000dcfb       0x51 ../Hello_bsp/\libhal_bsp.a(alt_errno.o)
 .debug_line    0x000000000000dd4c      0x12e ../Hello_bsp/\libhal_bsp.a(alt_fstat.o)
 .debug_line    0x000000000000de7a      0x132 ../Hello_bsp/\libhal_bsp.a(alt_isatty.o)
 .debug_line    0x000000000000dfac       0x8e ../Hello_bsp/\libhal_bsp.a(alt_load.o)
 .debug_line    0x000000000000e03a      0x127 ../Hello_bsp/\libhal_bsp.a(alt_lseek.o)
 .debug_line    0x000000000000e161       0x9e ../Hello_bsp/\libhal_bsp.a(alt_main.o)
 .debug_line    0x000000000000e1ff       0xf2 ../Hello_bsp/\libhal_bsp.a(alt_malloc_lock.o)
 .debug_line    0x000000000000e2f1      0x1a0 ../Hello_bsp/\libhal_bsp.a(alt_read.o)
 .debug_line    0x000000000000e491       0xae ../Hello_bsp/\libhal_bsp.a(alt_release_fd.o)
 .debug_line    0x000000000000e53f       0xc3 ../Hello_bsp/\libhal_bsp.a(alt_sbrk.o)
 .debug_line    0x000000000000e602      0x19f ../Hello_bsp/\libhal_bsp.a(alt_write.o)
 .debug_line    0x000000000000e7a1      0x152 ../Hello_bsp/\libhal_bsp.a(alt_sys_init.o)
 .debug_line    0x000000000000e8f3      0x12f ../Hello_bsp/\libhal_bsp.a(altera_avalon_jtag_uart_fd.o)
 .debug_line    0x000000000000ea22      0x18b ../Hello_bsp/\libhal_bsp.a(altera_avalon_jtag_uart_init.o)
 .debug_line    0x000000000000ebad      0x131 ../Hello_bsp/\libhal_bsp.a(altera_avalon_jtag_uart_ioctl.o)
 .debug_line    0x000000000000ecde      0x171 ../Hello_bsp/\libhal_bsp.a(altera_avalon_jtag_uart_read.o)
 .debug_line    0x000000000000ee4f      0x170 ../Hello_bsp/\libhal_bsp.a(altera_avalon_jtag_uart_write.o)
 .debug_line    0x000000000000efbf       0xfd ../Hello_bsp/\libhal_bsp.a(altera_avalon_timer_sc.o)
 .debug_line    0x000000000000f0bc       0xf9 ../Hello_bsp/\libhal_bsp.a(alt_alarm_start.o)
 .debug_line    0x000000000000f1b5       0x61 ../Hello_bsp/\libhal_bsp.a(alt_dcache_flush_all.o)
 .debug_line    0x000000000000f216       0xcf ../Hello_bsp/\libhal_bsp.a(alt_dev_llist_insert.o)
 .debug_line    0x000000000000f2e5       0x50 ../Hello_bsp/\libhal_bsp.a(alt_icache_flush_all.o)
 .debug_line    0x000000000000f335       0xeb ../Hello_bsp/\libhal_bsp.a(alt_iic.o)
 .debug_line    0x000000000000f420       0xdb ../Hello_bsp/\libhal_bsp.a(alt_iic_isr_register.o)
 .debug_line    0x000000000000f4fb      0x103 ../Hello_bsp/\libhal_bsp.a(alt_io_redirect.o)
 .debug_line    0x000000000000f5fe       0x6b ../Hello_bsp/\libhal_bsp.a(alt_irq_entry.o)
 .debug_line    0x000000000000f669       0xaa ../Hello_bsp/\libhal_bsp.a(alt_irq_handler.o)
 .debug_line    0x000000000000f713       0x50 ../Hello_bsp/\libhal_bsp.a(alt_irq_vars.o)
 .debug_line    0x000000000000f763      0x128 ../Hello_bsp/\libhal_bsp.a(alt_open.o)
 .debug_line    0x000000000000f88b       0xff ../Hello_bsp/\libhal_bsp.a(alt_tick.o)
 .debug_line    0x000000000000f98a       0x51 ../Hello_bsp/\libhal_bsp.a(altera_nios2_gen2_irq.o)
 .debug_line    0x000000000000f9db       0xb3 ../Hello_bsp/\libhal_bsp.a(alt_exception_entry.o)
 .debug_line    0x000000000000fa8e       0xb5 ../Hello_bsp/\libhal_bsp.a(alt_find_dev.o)
 .debug_line    0x000000000000fb43       0xd1 ../Hello_bsp/\libhal_bsp.a(alt_find_file.o)
 .debug_line    0x000000000000fc14       0xd4 ../Hello_bsp/\libhal_bsp.a(alt_get_fd.o)
 .debug_line    0x000000000000fce8       0x81 ../Hello_bsp/\libhal_bsp.a(alt_icache_flush.o)
 .debug_line    0x000000000000fd69       0xba ../Hello_bsp/\libhal_bsp.a(alt_instruction_exception_entry.o)
 .debug_line    0x000000000000fe23      0x1b2 ../Hello_bsp//newlib/nios2-elf/lib\libc.a(lib_a-exit.o)
 .debug_line    0x000000000000ffd5      0x164 ../Hello_bsp//newlib/nios2-elf/lib\libc.a(lib_a-memcmp.o)
 .debug_line    0x0000000000010139      0x1c8 ../Hello_bsp//newlib/nios2-elf/lib\libc.a(lib_a-__call_atexit.o)
 .debug_line    0x0000000000010301       0x71 ../Hello_bsp/\libhal_bsp.a(alt_exit.o)

.debug_frame    0x0000000000000000     0xb4cc
 *(.debug_frame)
 .debug_frame   0x0000000000000000      0x214 obj/default/src/app.o
 .debug_frame   0x0000000000000214      0x3b8 obj/default/src/gppcu.o
 .debug_frame   0x00000000000005cc      0x270 obj/default/src/main.o
 .debug_frame   0x000000000000083c     0x8168 obj/default/src/mathc.o
 .debug_frame   0x00000000000089a4       0x34 ../Hello_bsp//newlib/nios2-elf/lib\libm.a(lib_a-sf_ceil.o)
 .debug_frame   0x00000000000089d8       0x38 ../Hello_bsp//newlib/nios2-elf/lib\libm.a(lib_a-sf_cos.o)
 .debug_frame   0x0000000000008a10       0x34 ../Hello_bsp//newlib/nios2-elf/lib\libm.a(lib_a-sf_floor.o)
 .debug_frame   0x0000000000008a44       0x38 ../Hello_bsp//newlib/nios2-elf/lib\libm.a(lib_a-sf_fmax.o)
 .debug_frame   0x0000000000008a7c       0x38 ../Hello_bsp//newlib/nios2-elf/lib\libm.a(lib_a-sf_fmin.o)
 .debug_frame   0x0000000000008ab4       0x34 ../Hello_bsp//newlib/nios2-elf/lib\libm.a(lib_a-sf_fpclassify.o)
 .debug_frame   0x0000000000008ae8       0x34 ../Hello_bsp//newlib/nios2-elf/lib\libm.a(lib_a-sf_round.o)
 .debug_frame   0x0000000000008b1c       0x38 ../Hello_bsp//newlib/nios2-elf/lib\libm.a(lib_a-sf_sin.o)
 .debug_frame   0x0000000000008b54       0x38 ../Hello_bsp//newlib/nios2-elf/lib\libm.a(lib_a-sf_tan.o)
 .debug_frame   0x0000000000008b8c       0x38 ../Hello_bsp//newlib/nios2-elf/lib\libm.a(lib_a-wf_acos.o)
 .debug_frame   0x0000000000008bc4       0x38 ../Hello_bsp//newlib/nios2-elf/lib\libm.a(lib_a-wf_atan2.o)
 .debug_frame   0x0000000000008bfc       0x44 ../Hello_bsp//newlib/nios2-elf/lib\libm.a(lib_a-wf_pow.o)
 .debug_frame   0x0000000000008c40       0x38 ../Hello_bsp//newlib/nios2-elf/lib\libm.a(lib_a-wf_sqrt.o)
 .debug_frame   0x0000000000008c78       0x38 ../Hello_bsp//newlib/nios2-elf/lib\libm.a(lib_a-ef_acos.o)
 .debug_frame   0x0000000000008cb0       0x38 ../Hello_bsp//newlib/nios2-elf/lib\libm.a(lib_a-ef_atan2.o)
 .debug_frame   0x0000000000008ce8       0x3c ../Hello_bsp//newlib/nios2-elf/lib\libm.a(lib_a-ef_pow.o)
 .debug_frame   0x0000000000008d24       0x38 ../Hello_bsp//newlib/nios2-elf/lib\libm.a(lib_a-ef_rem_pio2.o)
 .debug_frame   0x0000000000008d5c       0x34 ../Hello_bsp//newlib/nios2-elf/lib\libm.a(lib_a-ef_sqrt.o)
 .debug_frame   0x0000000000008d90       0x34 ../Hello_bsp//newlib/nios2-elf/lib\libm.a(lib_a-kf_cos.o)
 .debug_frame   0x0000000000008dc4       0x3c ../Hello_bsp//newlib/nios2-elf/lib\libm.a(lib_a-kf_rem_pio2.o)
 .debug_frame   0x0000000000008e00       0x34 ../Hello_bsp//newlib/nios2-elf/lib\libm.a(lib_a-kf_sin.o)
 .debug_frame   0x0000000000008e34       0x40 ../Hello_bsp//newlib/nios2-elf/lib\libm.a(lib_a-kf_tan.o)
 .debug_frame   0x0000000000008e74       0x38 ../Hello_bsp//newlib/nios2-elf/lib\libm.a(lib_a-s_matherr.o)
 .debug_frame   0x0000000000008eac       0x34 ../Hello_bsp//newlib/nios2-elf/lib\libm.a(lib_a-s_nan.o)
 .debug_frame   0x0000000000008ee0       0x38 ../Hello_bsp//newlib/nios2-elf/lib\libm.a(lib_a-s_rint.o)
 .debug_frame   0x0000000000008f18       0x38 ../Hello_bsp//newlib/nios2-elf/lib\libm.a(lib_a-sf_atan.o)
 .debug_frame   0x0000000000008f50       0x34 ../Hello_bsp//newlib/nios2-elf/lib\libm.a(lib_a-sf_fabs.o)
 .debug_frame   0x0000000000008f84       0x34 ../Hello_bsp//newlib/nios2-elf/lib\libm.a(lib_a-sf_finite.o)
 .debug_frame   0x0000000000008fb8       0x34 ../Hello_bsp//newlib/nios2-elf/lib\libm.a(lib_a-sf_nan.o)
 .debug_frame   0x0000000000008fec       0x38 ../Hello_bsp//newlib/nios2-elf/lib\libm.a(lib_a-sf_scalbn.o)
 .debug_frame   0x0000000000009024       0x34 ../Hello_bsp//newlib/nios2-elf/lib\libm.a(lib_a-sf_copysign.o)
 .debug_frame   0x0000000000009058       0x50 d:/intelfpga_lite/18.0/nios2eds/bin/gnu/h-x86_64-mingw32/bin/../lib/gcc/nios2-elf/5.3.0\libgcc.a(lib2-divmod.o)
 .debug_frame   0x00000000000090a8       0x40 d:/intelfpga_lite/18.0/nios2eds/bin/gnu/h-x86_64-mingw32/bin/../lib/gcc/nios2-elf/5.3.0\libgcc.a(adddf3.o)
 .debug_frame   0x00000000000090e8       0x58 d:/intelfpga_lite/18.0/nios2eds/bin/gnu/h-x86_64-mingw32/bin/../lib/gcc/nios2-elf/5.3.0\libgcc.a(divdf3.o)
 .debug_frame   0x0000000000009140       0x20 d:/intelfpga_lite/18.0/nios2eds/bin/gnu/h-x86_64-mingw32/bin/../lib/gcc/nios2-elf/5.3.0\libgcc.a(eqdf2.o)
 .debug_frame   0x0000000000009160       0x44 d:/intelfpga_lite/18.0/nios2eds/bin/gnu/h-x86_64-mingw32/bin/../lib/gcc/nios2-elf/5.3.0\libgcc.a(subdf3.o)
 .debug_frame   0x00000000000091a4       0x38 d:/intelfpga_lite/18.0/nios2eds/bin/gnu/h-x86_64-mingw32/bin/../lib/gcc/nios2-elf/5.3.0\libgcc.a(extendsfdf2.o)
 .debug_frame   0x00000000000091dc       0x20 d:/intelfpga_lite/18.0/nios2eds/bin/gnu/h-x86_64-mingw32/bin/../lib/gcc/nios2-elf/5.3.0\libgcc.a(truncdfsf2.o)
 .debug_frame   0x00000000000091fc       0x20 d:/intelfpga_lite/18.0/nios2eds/bin/gnu/h-x86_64-mingw32/bin/../lib/gcc/nios2-elf/5.3.0\libgcc.a(_clzsi2.o)
 .debug_frame   0x000000000000921c       0x34 ../Hello_bsp//newlib/nios2-elf/lib\libc.a(lib_a-errno.o)
 .debug_frame   0x0000000000009250       0x60 ../Hello_bsp//newlib/nios2-elf/lib\libc.a(lib_a-malloc.o)
 .debug_frame   0x00000000000092b0       0x60 ../Hello_bsp//newlib/nios2-elf/lib\libc.a(lib_a-mallocr.o)
 .debug_frame   0x0000000000009310       0x34 ../Hello_bsp//newlib/nios2-elf/lib\libc.a(lib_a-memcpy.o)
 .debug_frame   0x0000000000009344       0x34 ../Hello_bsp//newlib/nios2-elf/lib\libc.a(lib_a-memset.o)
 .debug_frame   0x0000000000009378       0x60 ../Hello_bsp//newlib/nios2-elf/lib\libc.a(lib_a-printf.o)
 .debug_frame   0x00000000000093d8       0x60 ../Hello_bsp//newlib/nios2-elf/lib\libc.a(lib_a-putchar.o)
 .debug_frame   0x0000000000009438       0x60 ../Hello_bsp//newlib/nios2-elf/lib\libc.a(lib_a-puts.o)
 .debug_frame   0x0000000000009498       0x64 ../Hello_bsp//newlib/nios2-elf/lib\libc.a(lib_a-rand.o)
 .debug_frame   0x00000000000094fc       0x38 ../Hello_bsp//newlib/nios2-elf/lib\libc.a(lib_a-sbrkr.o)
 .debug_frame   0x0000000000009534       0x34 ../Hello_bsp//newlib/nios2-elf/lib\libc.a(lib_a-strlen.o)
 .debug_frame   0x0000000000009568      0x110 ../Hello_bsp//newlib/nios2-elf/lib\libc.a(lib_a-vfprintf.o)
 .debug_frame   0x0000000000009678       0x40 ../Hello_bsp//newlib/nios2-elf/lib\libc.a(lib_a-wsetup.o)
 .debug_frame   0x00000000000096b8       0x74 ../Hello_bsp//newlib/nios2-elf/lib\libc.a(lib_a-dtoa.o)
 .debug_frame   0x000000000000972c       0xa0 ../Hello_bsp//newlib/nios2-elf/lib\libc.a(lib_a-fflush.o)
 .debug_frame   0x00000000000097cc      0x22c ../Hello_bsp//newlib/nios2-elf/lib\libc.a(lib_a-findfp.o)
 .debug_frame   0x00000000000099f8       0x60 ../Hello_bsp//newlib/nios2-elf/lib\libc.a(lib_a-freer.o)
 .debug_frame   0x0000000000009a58       0x58 ../Hello_bsp//newlib/nios2-elf/lib\libc.a(lib_a-fvwrite.o)
 .debug_frame   0x0000000000009ab0       0x88 ../Hello_bsp//newlib/nios2-elf/lib\libc.a(lib_a-fwalk.o)
 .debug_frame   0x0000000000009b38      0x13c ../Hello_bsp//newlib/nios2-elf/lib\libc.a(lib_a-locale.o)
 .debug_frame   0x0000000000009c74       0x4c ../Hello_bsp//newlib/nios2-elf/lib\libc.a(lib_a-makebuf.o)
 .debug_frame   0x0000000000009cc0       0x34 ../Hello_bsp//newlib/nios2-elf/lib\libc.a(lib_a-memchr.o)
 .debug_frame   0x0000000000009cf4       0x34 ../Hello_bsp//newlib/nios2-elf/lib\libc.a(lib_a-memmove.o)
 .debug_frame   0x0000000000009d28      0x304 ../Hello_bsp//newlib/nios2-elf/lib\libc.a(lib_a-mprec.o)
 .debug_frame   0x000000000000a02c       0x68 ../Hello_bsp//newlib/nios2-elf/lib\libc.a(lib_a-putc.o)
 .debug_frame   0x000000000000a094       0x38 ../Hello_bsp//newlib/nios2-elf/lib\libc.a(lib_a-reallocr.o)
 .debug_frame   0x000000000000a0cc       0x34 ../Hello_bsp//newlib/nios2-elf/lib\libc.a(lib_a-s_fpclassify.o)
 .debug_frame   0x000000000000a100       0xe8 ../Hello_bsp//newlib/nios2-elf/lib\libc.a(lib_a-stdio.o)
 .debug_frame   0x000000000000a1e8       0x34 ../Hello_bsp//newlib/nios2-elf/lib\libc.a(lib_a-strcmp.o)
 .debug_frame   0x000000000000a21c       0xe8 ../Hello_bsp//newlib/nios2-elf/lib\libc.a(lib_a-vfiprintf.o)
 .debug_frame   0x000000000000a304       0x70 ../Hello_bsp//newlib/nios2-elf/lib\libc.a(lib_a-wbuf.o)
 .debug_frame   0x000000000000a374       0x38 ../Hello_bsp//newlib/nios2-elf/lib\libc.a(lib_a-writer.o)
 .debug_frame   0x000000000000a3ac       0x38 ../Hello_bsp//newlib/nios2-elf/lib\libc.a(closer.o)
 .debug_frame   0x000000000000a3e4       0x38 ../Hello_bsp//newlib/nios2-elf/lib\libc.a(lib_a-callocr.o)
 .debug_frame   0x000000000000a41c       0x68 ../Hello_bsp//newlib/nios2-elf/lib\libc.a(lib_a-fclose.o)
 .debug_frame   0x000000000000a484       0x88 ../Hello_bsp//newlib/nios2-elf/lib\libc.a(lib_a-fputwc.o)
 .debug_frame   0x000000000000a50c       0x38 ../Hello_bsp//newlib/nios2-elf/lib\libc.a(lib_a-fstatr.o)
 .debug_frame   0x000000000000a544       0x38 ../Hello_bsp//newlib/nios2-elf/lib\libc.a(lib_a-isattyr.o)
 .debug_frame   0x000000000000a57c       0x38 ../Hello_bsp//newlib/nios2-elf/lib\libc.a(lib_a-lseekr.o)
 .debug_frame   0x000000000000a5b4       0x38 ../Hello_bsp//newlib/nios2-elf/lib\libc.a(lib_a-readr.o)
 .debug_frame   0x000000000000a5ec       0x68 ../Hello_bsp//newlib/nios2-elf/lib\libc.a(lib_a-wcrtomb.o)
 .debug_frame   0x000000000000a654       0x60 ../Hello_bsp//newlib/nios2-elf/lib\libc.a(lib_a-wctomb_r.o)
 .debug_frame   0x000000000000a6b4       0x20 d:/intelfpga_lite/18.0/nios2eds/bin/gnu/h-x86_64-mingw32/bin/../lib/gcc/nios2-elf/5.3.0\libgcc.a(_muldi3.o)
 .debug_frame   0x000000000000a6d4       0x54 d:/intelfpga_lite/18.0/nios2eds/bin/gnu/h-x86_64-mingw32/bin/../lib/gcc/nios2-elf/5.3.0\libgcc.a(_udivdi3.o)
 .debug_frame   0x000000000000a728       0x54 d:/intelfpga_lite/18.0/nios2eds/bin/gnu/h-x86_64-mingw32/bin/../lib/gcc/nios2-elf/5.3.0\libgcc.a(_umoddi3.o)
 .debug_frame   0x000000000000a77c       0x20 d:/intelfpga_lite/18.0/nios2eds/bin/gnu/h-x86_64-mingw32/bin/../lib/gcc/nios2-elf/5.3.0\libgcc.a(gedf2.o)
 .debug_frame   0x000000000000a79c       0x20 d:/intelfpga_lite/18.0/nios2eds/bin/gnu/h-x86_64-mingw32/bin/../lib/gcc/nios2-elf/5.3.0\libgcc.a(ledf2.o)
 .debug_frame   0x000000000000a7bc       0x58 d:/intelfpga_lite/18.0/nios2eds/bin/gnu/h-x86_64-mingw32/bin/../lib/gcc/nios2-elf/5.3.0\libgcc.a(muldf3.o)
 .debug_frame   0x000000000000a814       0x20 d:/intelfpga_lite/18.0/nios2eds/bin/gnu/h-x86_64-mingw32/bin/../lib/gcc/nios2-elf/5.3.0\libgcc.a(fixdfsi.o)
 .debug_frame   0x000000000000a834       0x38 d:/intelfpga_lite/18.0/nios2eds/bin/gnu/h-x86_64-mingw32/bin/../lib/gcc/nios2-elf/5.3.0\libgcc.a(floatsidf.o)
 .debug_frame   0x000000000000a86c       0x34 d:/intelfpga_lite/18.0/nios2eds/bin/gnu/h-x86_64-mingw32/bin/../lib/gcc/nios2-elf/5.3.0\libgcc.a(floatunsidf.o)
 .debug_frame   0x000000000000a8a0       0x60 ../Hello_bsp/\libhal_bsp.a(alt_close.o)
 .debug_frame   0x000000000000a900       0x34 ../Hello_bsp/\libhal_bsp.a(alt_dev.o)
 .debug_frame   0x000000000000a934       0x60 ../Hello_bsp/\libhal_bsp.a(alt_fstat.o)
 .debug_frame   0x000000000000a994       0x60 ../Hello_bsp/\libhal_bsp.a(alt_isatty.o)
 .debug_frame   0x000000000000a9f4       0x5c ../Hello_bsp/\libhal_bsp.a(alt_load.o)
 .debug_frame   0x000000000000aa50       0x60 ../Hello_bsp/\libhal_bsp.a(alt_lseek.o)
 .debug_frame   0x000000000000aab0       0x2c ../Hello_bsp/\libhal_bsp.a(alt_main.o)
 .debug_frame   0x000000000000aadc       0x58 ../Hello_bsp/\libhal_bsp.a(alt_malloc_lock.o)
 .debug_frame   0x000000000000ab34       0x60 ../Hello_bsp/\libhal_bsp.a(alt_read.o)
 .debug_frame   0x000000000000ab94       0x34 ../Hello_bsp/\libhal_bsp.a(alt_release_fd.o)
 .debug_frame   0x000000000000abc8       0x34 ../Hello_bsp/\libhal_bsp.a(alt_sbrk.o)
 .debug_frame   0x000000000000abfc       0x60 ../Hello_bsp/\libhal_bsp.a(alt_write.o)
 .debug_frame   0x000000000000ac5c       0x88 ../Hello_bsp/\libhal_bsp.a(alt_sys_init.o)
 .debug_frame   0x000000000000ace4       0xb0 ../Hello_bsp/\libhal_bsp.a(altera_avalon_jtag_uart_fd.o)
 .debug_frame   0x000000000000ad94       0xa4 ../Hello_bsp/\libhal_bsp.a(altera_avalon_jtag_uart_init.o)
 .debug_frame   0x000000000000ae38       0x34 ../Hello_bsp/\libhal_bsp.a(altera_avalon_jtag_uart_ioctl.o)
 .debug_frame   0x000000000000ae6c       0x38 ../Hello_bsp/\libhal_bsp.a(altera_avalon_jtag_uart_read.o)
 .debug_frame   0x000000000000aea4       0x38 ../Hello_bsp/\libhal_bsp.a(altera_avalon_jtag_uart_write.o)
 .debug_frame   0x000000000000aedc       0x60 ../Hello_bsp/\libhal_bsp.a(altera_avalon_timer_sc.o)
 .debug_frame   0x000000000000af3c       0x34 ../Hello_bsp/\libhal_bsp.a(alt_alarm_start.o)
 .debug_frame   0x000000000000af70       0x34 ../Hello_bsp/\libhal_bsp.a(alt_dcache_flush_all.o)
 .debug_frame   0x000000000000afa4       0x60 ../Hello_bsp/\libhal_bsp.a(alt_dev_llist_insert.o)
 .debug_frame   0x000000000000b004       0x38 ../Hello_bsp/\libhal_bsp.a(alt_icache_flush_all.o)
 .debug_frame   0x000000000000b03c       0xa4 ../Hello_bsp/\libhal_bsp.a(alt_iic.o)
 .debug_frame   0x000000000000b0e0       0x38 ../Hello_bsp/\libhal_bsp.a(alt_iic_isr_register.o)
 .debug_frame   0x000000000000b118       0x60 ../Hello_bsp/\libhal_bsp.a(alt_io_redirect.o)
 .debug_frame   0x000000000000b178       0x38 ../Hello_bsp/\libhal_bsp.a(alt_irq_handler.o)
 .debug_frame   0x000000000000b1b0       0x84 ../Hello_bsp/\libhal_bsp.a(alt_open.o)
 .debug_frame   0x000000000000b234       0x5c ../Hello_bsp/\libhal_bsp.a(alt_tick.o)
 .debug_frame   0x000000000000b290       0x34 ../Hello_bsp/\libhal_bsp.a(altera_nios2_gen2_irq.o)
 .debug_frame   0x000000000000b2c4       0x38 ../Hello_bsp/\libhal_bsp.a(alt_find_dev.o)
 .debug_frame   0x000000000000b2fc       0x38 ../Hello_bsp/\libhal_bsp.a(alt_find_file.o)
 .debug_frame   0x000000000000b334       0x34 ../Hello_bsp/\libhal_bsp.a(alt_get_fd.o)
 .debug_frame   0x000000000000b368       0x34 ../Hello_bsp/\libhal_bsp.a(alt_icache_flush.o)
 .debug_frame   0x000000000000b39c       0x5c ../Hello_bsp/\libhal_bsp.a(alt_instruction_exception_entry.o)
 .debug_frame   0x000000000000b3f8       0x2c ../Hello_bsp//newlib/nios2-elf/lib\libc.a(lib_a-exit.o)
 .debug_frame   0x000000000000b424       0x34 ../Hello_bsp//newlib/nios2-elf/lib\libc.a(lib_a-memcmp.o)
 .debug_frame   0x000000000000b458       0x48 ../Hello_bsp//newlib/nios2-elf/lib\libc.a(lib_a-__call_atexit.o)
 .debug_frame   0x000000000000b4a0       0x2c ../Hello_bsp/\libhal_bsp.a(alt_exit.o)

.debug_str      0x0000000000000000     0x692a
 *(.debug_str)
 .debug_str     0x0000000000000000      0x84f obj/default/src/app.o
                                        0x91d (size before relaxing)
 .debug_str     0x000000000000084f      0x348 obj/default/src/gppcu.o
                                        0x8a1 (size before relaxing)
 .debug_str     0x0000000000000b97      0x128 obj/default/src/main.o
                                        0x8d4 (size before relaxing)
 .debug_str     0x0000000000000cbf     0x1360 obj/default/src/mathc.o
                                       0x326a (size before relaxing)
 .debug_str     0x000000000000201f        0xc obj/default/src/utils.o
                                        0x1c6 (size before relaxing)
 .debug_str     0x000000000000202b      0x242 ../Hello_bsp//newlib/nios2-elf/lib\libm.a(lib_a-sf_ceil.o)
                                        0x308 (size before relaxing)
 .debug_str     0x000000000000226d       0x51 ../Hello_bsp//newlib/nios2-elf/lib\libm.a(lib_a-sf_cos.o)
                                        0x2fc (size before relaxing)
 .debug_str     0x00000000000022be       0x5a ../Hello_bsp//newlib/nios2-elf/lib\libm.a(lib_a-sf_floor.o)
                                        0x30a (size before relaxing)
 .debug_str     0x0000000000002318       0x5a ../Hello_bsp//newlib/nios2-elf/lib\libm.a(lib_a-sf_fmax.o)
                                        0x2c5 (size before relaxing)
 .debug_str     0x0000000000002372       0x5a ../Hello_bsp//newlib/nios2-elf/lib\libm.a(lib_a-sf_fmin.o)
                                        0x2c5 (size before relaxing)
 .debug_str     0x00000000000023cc       0x68 ../Hello_bsp//newlib/nios2-elf/lib\libm.a(lib_a-sf_fpclassify.o)
                                        0x304 (size before relaxing)
 .debug_str     0x0000000000002434       0x7c ../Hello_bsp//newlib/nios2-elf/lib\libm.a(lib_a-sf_round.o)
                                        0x31d (size before relaxing)
 .debug_str     0x00000000000024b0       0x51 ../Hello_bsp//newlib/nios2-elf/lib\libm.a(lib_a-sf_sin.o)
                                        0x2fc (size before relaxing)
 .debug_str     0x0000000000002501       0x51 ../Hello_bsp//newlib/nios2-elf/lib\libm.a(lib_a-sf_tan.o)
                                        0x2fc (size before relaxing)
 .debug_str     0x0000000000002552       0xcd ../Hello_bsp//newlib/nios2-elf/lib\libm.a(lib_a-wf_acos.o)
                                        0x343 (size before relaxing)
 .debug_str     0x000000000000261f       0x53 ../Hello_bsp//newlib/nios2-elf/lib\libm.a(lib_a-wf_atan2.o)
                                        0x2c5 (size before relaxing)
 .debug_str     0x0000000000002672       0x51 ../Hello_bsp//newlib/nios2-elf/lib\libm.a(lib_a-wf_pow.o)
                                        0x341 (size before relaxing)
 .debug_str     0x00000000000026c3       0x52 ../Hello_bsp//newlib/nios2-elf/lib\libm.a(lib_a-wf_sqrt.o)
                                        0x343 (size before relaxing)
 .debug_str     0x0000000000002715       0x72 ../Hello_bsp//newlib/nios2-elf/lib\libm.a(lib_a-ef_acos.o)
                                        0x31d (size before relaxing)
 .debug_str     0x0000000000002787       0x78 ../Hello_bsp//newlib/nios2-elf/lib\libm.a(lib_a-ef_atan2.o)
                                        0x32d (size before relaxing)
 .debug_str     0x00000000000027ff       0xa3 ../Hello_bsp//newlib/nios2-elf/lib\libm.a(lib_a-ef_pow.o)
                                        0x35d (size before relaxing)
 .debug_str     0x00000000000028a2       0xbe ../Hello_bsp//newlib/nios2-elf/lib\libm.a(lib_a-ef_rem_pio2.o)
                                        0x373 (size before relaxing)
 .debug_str     0x0000000000002960       0x62 ../Hello_bsp//newlib/nios2-elf/lib\libm.a(lib_a-ef_sqrt.o)
                                        0x312 (size before relaxing)
 .debug_str     0x00000000000029c2       0x5f ../Hello_bsp//newlib/nios2-elf/lib\libm.a(lib_a-kf_cos.o)
                                        0x30a (size before relaxing)
 .debug_str     0x0000000000002a21       0x92 ../Hello_bsp//newlib/nios2-elf/lib\libm.a(lib_a-kf_rem_pio2.o)
                                        0x316 (size before relaxing)
 .debug_str     0x0000000000002ab3       0x5f ../Hello_bsp//newlib/nios2-elf/lib\libm.a(lib_a-kf_sin.o)
                                        0x30a (size before relaxing)
 .debug_str     0x0000000000002b12       0x6b ../Hello_bsp//newlib/nios2-elf/lib\libm.a(lib_a-kf_tan.o)
                                        0x316 (size before relaxing)
 .debug_str     0x0000000000002b7d       0x56 ../Hello_bsp//newlib/nios2-elf/lib\libm.a(lib_a-s_lib_ver.o)
                                        0x31c (size before relaxing)
 .debug_str     0x0000000000002bd3       0x5e ../Hello_bsp//newlib/nios2-elf/lib\libm.a(lib_a-s_matherr.o)
                                        0x2ee (size before relaxing)
 .debug_str     0x0000000000002c31       0x52 ../Hello_bsp//newlib/nios2-elf/lib\libm.a(lib_a-s_nan.o)
                                        0x2c4 (size before relaxing)
 .debug_str     0x0000000000002c83       0x8f ../Hello_bsp//newlib/nios2-elf/lib\libm.a(lib_a-s_rint.o)
                                        0x315 (size before relaxing)
 .debug_str     0x0000000000002d12       0x66 ../Hello_bsp//newlib/nios2-elf/lib\libm.a(lib_a-sf_atan.o)
                                        0x311 (size before relaxing)
 .debug_str     0x0000000000002d78       0x58 ../Hello_bsp//newlib/nios2-elf/lib\libm.a(lib_a-sf_fabs.o)
                                        0x2f9 (size before relaxing)
 .debug_str     0x0000000000002dd0       0x5e ../Hello_bsp//newlib/nios2-elf/lib\libm.a(lib_a-sf_finite.o)
                                        0x304 (size before relaxing)
 .debug_str     0x0000000000002e2e       0x58 ../Hello_bsp//newlib/nios2-elf/lib\libm.a(lib_a-sf_nan.o)
                                        0x2ca (size before relaxing)
 .debug_str     0x0000000000002e86       0x6b ../Hello_bsp//newlib/nios2-elf/lib\libm.a(lib_a-sf_scalbn.o)
                                        0x320 (size before relaxing)
 .debug_str     0x0000000000002ef1       0x62 ../Hello_bsp//newlib/nios2-elf/lib\libm.a(lib_a-sf_copysign.o)
                                        0x303 (size before relaxing)
 .debug_str     0x0000000000002f53      0x16d d:/intelfpga_lite/18.0/nios2eds/bin/gnu/h-x86_64-mingw32/bin/../lib/gcc/nios2-elf/5.3.0\libgcc.a(lib2-divmod.o)
                                        0x1b8 (size before relaxing)
 .debug_str     0x00000000000030c0      0x116 d:/intelfpga_lite/18.0/nios2eds/bin/gnu/h-x86_64-mingw32/bin/../lib/gcc/nios2-elf/5.3.0\libgcc.a(adddf3.o)
                                        0x28f (size before relaxing)
 .debug_str     0x00000000000031d6      0x169 d:/intelfpga_lite/18.0/nios2eds/bin/gnu/h-x86_64-mingw32/bin/../lib/gcc/nios2-elf/5.3.0\libgcc.a(divdf3.o)
                                        0x347 (size before relaxing)
 .debug_str     0x000000000000333f       0x34 d:/intelfpga_lite/18.0/nios2eds/bin/gnu/h-x86_64-mingw32/bin/../lib/gcc/nios2-elf/5.3.0\libgcc.a(eqdf2.o)
                                        0x1f5 (size before relaxing)
 .debug_str     0x0000000000003373       0x36 d:/intelfpga_lite/18.0/nios2eds/bin/gnu/h-x86_64-mingw32/bin/../lib/gcc/nios2-elf/5.3.0\libgcc.a(subdf3.o)
                                        0x28f (size before relaxing)
 .debug_str     0x00000000000033a9       0x7a d:/intelfpga_lite/18.0/nios2eds/bin/gnu/h-x86_64-mingw32/bin/../lib/gcc/nios2-elf/5.3.0\libgcc.a(extendsfdf2.o)
                                        0x235 (size before relaxing)
 .debug_str     0x0000000000003423       0x51 d:/intelfpga_lite/18.0/nios2eds/bin/gnu/h-x86_64-mingw32/bin/../lib/gcc/nios2-elf/5.3.0\libgcc.a(truncdfsf2.o)
                                        0x23f (size before relaxing)
 .debug_str     0x0000000000003474       0x63 d:/intelfpga_lite/18.0/nios2eds/bin/gnu/h-x86_64-mingw32/bin/../lib/gcc/nios2-elf/5.3.0\libgcc.a(_clzsi2.o)
                                        0x1e6 (size before relaxing)
 .debug_str     0x00000000000034d7      0x1c9 d:/intelfpga_lite/18.0/nios2eds/bin/gnu/h-x86_64-mingw32/bin/../lib/gcc/nios2-elf/5.3.0\libgcc.a(_clz.o)
 .debug_str     0x00000000000034d7      0x39e ../Hello_bsp//newlib/nios2-elf/lib\libc.a(lib_a-errno.o)
                                        0x679 (size before relaxing)
 .debug_str     0x0000000000003875       0x71 ../Hello_bsp//newlib/nios2-elf/lib\libc.a(lib_a-impure.o)
                                        0x691 (size before relaxing)
 .debug_str     0x00000000000038e6       0x5f ../Hello_bsp//newlib/nios2-elf/lib\libc.a(lib_a-malloc.o)
                                        0x692 (size before relaxing)
 .debug_str     0x0000000000003945      0x220 ../Hello_bsp//newlib/nios2-elf/lib\libc.a(lib_a-mallocr.o)
                                        0x867 (size before relaxing)
 .debug_str     0x0000000000003b65       0x81 ../Hello_bsp//newlib/nios2-elf/lib\libc.a(lib_a-memcpy.o)
                                        0x2e6 (size before relaxing)
 .debug_str     0x0000000000003be6       0x67 ../Hello_bsp//newlib/nios2-elf/lib\libc.a(lib_a-memset.o)
                                        0x2d3 (size before relaxing)
 .debug_str     0x0000000000003c4d       0x7d ../Hello_bsp//newlib/nios2-elf/lib\libc.a(lib_a-printf.o)
                                        0x6ac (size before relaxing)
 .debug_str     0x0000000000003cca       0x66 ../Hello_bsp//newlib/nios2-elf/lib\libc.a(lib_a-putchar.o)
                                        0x68c (size before relaxing)
 .debug_str     0x0000000000003d30       0xa9 ../Hello_bsp//newlib/nios2-elf/lib\libc.a(lib_a-puts.o)
                                        0x6dc (size before relaxing)
 .debug_str     0x0000000000003dd9       0x57 ../Hello_bsp//newlib/nios2-elf/lib\libc.a(lib_a-rand.o)
                                        0x687 (size before relaxing)
 .debug_str     0x0000000000003e30       0x6d ../Hello_bsp//newlib/nios2-elf/lib\libc.a(lib_a-sbrkr.o)
                                        0x687 (size before relaxing)
 .debug_str     0x0000000000003e9d       0x5a ../Hello_bsp//newlib/nios2-elf/lib\libc.a(lib_a-strlen.o)
                                        0x2d2 (size before relaxing)
 .debug_str     0x0000000000003ef7      0x359 ../Hello_bsp//newlib/nios2-elf/lib\libc.a(lib_a-vfprintf.o)
                                        0x8be (size before relaxing)
 .debug_str     0x0000000000004250       0x5e ../Hello_bsp//newlib/nios2-elf/lib\libc.a(lib_a-wsetup.o)
                                        0x693 (size before relaxing)
 .debug_str     0x00000000000042ae      0x114 ../Hello_bsp//newlib/nios2-elf/lib\libc.a(lib_a-dtoa.o)
                                        0x76b (size before relaxing)
 .debug_str     0x00000000000043c2       0x7f ../Hello_bsp//newlib/nios2-elf/lib\libc.a(lib_a-fflush.o)
                                        0x6d4 (size before relaxing)
 .debug_str     0x0000000000004441      0x1ab ../Hello_bsp//newlib/nios2-elf/lib\libc.a(lib_a-findfp.o)
                                        0x811 (size before relaxing)
 .debug_str     0x00000000000045ec       0x3c ../Hello_bsp//newlib/nios2-elf/lib\libc.a(lib_a-freer.o)
                                        0x7b9 (size before relaxing)
 .debug_str     0x0000000000004628       0x7e ../Hello_bsp//newlib/nios2-elf/lib\libc.a(lib_a-fvwrite.o)
                                        0x6da (size before relaxing)
 .debug_str     0x00000000000046a6       0x74 ../Hello_bsp//newlib/nios2-elf/lib\libc.a(lib_a-fwalk.o)
                                        0x696 (size before relaxing)
 .debug_str     0x000000000000471a       0x55 ../Hello_bsp//newlib/nios2-elf/lib\libc.a(lib_a-int_errno.o)
                                        0x2b9 (size before relaxing)
 .debug_str     0x000000000000476f      0x22e ../Hello_bsp//newlib/nios2-elf/lib\libc.a(lib_a-locale.o)
                                        0x8e6 (size before relaxing)
 .debug_str     0x000000000000499d      0x134 ../Hello_bsp//newlib/nios2-elf/lib\libc.a(lib_a-makebuf.o)
                                        0x776 (size before relaxing)
 .debug_str     0x0000000000004ad1       0x68 ../Hello_bsp//newlib/nios2-elf/lib\libc.a(lib_a-memchr.o)
                                        0x2d9 (size before relaxing)
 .debug_str     0x0000000000004b39       0x65 ../Hello_bsp//newlib/nios2-elf/lib\libc.a(lib_a-memmove.o)
                                        0x2f2 (size before relaxing)
 .debug_str     0x0000000000004b9e      0x110 ../Hello_bsp//newlib/nios2-elf/lib\libc.a(lib_a-mprec.o)
                                        0x778 (size before relaxing)
 .debug_str     0x0000000000004cae       0x5d ../Hello_bsp//newlib/nios2-elf/lib\libc.a(lib_a-putc.o)
                                        0x69f (size before relaxing)
 .debug_str     0x0000000000004d0b       0x59 ../Hello_bsp//newlib/nios2-elf/lib\libc.a(lib_a-reallocr.o)
                                        0x739 (size before relaxing)
 .debug_str     0x0000000000004d64       0x67 ../Hello_bsp//newlib/nios2-elf/lib\libc.a(lib_a-s_fpclassify.o)
                                        0x305 (size before relaxing)
 .debug_str     0x0000000000004dcb       0x8e ../Hello_bsp//newlib/nios2-elf/lib\libc.a(lib_a-stdio.o)
                                        0x6c2 (size before relaxing)
 .debug_str     0x0000000000004e59       0x5a ../Hello_bsp//newlib/nios2-elf/lib\libc.a(lib_a-strcmp.o)
                                        0x2b8 (size before relaxing)
 .debug_str     0x0000000000004eb3       0x40 ../Hello_bsp//newlib/nios2-elf/lib\libc.a(lib_a-vfiprintf.o)
                                        0x82a (size before relaxing)
 .debug_str     0x0000000000004ef3       0x62 ../Hello_bsp//newlib/nios2-elf/lib\libc.a(lib_a-wbuf.o)
                                        0x697 (size before relaxing)
 .debug_str     0x0000000000004f55       0x5b ../Hello_bsp//newlib/nios2-elf/lib\libc.a(lib_a-writer.o)
                                        0x685 (size before relaxing)
 .debug_str     0x0000000000004fb0       0x5b ../Hello_bsp//newlib/nios2-elf/lib\libc.a(closer.o)
                                        0x675 (size before relaxing)
 .debug_str     0x000000000000500b       0x19 ../Hello_bsp//newlib/nios2-elf/lib\libc.a(lib_a-callocr.o)
                                        0x6b8 (size before relaxing)
 .debug_str     0x0000000000005024       0x63 ../Hello_bsp//newlib/nios2-elf/lib\libc.a(lib_a-fclose.o)
                                        0x69d (size before relaxing)
 .debug_str     0x0000000000005087       0x65 ../Hello_bsp//newlib/nios2-elf/lib\libc.a(lib_a-fputwc.o)
                                        0x6b1 (size before relaxing)
 .debug_str     0x00000000000050ec       0x61 ../Hello_bsp//newlib/nios2-elf/lib\libc.a(lib_a-fstatr.o)
                                        0x761 (size before relaxing)
 .debug_str     0x000000000000514d       0x5d ../Hello_bsp//newlib/nios2-elf/lib\libc.a(lib_a-isattyr.o)
                                        0x677 (size before relaxing)
 .debug_str     0x00000000000051aa       0x5b ../Hello_bsp//newlib/nios2-elf/lib\libc.a(lib_a-lseekr.o)
                                        0x67c (size before relaxing)
 .debug_str     0x0000000000005205       0x59 ../Hello_bsp//newlib/nios2-elf/lib\libc.a(lib_a-readr.o)
                                        0x683 (size before relaxing)
 .debug_str     0x000000000000525e       0x70 ../Hello_bsp//newlib/nios2-elf/lib\libc.a(lib_a-wcrtomb.o)
                                        0x6b6 (size before relaxing)
 .debug_str     0x00000000000052ce       0x75 ../Hello_bsp//newlib/nios2-elf/lib\libc.a(lib_a-wctomb_r.o)
                                        0x6bf (size before relaxing)
 .debug_str     0x0000000000005343       0x1a d:/intelfpga_lite/18.0/nios2eds/bin/gnu/h-x86_64-mingw32/bin/../lib/gcc/nios2-elf/5.3.0\libgcc.a(_muldi3.o)
                                        0x20b (size before relaxing)
 .debug_str     0x000000000000535d       0xb6 d:/intelfpga_lite/18.0/nios2eds/bin/gnu/h-x86_64-mingw32/bin/../lib/gcc/nios2-elf/5.3.0\libgcc.a(_udivdi3.o)
                                        0x282 (size before relaxing)
 .debug_str     0x0000000000005413        0xa d:/intelfpga_lite/18.0/nios2eds/bin/gnu/h-x86_64-mingw32/bin/../lib/gcc/nios2-elf/5.3.0\libgcc.a(_umoddi3.o)
                                        0x282 (size before relaxing)
 .debug_str     0x000000000000541d       0x58 d:/intelfpga_lite/18.0/nios2eds/bin/gnu/h-x86_64-mingw32/bin/../lib/gcc/nios2-elf/5.3.0\libgcc.a(gedf2.o)
                                        0x219 (size before relaxing)
 .debug_str     0x0000000000005475       0x34 d:/intelfpga_lite/18.0/nios2eds/bin/gnu/h-x86_64-mingw32/bin/../lib/gcc/nios2-elf/5.3.0\libgcc.a(ledf2.o)
                                        0x219 (size before relaxing)
 .debug_str     0x00000000000054a9      0x15b d:/intelfpga_lite/18.0/nios2eds/bin/gnu/h-x86_64-mingw32/bin/../lib/gcc/nios2-elf/5.3.0\libgcc.a(muldf3.o)
                                        0x3a8 (size before relaxing)
 .debug_str     0x0000000000005604       0x4b d:/intelfpga_lite/18.0/nios2eds/bin/gnu/h-x86_64-mingw32/bin/../lib/gcc/nios2-elf/5.3.0\libgcc.a(fixdfsi.o)
                                        0x211 (size before relaxing)
 .debug_str     0x000000000000564f       0x69 d:/intelfpga_lite/18.0/nios2eds/bin/gnu/h-x86_64-mingw32/bin/../lib/gcc/nios2-elf/5.3.0\libgcc.a(floatsidf.o)
                                        0x228 (size before relaxing)
 .debug_str     0x00000000000056b8       0x40 d:/intelfpga_lite/18.0/nios2eds/bin/gnu/h-x86_64-mingw32/bin/../lib/gcc/nios2-elf/5.3.0\libgcc.a(floatunsidf.o)
                                        0x225 (size before relaxing)
 .debug_str     0x00000000000056f8       0xfc ../Hello_bsp/\libhal_bsp.a(alt_close.o)
                                        0x346 (size before relaxing)
 .debug_str     0x00000000000057f4       0x50 ../Hello_bsp/\libhal_bsp.a(alt_dev.o)
                                        0x440 (size before relaxing)
 .debug_str     0x0000000000005844       0x14 ../Hello_bsp/\libhal_bsp.a(alt_errno.o)
                                        0x280 (size before relaxing)
 .debug_str     0x0000000000005858       0x14 ../Hello_bsp/\libhal_bsp.a(alt_fstat.o)
                                        0x427 (size before relaxing)
 .debug_str     0x000000000000586c       0x1c ../Hello_bsp/\libhal_bsp.a(alt_isatty.o)
                                        0x42f (size before relaxing)
 .debug_str     0x0000000000005888       0xf1 ../Hello_bsp/\libhal_bsp.a(alt_load.o)
                                        0x34d (size before relaxing)
 .debug_str     0x0000000000005979       0x14 ../Hello_bsp/\libhal_bsp.a(alt_lseek.o)
                                        0x34c (size before relaxing)
 .debug_str     0x000000000000598d       0x44 ../Hello_bsp/\libhal_bsp.a(alt_main.o)
                                        0x2d8 (size before relaxing)
 .debug_str     0x00000000000059d1       0x38 ../Hello_bsp/\libhal_bsp.a(alt_malloc_lock.o)
                                        0x64a (size before relaxing)
 .debug_str     0x0000000000005a09       0x13 ../Hello_bsp/\libhal_bsp.a(alt_read.o)
                                        0x432 (size before relaxing)
 .debug_str     0x0000000000005a1c       0x28 ../Hello_bsp/\libhal_bsp.a(alt_release_fd.o)
                                        0x30e (size before relaxing)
 .debug_str     0x0000000000005a44       0x98 ../Hello_bsp/\libhal_bsp.a(alt_sbrk.o)
                                        0x30f (size before relaxing)
 .debug_str     0x0000000000005adc       0x14 ../Hello_bsp/\libhal_bsp.a(alt_write.o)
                                        0x433 (size before relaxing)
 .debug_str     0x0000000000005af0      0x18d ../Hello_bsp/\libhal_bsp.a(alt_sys_init.o)
                                        0x4cb (size before relaxing)
 .debug_str     0x0000000000005c7d       0xac ../Hello_bsp/\libhal_bsp.a(altera_avalon_jtag_uart_fd.o)
                                        0x4df (size before relaxing)
 .debug_str     0x0000000000005d29       0xd1 ../Hello_bsp/\libhal_bsp.a(altera_avalon_jtag_uart_init.o)
                                        0x473 (size before relaxing)
 .debug_str     0x0000000000005dfa       0x4a ../Hello_bsp/\libhal_bsp.a(altera_avalon_jtag_uart_ioctl.o)
                                        0x3ce (size before relaxing)
 .debug_str     0x0000000000005e44       0x48 ../Hello_bsp/\libhal_bsp.a(altera_avalon_jtag_uart_read.o)
                                        0x423 (size before relaxing)
 .debug_str     0x0000000000005e8c       0x4a ../Hello_bsp/\libhal_bsp.a(altera_avalon_jtag_uart_write.o)
                                        0x424 (size before relaxing)
 .debug_str     0x0000000000005ed6       0x6d ../Hello_bsp/\libhal_bsp.a(altera_avalon_timer_sc.o)
                                        0x386 (size before relaxing)
 .debug_str     0x0000000000005f43       0x59 ../Hello_bsp/\libhal_bsp.a(alt_alarm_start.o)
                                        0x3b9 (size before relaxing)
 .debug_str     0x0000000000005f9c       0x34 ../Hello_bsp/\libhal_bsp.a(alt_dcache_flush_all.o)
                                        0x290 (size before relaxing)
 .debug_str     0x0000000000005fd0       0x34 ../Hello_bsp/\libhal_bsp.a(alt_dev_llist_insert.o)
                                        0x307 (size before relaxing)
 .debug_str     0x0000000000006004       0x34 ../Hello_bsp/\libhal_bsp.a(alt_icache_flush_all.o)
                                        0x290 (size before relaxing)
 .debug_str     0x0000000000006038       0xc4 ../Hello_bsp/\libhal_bsp.a(alt_iic.o)
                                        0x379 (size before relaxing)
 .debug_str     0x00000000000060fc       0x4c ../Hello_bsp/\libhal_bsp.a(alt_iic_isr_register.o)
                                        0x323 (size before relaxing)
 .debug_str     0x0000000000006148       0x56 ../Hello_bsp/\libhal_bsp.a(alt_io_redirect.o)
                                        0x451 (size before relaxing)
 .debug_str     0x000000000000619e       0x3a ../Hello_bsp/\libhal_bsp.a(alt_irq_handler.o)
                                        0x2d2 (size before relaxing)
 .debug_str     0x00000000000061d8       0x17 ../Hello_bsp/\libhal_bsp.a(alt_irq_vars.o)
                                        0x275 (size before relaxing)
 .debug_str     0x00000000000061ef       0x29 ../Hello_bsp/\libhal_bsp.a(alt_open.o)
                                        0x386 (size before relaxing)
 .debug_str     0x0000000000006218       0x4a ../Hello_bsp/\libhal_bsp.a(alt_tick.o)
                                        0x38d (size before relaxing)
 .debug_str     0x0000000000006262       0x3b ../Hello_bsp/\libhal_bsp.a(altera_nios2_gen2_irq.o)
                                        0x297 (size before relaxing)
 .debug_str     0x000000000000629d       0x24 ../Hello_bsp/\libhal_bsp.a(alt_find_dev.o)
                                        0x327 (size before relaxing)
 .debug_str     0x00000000000062c1       0x26 ../Hello_bsp/\libhal_bsp.a(alt_find_file.o)
                                        0x335 (size before relaxing)
 .debug_str     0x00000000000062e7       0x30 ../Hello_bsp/\libhal_bsp.a(alt_get_fd.o)
                                        0x357 (size before relaxing)
 .debug_str     0x0000000000006317       0x2c ../Hello_bsp/\libhal_bsp.a(alt_icache_flush.o)
                                        0x296 (size before relaxing)
 .debug_str     0x0000000000006343      0x48b ../Hello_bsp/\libhal_bsp.a(alt_instruction_exception_entry.o)
                                        0x6db (size before relaxing)
 .debug_str     0x00000000000067ce       0x51 ../Hello_bsp//newlib/nios2-elf/lib\libc.a(lib_a-exit.o)
                                        0x682 (size before relaxing)
 .debug_str     0x000000000000681f       0x5a ../Hello_bsp//newlib/nios2-elf/lib\libc.a(lib_a-memcmp.o)
                                        0x2bf (size before relaxing)
 .debug_str     0x0000000000006879       0x87 ../Hello_bsp//newlib/nios2-elf/lib\libc.a(lib_a-__call_atexit.o)
                                        0x6b8 (size before relaxing)
 .debug_str     0x0000000000006900       0x2a ../Hello_bsp/\libhal_bsp.a(alt_exit.o)
                                        0x28c (size before relaxing)

.debug_loc      0x0000000000000000     0x918e
 *(.debug_loc)
 .debug_loc     0x0000000000000000      0x4ce d:/intelfpga_lite/18.0/nios2eds/bin/gnu/h-x86_64-mingw32/bin/../lib/gcc/nios2-elf/5.3.0\libgcc.a(lib2-divmod.o)
 .debug_loc     0x00000000000004ce     0x16f9 d:/intelfpga_lite/18.0/nios2eds/bin/gnu/h-x86_64-mingw32/bin/../lib/gcc/nios2-elf/5.3.0\libgcc.a(adddf3.o)
 .debug_loc     0x0000000000001bc7     0x1fc6 d:/intelfpga_lite/18.0/nios2eds/bin/gnu/h-x86_64-mingw32/bin/../lib/gcc/nios2-elf/5.3.0\libgcc.a(divdf3.o)
 .debug_loc     0x0000000000003b8d       0x68 d:/intelfpga_lite/18.0/nios2eds/bin/gnu/h-x86_64-mingw32/bin/../lib/gcc/nios2-elf/5.3.0\libgcc.a(eqdf2.o)
 .debug_loc     0x0000000000003bf5     0x1627 d:/intelfpga_lite/18.0/nios2eds/bin/gnu/h-x86_64-mingw32/bin/../lib/gcc/nios2-elf/5.3.0\libgcc.a(subdf3.o)
 .debug_loc     0x000000000000521c      0x26d d:/intelfpga_lite/18.0/nios2eds/bin/gnu/h-x86_64-mingw32/bin/../lib/gcc/nios2-elf/5.3.0\libgcc.a(extendsfdf2.o)
 .debug_loc     0x0000000000005489      0x359 d:/intelfpga_lite/18.0/nios2eds/bin/gnu/h-x86_64-mingw32/bin/../lib/gcc/nios2-elf/5.3.0\libgcc.a(truncdfsf2.o)
 .debug_loc     0x00000000000057e2       0x6b d:/intelfpga_lite/18.0/nios2eds/bin/gnu/h-x86_64-mingw32/bin/../lib/gcc/nios2-elf/5.3.0\libgcc.a(_clzsi2.o)
 .debug_loc     0x000000000000584d      0x12d d:/intelfpga_lite/18.0/nios2eds/bin/gnu/h-x86_64-mingw32/bin/../lib/gcc/nios2-elf/5.3.0\libgcc.a(_muldi3.o)
 .debug_loc     0x000000000000597a     0x10ca d:/intelfpga_lite/18.0/nios2eds/bin/gnu/h-x86_64-mingw32/bin/../lib/gcc/nios2-elf/5.3.0\libgcc.a(_udivdi3.o)
 .debug_loc     0x0000000000006a44     0x10ad d:/intelfpga_lite/18.0/nios2eds/bin/gnu/h-x86_64-mingw32/bin/../lib/gcc/nios2-elf/5.3.0\libgcc.a(_umoddi3.o)
 .debug_loc     0x0000000000007af1       0xf9 d:/intelfpga_lite/18.0/nios2eds/bin/gnu/h-x86_64-mingw32/bin/../lib/gcc/nios2-elf/5.3.0\libgcc.a(gedf2.o)
 .debug_loc     0x0000000000007bea      0x163 d:/intelfpga_lite/18.0/nios2eds/bin/gnu/h-x86_64-mingw32/bin/../lib/gcc/nios2-elf/5.3.0\libgcc.a(ledf2.o)
 .debug_loc     0x0000000000007d4d     0x100d d:/intelfpga_lite/18.0/nios2eds/bin/gnu/h-x86_64-mingw32/bin/../lib/gcc/nios2-elf/5.3.0\libgcc.a(muldf3.o)
 .debug_loc     0x0000000000008d5a      0x121 d:/intelfpga_lite/18.0/nios2eds/bin/gnu/h-x86_64-mingw32/bin/../lib/gcc/nios2-elf/5.3.0\libgcc.a(fixdfsi.o)
 .debug_loc     0x0000000000008e7b      0x175 d:/intelfpga_lite/18.0/nios2eds/bin/gnu/h-x86_64-mingw32/bin/../lib/gcc/nios2-elf/5.3.0\libgcc.a(floatsidf.o)
 .debug_loc     0x0000000000008ff0      0x19e d:/intelfpga_lite/18.0/nios2eds/bin/gnu/h-x86_64-mingw32/bin/../lib/gcc/nios2-elf/5.3.0\libgcc.a(floatunsidf.o)

.debug_macinfo
 *(.debug_macinfo)

.debug_weaknames
 *(.debug_weaknames)

.debug_funcnames
 *(.debug_funcnames)

.debug_typenames
 *(.debug_typenames)

.debug_varnames
 *(.debug_varnames)

.debug_alt_sim_info
                0x0000000000000000       0x30
 *(.debug_alt_sim_info)
 .debug_alt_sim_info
                0x0000000000000000       0x30 ../Hello_bsp//obj/HAL/src/crt0.o
                0x0000000010000000                __alt_data_end = 0x10000000
                0x0000000010000000                PROVIDE (__alt_stack_pointer, __alt_data_end)
                [!provide]                        PROVIDE (__alt_stack_limit, __alt_stack_base)
                0x000000000803abf8                PROVIDE (__alt_heap_start, end)
                0x0000000010000000                PROVIDE (__alt_heap_limit, 0x10000000)
OUTPUT(hello.elf elf32-littlenios2)

.debug_ranges   0x0000000000000000     0x15e0
 .debug_ranges  0x0000000000000000       0x20 ../Hello_bsp//obj/HAL/src/crt0.o
 .debug_ranges  0x0000000000000020       0x10 ../Hello_bsp//newlib/nios2-elf/lib\libm.a(lib_a-sf_ceil.o)
 .debug_ranges  0x0000000000000030       0x10 ../Hello_bsp//newlib/nios2-elf/lib\libm.a(lib_a-sf_cos.o)
 .debug_ranges  0x0000000000000040       0x10 ../Hello_bsp//newlib/nios2-elf/lib\libm.a(lib_a-sf_floor.o)
 .debug_ranges  0x0000000000000050       0x10 ../Hello_bsp//newlib/nios2-elf/lib\libm.a(lib_a-sf_fmax.o)
 .debug_ranges  0x0000000000000060       0x10 ../Hello_bsp//newlib/nios2-elf/lib\libm.a(lib_a-sf_fmin.o)
 .debug_ranges  0x0000000000000070       0x10 ../Hello_bsp//newlib/nios2-elf/lib\libm.a(lib_a-sf_fpclassify.o)
 .debug_ranges  0x0000000000000080       0x10 ../Hello_bsp//newlib/nios2-elf/lib\libm.a(lib_a-sf_round.o)
 .debug_ranges  0x0000000000000090       0x10 ../Hello_bsp//newlib/nios2-elf/lib\libm.a(lib_a-sf_sin.o)
 .debug_ranges  0x00000000000000a0       0x10 ../Hello_bsp//newlib/nios2-elf/lib\libm.a(lib_a-sf_tan.o)
 .debug_ranges  0x00000000000000b0       0x10 ../Hello_bsp//newlib/nios2-elf/lib\libm.a(lib_a-wf_acos.o)
 .debug_ranges  0x00000000000000c0       0x10 ../Hello_bsp//newlib/nios2-elf/lib\libm.a(lib_a-wf_atan2.o)
 .debug_ranges  0x00000000000000d0       0x10 ../Hello_bsp//newlib/nios2-elf/lib\libm.a(lib_a-wf_pow.o)
 .debug_ranges  0x00000000000000e0       0x10 ../Hello_bsp//newlib/nios2-elf/lib\libm.a(lib_a-wf_sqrt.o)
 .debug_ranges  0x00000000000000f0       0x10 ../Hello_bsp//newlib/nios2-elf/lib\libm.a(lib_a-ef_acos.o)
 .debug_ranges  0x0000000000000100       0x10 ../Hello_bsp//newlib/nios2-elf/lib\libm.a(lib_a-ef_atan2.o)
 .debug_ranges  0x0000000000000110       0x10 ../Hello_bsp//newlib/nios2-elf/lib\libm.a(lib_a-ef_pow.o)
 .debug_ranges  0x0000000000000120       0x10 ../Hello_bsp//newlib/nios2-elf/lib\libm.a(lib_a-ef_rem_pio2.o)
 .debug_ranges  0x0000000000000130       0x10 ../Hello_bsp//newlib/nios2-elf/lib\libm.a(lib_a-ef_sqrt.o)
 .debug_ranges  0x0000000000000140       0x10 ../Hello_bsp//newlib/nios2-elf/lib\libm.a(lib_a-kf_cos.o)
 .debug_ranges  0x0000000000000150       0x10 ../Hello_bsp//newlib/nios2-elf/lib\libm.a(lib_a-kf_rem_pio2.o)
 .debug_ranges  0x0000000000000160       0x10 ../Hello_bsp//newlib/nios2-elf/lib\libm.a(lib_a-kf_sin.o)
 .debug_ranges  0x0000000000000170       0x10 ../Hello_bsp//newlib/nios2-elf/lib\libm.a(lib_a-kf_tan.o)
 .debug_ranges  0x0000000000000180       0x10 ../Hello_bsp//newlib/nios2-elf/lib\libm.a(lib_a-s_matherr.o)
 .debug_ranges  0x0000000000000190       0x10 ../Hello_bsp//newlib/nios2-elf/lib\libm.a(lib_a-s_nan.o)
 .debug_ranges  0x00000000000001a0       0x10 ../Hello_bsp//newlib/nios2-elf/lib\libm.a(lib_a-s_rint.o)
 .debug_ranges  0x00000000000001b0       0x10 ../Hello_bsp//newlib/nios2-elf/lib\libm.a(lib_a-sf_atan.o)
 .debug_ranges  0x00000000000001c0       0x10 ../Hello_bsp//newlib/nios2-elf/lib\libm.a(lib_a-sf_fabs.o)
 .debug_ranges  0x00000000000001d0       0x10 ../Hello_bsp//newlib/nios2-elf/lib\libm.a(lib_a-sf_finite.o)
 .debug_ranges  0x00000000000001e0       0x10 ../Hello_bsp//newlib/nios2-elf/lib\libm.a(lib_a-sf_nan.o)
 .debug_ranges  0x00000000000001f0       0x10 ../Hello_bsp//newlib/nios2-elf/lib\libm.a(lib_a-sf_scalbn.o)
 .debug_ranges  0x0000000000000200       0x10 ../Hello_bsp//newlib/nios2-elf/lib\libm.a(lib_a-sf_copysign.o)
 .debug_ranges  0x0000000000000210       0x60 d:/intelfpga_lite/18.0/nios2eds/bin/gnu/h-x86_64-mingw32/bin/../lib/gcc/nios2-elf/5.3.0\libgcc.a(lib2-divmod.o)
 .debug_ranges  0x0000000000000270      0x240 d:/intelfpga_lite/18.0/nios2eds/bin/gnu/h-x86_64-mingw32/bin/../lib/gcc/nios2-elf/5.3.0\libgcc.a(adddf3.o)
 .debug_ranges  0x00000000000004b0      0x138 d:/intelfpga_lite/18.0/nios2eds/bin/gnu/h-x86_64-mingw32/bin/../lib/gcc/nios2-elf/5.3.0\libgcc.a(divdf3.o)
 .debug_ranges  0x00000000000005e8       0x48 d:/intelfpga_lite/18.0/nios2eds/bin/gnu/h-x86_64-mingw32/bin/../lib/gcc/nios2-elf/5.3.0\libgcc.a(eqdf2.o)
 .debug_ranges  0x0000000000000630      0x268 d:/intelfpga_lite/18.0/nios2eds/bin/gnu/h-x86_64-mingw32/bin/../lib/gcc/nios2-elf/5.3.0\libgcc.a(subdf3.o)
 .debug_ranges  0x0000000000000898       0x48 d:/intelfpga_lite/18.0/nios2eds/bin/gnu/h-x86_64-mingw32/bin/../lib/gcc/nios2-elf/5.3.0\libgcc.a(extendsfdf2.o)
 .debug_ranges  0x00000000000008e0       0x38 d:/intelfpga_lite/18.0/nios2eds/bin/gnu/h-x86_64-mingw32/bin/../lib/gcc/nios2-elf/5.3.0\libgcc.a(truncdfsf2.o)
 .debug_ranges  0x0000000000000918       0x18 d:/intelfpga_lite/18.0/nios2eds/bin/gnu/h-x86_64-mingw32/bin/../lib/gcc/nios2-elf/5.3.0\libgcc.a(_clzsi2.o)
 .debug_ranges  0x0000000000000930       0x10 ../Hello_bsp//newlib/nios2-elf/lib\libc.a(lib_a-errno.o)
 .debug_ranges  0x0000000000000940       0x18 ../Hello_bsp//newlib/nios2-elf/lib\libc.a(lib_a-malloc.o)
 .debug_ranges  0x0000000000000958       0x18 ../Hello_bsp//newlib/nios2-elf/lib\libc.a(lib_a-mallocr.o)
 .debug_ranges  0x0000000000000970       0x10 ../Hello_bsp//newlib/nios2-elf/lib\libc.a(lib_a-memcpy.o)
 .debug_ranges  0x0000000000000980       0x10 ../Hello_bsp//newlib/nios2-elf/lib\libc.a(lib_a-memset.o)
 .debug_ranges  0x0000000000000990       0x18 ../Hello_bsp//newlib/nios2-elf/lib\libc.a(lib_a-printf.o)
 .debug_ranges  0x00000000000009a8       0x18 ../Hello_bsp//newlib/nios2-elf/lib\libc.a(lib_a-putchar.o)
 .debug_ranges  0x00000000000009c0       0x18 ../Hello_bsp//newlib/nios2-elf/lib\libc.a(lib_a-puts.o)
 .debug_ranges  0x00000000000009d8       0x18 ../Hello_bsp//newlib/nios2-elf/lib\libc.a(lib_a-rand.o)
 .debug_ranges  0x00000000000009f0       0x10 ../Hello_bsp//newlib/nios2-elf/lib\libc.a(lib_a-sbrkr.o)
 .debug_ranges  0x0000000000000a00       0x10 ../Hello_bsp//newlib/nios2-elf/lib\libc.a(lib_a-strlen.o)
 .debug_ranges  0x0000000000000a10       0x90 ../Hello_bsp//newlib/nios2-elf/lib\libc.a(lib_a-vfprintf.o)
 .debug_ranges  0x0000000000000aa0       0x10 ../Hello_bsp//newlib/nios2-elf/lib\libc.a(lib_a-wsetup.o)
 .debug_ranges  0x0000000000000ab0       0x18 ../Hello_bsp//newlib/nios2-elf/lib\libc.a(lib_a-dtoa.o)
 .debug_ranges  0x0000000000000ac8       0x20 ../Hello_bsp//newlib/nios2-elf/lib\libc.a(lib_a-fflush.o)
 .debug_ranges  0x0000000000000ae8       0x78 ../Hello_bsp//newlib/nios2-elf/lib\libc.a(lib_a-findfp.o)
 .debug_ranges  0x0000000000000b60       0x18 ../Hello_bsp//newlib/nios2-elf/lib\libc.a(lib_a-freer.o)
 .debug_ranges  0x0000000000000b78       0x10 ../Hello_bsp//newlib/nios2-elf/lib\libc.a(lib_a-fvwrite.o)
 .debug_ranges  0x0000000000000b88       0x18 ../Hello_bsp//newlib/nios2-elf/lib\libc.a(lib_a-fwalk.o)
 .debug_ranges  0x0000000000000ba0       0x48 ../Hello_bsp//newlib/nios2-elf/lib\libc.a(lib_a-locale.o)
 .debug_ranges  0x0000000000000be8       0x10 ../Hello_bsp//newlib/nios2-elf/lib\libc.a(lib_a-makebuf.o)
 .debug_ranges  0x0000000000000bf8       0x10 ../Hello_bsp//newlib/nios2-elf/lib\libc.a(lib_a-memchr.o)
 .debug_ranges  0x0000000000000c08       0x10 ../Hello_bsp//newlib/nios2-elf/lib\libc.a(lib_a-memmove.o)
 .debug_ranges  0x0000000000000c18       0xa0 ../Hello_bsp//newlib/nios2-elf/lib\libc.a(lib_a-mprec.o)
 .debug_ranges  0x0000000000000cb8       0x18 ../Hello_bsp//newlib/nios2-elf/lib\libc.a(lib_a-putc.o)
 .debug_ranges  0x0000000000000cd0       0x40 ../Hello_bsp//newlib/nios2-elf/lib\libc.a(lib_a-reallocr.o)
 .debug_ranges  0x0000000000000d10       0x10 ../Hello_bsp//newlib/nios2-elf/lib\libc.a(lib_a-s_fpclassify.o)
 .debug_ranges  0x0000000000000d20       0x30 ../Hello_bsp//newlib/nios2-elf/lib\libc.a(lib_a-stdio.o)
 .debug_ranges  0x0000000000000d50       0x10 ../Hello_bsp//newlib/nios2-elf/lib\libc.a(lib_a-strcmp.o)
 .debug_ranges  0x0000000000000d60       0x40 ../Hello_bsp//newlib/nios2-elf/lib\libc.a(lib_a-vfiprintf.o)
 .debug_ranges  0x0000000000000da0       0x18 ../Hello_bsp//newlib/nios2-elf/lib\libc.a(lib_a-wbuf.o)
 .debug_ranges  0x0000000000000db8       0x10 ../Hello_bsp//newlib/nios2-elf/lib\libc.a(lib_a-writer.o)
 .debug_ranges  0x0000000000000dc8       0x10 ../Hello_bsp//newlib/nios2-elf/lib\libc.a(closer.o)
 .debug_ranges  0x0000000000000dd8       0x10 ../Hello_bsp//newlib/nios2-elf/lib\libc.a(lib_a-callocr.o)
 .debug_ranges  0x0000000000000de8       0x18 ../Hello_bsp//newlib/nios2-elf/lib\libc.a(lib_a-fclose.o)
 .debug_ranges  0x0000000000000e00       0x20 ../Hello_bsp//newlib/nios2-elf/lib\libc.a(lib_a-fputwc.o)
 .debug_ranges  0x0000000000000e20       0x10 ../Hello_bsp//newlib/nios2-elf/lib\libc.a(lib_a-fstatr.o)
 .debug_ranges  0x0000000000000e30       0x10 ../Hello_bsp//newlib/nios2-elf/lib\libc.a(lib_a-isattyr.o)
 .debug_ranges  0x0000000000000e40       0x10 ../Hello_bsp//newlib/nios2-elf/lib\libc.a(lib_a-lseekr.o)
 .debug_ranges  0x0000000000000e50       0x10 ../Hello_bsp//newlib/nios2-elf/lib\libc.a(lib_a-readr.o)
 .debug_ranges  0x0000000000000e60       0x18 ../Hello_bsp//newlib/nios2-elf/lib\libc.a(lib_a-wcrtomb.o)
 .debug_ranges  0x0000000000000e78       0x18 ../Hello_bsp//newlib/nios2-elf/lib\libc.a(lib_a-wctomb_r.o)
 .debug_ranges  0x0000000000000e90       0x18 d:/intelfpga_lite/18.0/nios2eds/bin/gnu/h-x86_64-mingw32/bin/../lib/gcc/nios2-elf/5.3.0\libgcc.a(_muldi3.o)
 .debug_ranges  0x0000000000000ea8      0x158 d:/intelfpga_lite/18.0/nios2eds/bin/gnu/h-x86_64-mingw32/bin/../lib/gcc/nios2-elf/5.3.0\libgcc.a(_udivdi3.o)
 .debug_ranges  0x0000000000001000      0x160 d:/intelfpga_lite/18.0/nios2eds/bin/gnu/h-x86_64-mingw32/bin/../lib/gcc/nios2-elf/5.3.0\libgcc.a(_umoddi3.o)
 .debug_ranges  0x0000000000001160       0x88 d:/intelfpga_lite/18.0/nios2eds/bin/gnu/h-x86_64-mingw32/bin/../lib/gcc/nios2-elf/5.3.0\libgcc.a(gedf2.o)
 .debug_ranges  0x00000000000011e8       0xa8 d:/intelfpga_lite/18.0/nios2eds/bin/gnu/h-x86_64-mingw32/bin/../lib/gcc/nios2-elf/5.3.0\libgcc.a(ledf2.o)
 .debug_ranges  0x0000000000001290      0x1f0 d:/intelfpga_lite/18.0/nios2eds/bin/gnu/h-x86_64-mingw32/bin/../lib/gcc/nios2-elf/5.3.0\libgcc.a(muldf3.o)
 .debug_ranges  0x0000000000001480       0x30 d:/intelfpga_lite/18.0/nios2eds/bin/gnu/h-x86_64-mingw32/bin/../lib/gcc/nios2-elf/5.3.0\libgcc.a(fixdfsi.o)
 .debug_ranges  0x00000000000014b0       0x20 d:/intelfpga_lite/18.0/nios2eds/bin/gnu/h-x86_64-mingw32/bin/../lib/gcc/nios2-elf/5.3.0\libgcc.a(floatsidf.o)
 .debug_ranges  0x00000000000014d0       0x18 d:/intelfpga_lite/18.0/nios2eds/bin/gnu/h-x86_64-mingw32/bin/../lib/gcc/nios2-elf/5.3.0\libgcc.a(floatunsidf.o)
 .debug_ranges  0x00000000000014e8       0x30 ../Hello_bsp/\libhal_bsp.a(altera_avalon_jtag_uart_init.o)
 .debug_ranges  0x0000000000001518       0x18 ../Hello_bsp/\libhal_bsp.a(altera_avalon_jtag_uart_read.o)
 .debug_ranges  0x0000000000001530       0x28 ../Hello_bsp/\libhal_bsp.a(alt_irq_entry.o)
 .debug_ranges  0x0000000000001558       0x10 ../Hello_bsp/\libhal_bsp.a(alt_irq_handler.o)
 .debug_ranges  0x0000000000001568       0x30 ../Hello_bsp/\libhal_bsp.a(alt_exception_entry.o)
 .debug_ranges  0x0000000000001598       0x18 ../Hello_bsp/\libhal_bsp.a(alt_instruction_exception_entry.o)
 .debug_ranges  0x00000000000015b0       0x10 ../Hello_bsp//newlib/nios2-elf/lib\libc.a(lib_a-exit.o)
 .debug_ranges  0x00000000000015c0       0x10 ../Hello_bsp//newlib/nios2-elf/lib\libc.a(lib_a-memcmp.o)
 .debug_ranges  0x00000000000015d0       0x10 ../Hello_bsp//newlib/nios2-elf/lib\libc.a(lib_a-__call_atexit.o)
